Archive member included to satisfy reference by file (symbol)

/mnt/hdd/projects-3rdparty/xtensa/esp-open-sdk/xtensa-lx106-elf/bin/../lib/gcc/xtensa-lx106-elf/4.8.5/../../../../xtensa-lx106-elf/lib/libc.a(lib_a-atoi.o)
                              libmesh/espconn_mesh.o (atoi)
/mnt/hdd/projects-3rdparty/xtensa/esp-open-sdk/xtensa-lx106-elf/bin/../lib/gcc/xtensa-lx106-elf/4.8.5/../../../../xtensa-lx106-elf/lib/libc.a(lib_a-memchr.o)
                              liblwip/espconn_buf.o (memchr)
/mnt/hdd/projects-3rdparty/xtensa/esp-open-sdk/xtensa-lx106-elf/bin/../lib/gcc/xtensa-lx106-elf/4.8.5/../../../../xtensa-lx106-elf/lib/libc.a(lib_a-memcmp.o)
                              libssl/ssl_tls1.o (memcmp)
/mnt/hdd/projects-3rdparty/xtensa/esp-open-sdk/xtensa-lx106-elf/bin/../lib/gcc/xtensa-lx106-elf/4.8.5/../../../../xtensa-lx106-elf/lib/libc.a(lib_a-memcpy.o)
                              libcrypto/ms_funcs.o (memcpy)
/mnt/hdd/projects-3rdparty/xtensa/esp-open-sdk/xtensa-lx106-elf/bin/../lib/gcc/xtensa-lx106-elf/4.8.5/../../../../xtensa-lx106-elf/lib/libc.a(lib_a-strcasecmp.o)
                              libwpa2/x509v3.o (strcasecmp)
/mnt/hdd/projects-3rdparty/xtensa/esp-open-sdk/xtensa-lx106-elf/bin/../lib/gcc/xtensa-lx106-elf/4.8.5/../../../../xtensa-lx106-elf/lib/libc.a(lib_a-strtol.o)
                              /mnt/hdd/projects-3rdparty/xtensa/esp-open-sdk/xtensa-lx106-elf/bin/../lib/gcc/xtensa-lx106-elf/4.8.5/../../../../xtensa-lx106-elf/lib/libc.a(lib_a-atoi.o) (_strtol_r)
/mnt/hdd/projects-3rdparty/xtensa/esp-open-sdk/xtensa-lx106-elf/bin/../lib/gcc/xtensa-lx106-elf/4.8.5/../../../../xtensa-lx106-elf/lib/libc.a(lib_a-sysgettod.o)
                              libmain/time.o (gettimeofday)
/mnt/hdd/projects-3rdparty/xtensa/esp-open-sdk/xtensa-lx106-elf/bin/../lib/gcc/xtensa-lx106-elf/4.8.5/../../../../xtensa-lx106-elf/lib/libc.a(lib_a-ctype_.o)
                              /mnt/hdd/projects-3rdparty/xtensa/esp-open-sdk/xtensa-lx106-elf/bin/../lib/gcc/xtensa-lx106-elf/4.8.5/../../../../xtensa-lx106-elf/lib/libc.a(lib_a-strcasecmp.o) (__ctype_ptr__)
/mnt/hdd/projects-3rdparty/xtensa/esp-open-sdk/xtensa-lx106-elf/bin/../lib/gcc/xtensa-lx106-elf/4.8.5/../../../../xtensa-lx106-elf/lib/libc.a(lib_a-impure.o)
                              /mnt/hdd/projects-3rdparty/xtensa/esp-open-sdk/xtensa-lx106-elf/bin/../lib/gcc/xtensa-lx106-elf/4.8.5/../../../../xtensa-lx106-elf/lib/libc.a(lib_a-strtol.o) (_impure_ptr)

Allocating common symbols
Common symbol       size              file

default_private_key
                    0x0               ../empty_user.o
default_certificate
                    0x0               ../empty_user.o

Memory Configuration

Name             Origin             Length             Attributes
dport0_0_seg     0x000000003ff00000 0x0000000000000010
dram0_0_seg      0x000000003ffe8000 0x0000000000014000
iram1_0_seg      0x0000000040100000 0x0000000000008000
irom0_0_seg      0x0000000040240000 0x000000000007c000
*default*        0x0000000000000000 0xffffffffffffffff

Linker script and memory map

                [!provide]                        PROVIDE (_memmap_vecbase_reset, 0x40000000)
                0x0000000000000110                _memmap_cacheattr_wb_base = 0x110
                0x0000000000000110                _memmap_cacheattr_wt_base = 0x110
                0x0000000000000220                _memmap_cacheattr_bp_base = 0x220
                0x00000000fffff00f                _memmap_cacheattr_unused_mask = 0xfffff00f
                0x000000002222211f                _memmap_cacheattr_wb_trapnull = 0x2222211f
                0x000000002222211f                _memmap_cacheattr_wba_trapnull = 0x2222211f
                0x000000002222211f                _memmap_cacheattr_wbna_trapnull = 0x2222211f
                0x000000002222211f                _memmap_cacheattr_wt_trapnull = 0x2222211f
                0x000000002222222f                _memmap_cacheattr_bp_trapnull = 0x2222222f
                0x00000000fffff11f                _memmap_cacheattr_wb_strict = 0xfffff11f
                0x00000000fffff11f                _memmap_cacheattr_wt_strict = 0xfffff11f
                0x00000000fffff22f                _memmap_cacheattr_bp_strict = 0xfffff22f
                0x0000000022222112                _memmap_cacheattr_wb_allvalid = 0x22222112
                0x0000000022222112                _memmap_cacheattr_wt_allvalid = 0x22222112
                0x0000000022222222                _memmap_cacheattr_bp_allvalid = 0x22222222
                [!provide]                        PROVIDE (_memmap_cacheattr_reset, _memmap_cacheattr_wb_trapnull)

.dport0.rodata  0x000000003ff00000        0x0
                0x000000003ff00000                _dport0_rodata_start = ABSOLUTE (.)
 *(.dport0.rodata)
 *(.dport.rodata)
                0x000000003ff00000                _dport0_rodata_end = ABSOLUTE (.)

.dport0.literal
                0x000000003ff00000        0x0
                0x000000003ff00000                _dport0_literal_start = ABSOLUTE (.)
 *(.dport0.literal)
 *(.dport.literal)
                0x000000003ff00000                _dport0_literal_end = ABSOLUTE (.)

.dport0.data    0x000000003ff00000        0x0
                0x000000003ff00000                _dport0_data_start = ABSOLUTE (.)
 *(.dport0.data)
 *(.dport.data)
                0x000000003ff00000                _dport0_data_end = ABSOLUTE (.)

.data           0x000000003ffe8000      0x918
                0x000000003ffe8000                _data_start = ABSOLUTE (.)
 *(.data)
 .data          0x000000003ffe8000        0x0 libairkiss/airkiss.o
 .data          0x000000003ffe8000        0x0 libairkiss/airlink.o
 .data          0x000000003ffe8000        0x0 libcrypto/aes-cbc.o
 .data          0x000000003ffe8000        0x0 libcrypto/aes-internal-dec.o
 .data          0x000000003ffe8000        0x0 libcrypto/aes-internal-enc.o
 .data          0x000000003ffe8000        0x0 libcrypto/aes-internal.o
 .data          0x000000003ffe8000        0x0 libcrypto/aes-wrap.o
 .data          0x000000003ffe8000        0x0 libcrypto/crypto_internal-cipher.o
 .data          0x000000003ffe8000        0x0 libcrypto/crypto_internal-modexp.o
 .data          0x000000003ffe8000        0x0 libcrypto/crypto_internal.o
 .data          0x000000003ffe8000        0x0 libcrypto/crypto_internal-rsa.o
 .data          0x000000003ffe8000        0x0 libcrypto/des-internal.o
 .data          0x000000003ffe8000        0x0 libcrypto/dh_group5.o
 .data          0x000000003ffe8000       0x14 libcrypto/dh_groups.o
 *fill*         0x000000003ffe8014        0xc 
 .data          0x000000003ffe8020       0x40 libcrypto/md4-internal.o
 .data          0x000000003ffe8060        0x0 libcrypto/ms_funcs.o
 .data          0x000000003ffe8060        0x0 libcrypto/sha256-internal.o
 .data          0x000000003ffe8060        0x0 libcrypto/sha256.o
 .data          0x000000003ffe8060        0x0 libespnow/espnow.o
 .data          0x000000003ffe8060        0x0 libespnow/manatick.o
 .data          0x000000003ffe8060        0x0 libespnow/simple_pair.o
 .data          0x000000003ffe8060        0x0 liblwip/api_lib.o
 .data          0x000000003ffe8060        0x0 liblwip/api_msg.o
 .data          0x000000003ffe8060        0x0 liblwip/autoip.o
 .data          0x000000003ffe8060        0x0 liblwip/def.o
 .data          0x000000003ffe8060        0x4 liblwip/dhcp.o
 .data          0x000000003ffe8064        0x5 liblwip/dhcpserver.o
                0x000000003ffe8064                dhcps_lease_time
 .data          0x000000003ffe8069        0x0 liblwip/dns.o
 .data          0x000000003ffe8069        0x0 liblwip/err.o
 .data          0x000000003ffe8069        0x0 liblwip/espconn_buf.o
 .data          0x000000003ffe8069        0x0 liblwip/espconn_mdns.o
 .data          0x000000003ffe8069        0x0 liblwip/espconn.o
 .data          0x000000003ffe8069        0x0 liblwip/espconn_tcp.o
 .data          0x000000003ffe8069        0x0 liblwip/espconn_udp.o
 .data          0x000000003ffe8069        0x0 liblwip/etharp.o
 .data          0x000000003ffe8069        0x0 liblwip/icmp.o
 .data          0x000000003ffe8069        0x0 liblwip/igmp.o
 .data          0x000000003ffe8069        0x0 liblwip/inet_chksum.o
 .data          0x000000003ffe8069        0x0 liblwip/inet.o
 .data          0x000000003ffe8069        0x0 liblwip/init.o
 .data          0x000000003ffe8069        0x0 liblwip/ip_addr.o
 .data          0x000000003ffe8069        0x0 liblwip/ip_frag.o
 .data          0x000000003ffe8069        0x0 liblwip/ip.o
 .data          0x000000003ffe8069        0x0 liblwip/mdns.o
 .data          0x000000003ffe8069        0x0 liblwip/mem.o
 *fill*         0x000000003ffe8069        0x3 
 .data          0x000000003ffe806c        0x2 liblwip/memp.o
                0x000000003ffe806c                memp_sizes_test
 .data          0x000000003ffe806e        0x0 liblwip/netbuf.o
 .data          0x000000003ffe806e        0x0 liblwip/netdb.o
 .data          0x000000003ffe806e        0x0 liblwip/netifapi.o
 .data          0x000000003ffe806e        0x0 liblwip/netif.o
 .data          0x000000003ffe806e        0x0 liblwip/netio.o
 .data          0x000000003ffe806e        0x0 liblwip/pbuf.o
 .data          0x000000003ffe806e        0x0 liblwip/ping.o
 .data          0x000000003ffe806e        0x0 liblwip/raw.o
 *fill*         0x000000003ffe806e        0x2 
 .data          0x000000003ffe8070        0x8 liblwip/sntp.o
                0x000000003ffe8070                time_zone
                0x000000003ffe8071                sntp_receive_time_size
 .data          0x000000003ffe8078        0x0 liblwip/sockets.o
 .data          0x000000003ffe8078        0x0 liblwip/stats.o
 .data          0x000000003ffe8078        0x0 liblwip/sys_arch.o
 .data          0x000000003ffe8078        0x0 liblwip/sys.o
 .data          0x000000003ffe8078        0x0 liblwip/tcp_in.o
 .data          0x000000003ffe8078        0x0 liblwip/tcpip.o
 .data          0x000000003ffe8078        0x8 liblwip/tcp.o
 .data          0x000000003ffe8080        0x0 liblwip/tcp_out.o
 .data          0x000000003ffe8080        0x0 liblwip/timers.o
 .data          0x000000003ffe8080        0x0 liblwip/udp.o
 .data          0x000000003ffe8080        0x1 libmain/app_main.o
 .data          0x000000003ffe8081        0x0 libmain/debug-vector.o
 .data          0x000000003ffe8081        0x0 libmain/double-vector.o
 .data          0x000000003ffe8081        0x0 libmain/eagle_lib.o
 *fill*         0x000000003ffe8081        0x3 
 .data          0x000000003ffe8084        0x1 libmain/eagle_lwip_if.o
                0x000000003ffe8084                default_hostname
 .data          0x000000003ffe8085        0x0 libmain/ets_timer.o
 .data          0x000000003ffe8085        0x0 libmain/kernel-vector.o
 .data          0x000000003ffe8085        0x0 libmain/mem_manager.o
 .data          0x000000003ffe8085        0x4 libmain/nmi-vector.o
                0x000000003ffe8085                _Pri_3_HandlerAddress
 .data          0x000000003ffe8089        0x0 libmain/spi_flash.o
 .data          0x000000003ffe8089        0x0 libmain/spi_overlap.o
 .data          0x000000003ffe8089        0x0 libmain/time.o
 *fill*         0x000000003ffe8089        0x3 
 .data          0x000000003ffe808c        0x6 libmain/user_interface.o
                0x000000003ffe808d                timer2_ms_flag
                0x000000003ffe808e                dhcps_flag
                0x000000003ffe808f                dhcpc_flag
                0x000000003ffe8091                reconnect_internal
 .data          0x000000003ffe8092        0x0 libmain/user-vector.o
 .data          0x000000003ffe8092        0x0 libmain/vector.o
 *fill*         0x000000003ffe8092        0xe 
 .data          0x000000003ffe80a0       0x41 libmesh/espconn_base64.o
 *fill*         0x000000003ffe80e1        0x3 
 .data          0x000000003ffe80e4       0x21 libmesh/espconn_mesh.o
 *fill*         0x000000003ffe8105        0x3 
 .data          0x000000003ffe8108       0x1c libnet80211/ieee80211_action.o
 .data          0x000000003ffe8124        0x0 libnet80211/ieee80211_action_vendor.o
 .data          0x000000003ffe8124        0x0 libnet80211/ieee80211_crypto_ccmp.o
 .data          0x000000003ffe8124        0x0 libnet80211/ieee80211_crypto.o
 .data          0x000000003ffe8124        0x0 libnet80211/ieee80211_crypto_tkip.o
 .data          0x000000003ffe8124        0x0 libnet80211/ieee80211_crypto_wep.o
 .data          0x000000003ffe8124        0x0 libnet80211/ieee80211_ets.o
 .data          0x000000003ffe8124        0x1 libnet80211/ieee80211_hostap.o
                0x000000003ffe8124                TmpSTAAPCloseAP
 .data          0x000000003ffe8125        0x0 libnet80211/ieee80211_ht.o
 .data          0x000000003ffe8125        0x0 libnet80211/ieee80211_hwmp.o
 .data          0x000000003ffe8125        0x0 libnet80211/ieee80211_ie_vendor.o
 .data          0x000000003ffe8125        0x0 libnet80211/ieee80211_input.o
 .data          0x000000003ffe8125        0x0 libnet80211/ieee80211_mesh.o
 .data          0x000000003ffe8125        0x0 libnet80211/ieee80211_mesh_quick.o
 .data          0x000000003ffe8125        0x0 libnet80211/ieee80211_node.o
 .data          0x000000003ffe8125        0x0 libnet80211/ieee80211.o
 .data          0x000000003ffe8125        0x0 libnet80211/ieee80211_output.o
 .data          0x000000003ffe8125        0x0 libnet80211/ieee80211_phy.o
 .data          0x000000003ffe8125        0x0 libnet80211/ieee80211_power.o
 .data          0x000000003ffe8125        0x0 libnet80211/ieee80211_proto.o
 .data          0x000000003ffe8125        0x0 libnet80211/ieee80211_regdomain.o
 .data          0x000000003ffe8125        0x0 libnet80211/ieee80211_rfid.o
 .data          0x000000003ffe8125        0x0 libnet80211/ieee80211_scan.o
 .data          0x000000003ffe8125        0x0 libnet80211/ieee80211_sta.o
 .data          0x000000003ffe8125        0x0 libnet80211/if_eagle.o
 .data          0x000000003ffe8125        0x0 libnet80211/wl_chm.o
 *fill*         0x000000003ffe8125        0x3 
 .data          0x000000003ffe8128        0x1 libnet80211/wl_cnx.o
 .data          0x000000003ffe8129        0x0 libphy/ate_test.o
 .data          0x000000003ffe8129        0x0 libphy/phy_chip_v6_ana.o
 *fill*         0x000000003ffe8129        0x3 
 .data          0x000000003ffe812c        0x1 libphy/phy_chip_v6_cal.o
                0x000000003ffe812c                rfcal_bb_atten_init
 *fill*         0x000000003ffe812d        0x3 
 .data          0x000000003ffe8130       0x53 libphy/phy_chip_v6.o
                0x000000003ffe8132                tx_rf_ana_gain
                0x000000003ffe8160                rx_gain_swp
                0x000000003ffe8180                test_rffreq_txcap
 .data          0x000000003ffe8183        0x0 libphy/phy_chip_v6_unused.o
 .data          0x000000003ffe8183        0x0 libphy/phy.o
 *fill*         0x000000003ffe8183        0x1 
 .data          0x000000003ffe8184        0x4 libphy/phy_sleep.o
                0x000000003ffe8184                chip_version
 .data          0x000000003ffe8188        0x0 libpp/esf_buf.o
 .data          0x000000003ffe8188        0x0 libpp/if_hwctrl.o
 .data          0x000000003ffe8188        0x0 libpp/lmac.o
 .data          0x000000003ffe8188        0x0 libpp/mac_frame.o
 .data          0x000000003ffe8188        0x1 libpp/pm_for_bcn_only_mode.o
 *fill*         0x000000003ffe8189        0x3 
 .data          0x000000003ffe818c        0x1 libpp/pm.o
 *fill*         0x000000003ffe818d        0x3 
 .data          0x000000003ffe8190       0x1c libpp/pp.o
                0x000000003ffe8190                soft_wdt_interval
                0x000000003ffe8194                NoiseTimerInterval
                0x000000003ffe819c                sleep_start_wait_time
                0x000000003ffe81a4                CanDoFreqCal
                0x000000003ffe81a8                tcb
 *fill*         0x000000003ffe81ac        0x4 
 .data          0x000000003ffe81b0       0x40 libpp/rate_control.o
 .data          0x000000003ffe81f0      0x24c libpp/trc.o
 .data          0x000000003ffe843c        0x8 libpp/wdev.o
 *fill*         0x000000003ffe8444        0x4 
 .data          0x000000003ffe8448       0x10 libpwm/pwm.o
                0x000000003ffe844c                TestInputVal1
 .data          0x000000003ffe8458        0x6 libsmartconfig/sc_airkiss.o
                0x000000003ffe8458                AK_Group_bssid
 *fill*         0x000000003ffe845e        0x2 
 .data          0x000000003ffe8460        0x1 libsmartconfig/sc_esptouch.o
                0x000000003ffe8460                g_ET_TimeOut
 *fill*         0x000000003ffe8461        0x7 
 .data          0x000000003ffe8468        0xe libsmartconfig/sc_sniffer.o
                0x000000003ffe8468                g_SC_Select
                0x000000003ffe8470                ET_Group_bssid
 *fill*         0x000000003ffe8476        0x2 
 .data          0x000000003ffe8478       0x34 libssl/espconn_secure.o
                0x000000003ffe8478                ssl_option
 .data          0x000000003ffe84ac        0x0 libssl/espconn_ssl.o
 .data          0x000000003ffe84ac        0x0 libssl/sha256.o
 .data          0x000000003ffe84ac        0x0 libssl/sha384.o
 .data          0x000000003ffe84ac        0x0 libssl/sha512.o
 .data          0x000000003ffe84ac        0x0 libssl/ssl_aes.o
 .data          0x000000003ffe84ac        0x0 libssl/ssl_asn1.o
 .data          0x000000003ffe84ac        0x0 libssl/ssl_bigint.o
 .data          0x000000003ffe84ac        0x0 libssl/ssl_crypto_misc.o
 .data          0x000000003ffe84ac        0x0 libssl/ssl_gen_cert.o
 .data          0x000000003ffe84ac        0x0 libssl/ssl_hmac.o
 .data          0x000000003ffe84ac        0x0 libssl/ssl_loader.o
 .data          0x000000003ffe84ac        0x0 libssl/ssl_md5.o
 .data          0x000000003ffe84ac        0x0 libssl/ssl_openssl.o
 .data          0x000000003ffe84ac        0x0 libssl/ssl_os_port.o
 .data          0x000000003ffe84ac        0x0 libssl/ssl_p12.o
 .data          0x000000003ffe84ac        0x0 libssl/ssl_rc4.o
 .data          0x000000003ffe84ac        0x0 libssl/ssl_rsa.o
 .data          0x000000003ffe84ac        0x0 libssl/ssl_sha1.o
 .data          0x000000003ffe84ac        0x0 libssl/ssl_tls1_clnt.o
 .data          0x000000003ffe84ac        0x8 libssl/ssl_tls1.o
 .data          0x000000003ffe84b4        0x0 libssl/ssl_tls1_svr.o
 .data          0x000000003ffe84b4        0x0 libssl/ssl_x509.o
 .data          0x000000003ffe84b4        0x0 libwpa2/asn1.o
 .data          0x000000003ffe84b4        0x0 libwpa2/base64.o
 .data          0x000000003ffe84b4        0x0 libwpa2/bignum.o
 .data          0x000000003ffe84b4        0x0 libwpa2/chap.o
 .data          0x000000003ffe84b4        0x0 libwpa2/eap_common.o
 .data          0x000000003ffe84b4        0x0 libwpa2/eap_mschapv2.o
 .data          0x000000003ffe84b4        0x1 libwpa2/eap.o
 .data          0x000000003ffe84b5        0x0 libwpa2/eap_peap_common.o
 .data          0x000000003ffe84b5        0x0 libwpa2/eap_peap.o
 .data          0x000000003ffe84b5        0x0 libwpa2/eap_tls_common.o
 .data          0x000000003ffe84b5        0x0 libwpa2/eap_tls.o
 .data          0x000000003ffe84b5        0x0 libwpa2/eap_ttls.o
 .data          0x000000003ffe84b5        0x0 libwpa2/ext_password.o
 .data          0x000000003ffe84b5        0x0 libwpa2/mschapv2.o
 .data          0x000000003ffe84b5        0x0 libwpa2/pkcs1.o
 .data          0x000000003ffe84b5        0x0 libwpa2/pkcs5.o
 .data          0x000000003ffe84b5        0x0 libwpa2/pkcs8.o
 .data          0x000000003ffe84b5        0x0 libwpa2/rsa.o
 .data          0x000000003ffe84b5        0x0 libwpa2/tls_internal.o
 .data          0x000000003ffe84b5        0x0 libwpa2/tlsv1_client.o
 .data          0x000000003ffe84b5        0x0 libwpa2/tlsv1_client_read.o
 .data          0x000000003ffe84b5        0x0 libwpa2/tlsv1_client_write.o
 .data          0x000000003ffe84b5        0x0 libwpa2/tlsv1_common.o
 *fill*         0x000000003ffe84b5        0x3 
 .data          0x000000003ffe84b8       0x28 libwpa2/tlsv1_cred.o
 .data          0x000000003ffe84e0        0x0 libwpa2/tlsv1_record.o
 .data          0x000000003ffe84e0        0x0 libwpa2/tlsv1_server.o
 .data          0x000000003ffe84e0        0x0 libwpa2/tlsv1_server_read.o
 .data          0x000000003ffe84e0        0x0 libwpa2/tlsv1_server_write.o
 .data          0x000000003ffe84e0        0x0 libwpa2/x509v3.o
 .data          0x000000003ffe84e0        0x0 libwpa/ap_config.o
 .data          0x000000003ffe84e0        0x0 libwpa/common.o
 .data          0x000000003ffe84e0        0x0 libwpa/os_xtensa.o
 .data          0x000000003ffe84e0        0x0 libwpa/sta_info.o
 .data          0x000000003ffe84e0        0x0 libwpa/wpa_auth_ie.o
 .data          0x000000003ffe84e0        0x0 libwpa/wpa_auth.o
 .data          0x000000003ffe84e0        0x0 libwpa/wpabuf.o
 .data          0x000000003ffe84e0        0x0 libwpa/wpa_common.o
 .data          0x000000003ffe84e0        0x0 libwpa/wpa_debug.o
 .data          0x000000003ffe84e0        0x0 libwpa/wpa_ie.o
 .data          0x000000003ffe84e0        0x0 libwpa/wpa_main.o
 .data          0x000000003ffe84e0        0x0 libwpa/wpa.o
 .data          0x000000003ffe84e0        0x0 libwpa/wpas_glue.o
 .data          0x000000003ffe84e0        0x0 libwps/uuid.o
 .data          0x000000003ffe84e0        0x0 libwps/wps_attr_build.o
 .data          0x000000003ffe84e0        0x0 libwps/wps_attr_parse.o
 .data          0x000000003ffe84e0        0x0 libwps/wps_attr_process.o
 .data          0x000000003ffe84e0        0x0 libwps/wps_common.o
 .data          0x000000003ffe84e0        0x0 libwps/wps_dev_attr.o
 .data          0x000000003ffe84e0        0x0 libwps/wps_enrollee.o
 .data          0x000000003ffe84e0        0x0 libwps/wps.o
 .data          0x000000003ffe84e0        0x0 libwps/wps_registrar.o
 .data          0x000000003ffe84e0        0x0 libwps/wps_validate.o
 .data          0x000000003ffe84e0        0x0 ../empty_user.o
 .data          0x000000003ffe84e0        0x0 ../empty_libgcc.o
 .data          0x000000003ffe84e0        0x0 /mnt/hdd/projects-3rdparty/xtensa/esp-open-sdk/xtensa-lx106-elf/bin/../lib/gcc/xtensa-lx106-elf/4.8.5/../../../../xtensa-lx106-elf/lib/libc.a(lib_a-atoi.o)
 .data          0x000000003ffe84e0        0x0 /mnt/hdd/projects-3rdparty/xtensa/esp-open-sdk/xtensa-lx106-elf/bin/../lib/gcc/xtensa-lx106-elf/4.8.5/../../../../xtensa-lx106-elf/lib/libc.a(lib_a-memchr.o)
 .data          0x000000003ffe84e0        0x0 /mnt/hdd/projects-3rdparty/xtensa/esp-open-sdk/xtensa-lx106-elf/bin/../lib/gcc/xtensa-lx106-elf/4.8.5/../../../../xtensa-lx106-elf/lib/libc.a(lib_a-memcmp.o)
 .data          0x000000003ffe84e0        0x0 /mnt/hdd/projects-3rdparty/xtensa/esp-open-sdk/xtensa-lx106-elf/bin/../lib/gcc/xtensa-lx106-elf/4.8.5/../../../../xtensa-lx106-elf/lib/libc.a(lib_a-memcpy.o)
 .data          0x000000003ffe84e0        0x0 /mnt/hdd/projects-3rdparty/xtensa/esp-open-sdk/xtensa-lx106-elf/bin/../lib/gcc/xtensa-lx106-elf/4.8.5/../../../../xtensa-lx106-elf/lib/libc.a(lib_a-strcasecmp.o)
 .data          0x000000003ffe84e0        0x0 /mnt/hdd/projects-3rdparty/xtensa/esp-open-sdk/xtensa-lx106-elf/bin/../lib/gcc/xtensa-lx106-elf/4.8.5/../../../../xtensa-lx106-elf/lib/libc.a(lib_a-strtol.o)
 .data          0x000000003ffe84e0        0x0 /mnt/hdd/projects-3rdparty/xtensa/esp-open-sdk/xtensa-lx106-elf/bin/../lib/gcc/xtensa-lx106-elf/4.8.5/../../../../xtensa-lx106-elf/lib/libc.a(lib_a-sysgettod.o)
 .data          0x000000003ffe84e0        0x4 /mnt/hdd/projects-3rdparty/xtensa/esp-open-sdk/xtensa-lx106-elf/bin/../lib/gcc/xtensa-lx106-elf/4.8.5/../../../../xtensa-lx106-elf/lib/libc.a(lib_a-ctype_.o)
                0x000000003ffe84e0                __ctype_ptr__
 *fill*         0x000000003ffe84e4        0x4 
 .data          0x000000003ffe84e8      0x430 /mnt/hdd/projects-3rdparty/xtensa/esp-open-sdk/xtensa-lx106-elf/bin/../lib/gcc/xtensa-lx106-elf/4.8.5/../../../../xtensa-lx106-elf/lib/libc.a(lib_a-impure.o)
                0x000000003ffe84e8                _impure_ptr
 *(.data.*)
 *(.gnu.linkonce.d.*)
 *(.data1)
 *(.sdata)
 *(.sdata.*)
 *(.gnu.linkonce.s.*)
 *(.sdata2)
 *(.sdata2.*)
 *(.gnu.linkonce.s2.*)
 *(.jcr)
                0x000000003ffe8918                _data_end = ABSOLUTE (.)

.rodata         0x000000003ffe8920     0x2cdc
                0x000000003ffe8920                _rodata_start = ABSOLUTE (.)
 *(.sdk.version)
 .sdk.version   0x000000003ffe8920        0xf libmain/app_main.o
                0x000000003ffe8920                SDK_VERSION
 *(.rodata)
 *fill*         0x000000003ffe892f        0x1 
 .rodata        0x000000003ffe8930      0x118 libairkiss/airkiss.o
 .rodata        0x000000003ffe8a48        0x4 libairkiss/airlink.o
 *fill*         0x000000003ffe8a4c        0x4 
 .rodata        0x000000003ffe8a50      0x900 libcrypto/des-internal.o
 .rodata        0x000000003ffe9350       0xd0 libcrypto/dh_groups.o
 .rodata        0x000000003ffe9420      0x1a8 libcrypto/ms_funcs.o
 *fill*         0x000000003ffe95c8        0x8 
 .rodata        0x000000003ffe95d0      0x100 libcrypto/sha256-internal.o
 .rodata        0x000000003ffe96d0       0x1a libespnow/manatick.o
 *fill*         0x000000003ffe96ea        0x6 
 .rodata        0x000000003ffe96f0       0x74 liblwip/espconn_buf.o
 .rodata        0x000000003ffe9764        0x6 liblwip/etharp.o
                0x000000003ffe9764                ethbroadcast
 *fill*         0x000000003ffe976a        0x6 
 .rodata        0x000000003ffe9770       0xc0 liblwip/sntp.o
 .rodata        0x000000003ffe9830      0x222 libmesh/espconn_mesh.o
 *fill*         0x000000003ffe9a52        0x2 
 .rodata        0x000000003ffe9a54        0x8 libnet80211/ieee80211_hostap.o
 .rodata        0x000000003ffe9a5c        0x9 libnet80211/ieee80211_output.o
 *fill*         0x000000003ffe9a65        0x3 
 .rodata        0x000000003ffe9a68        0x8 libphy/phy_chip_v6_ana.o
 .rodata        0x000000003ffe9a70        0x8 libphy/phy_chip_v6.o
 .rodata        0x000000003ffe9a78        0x4 libpp/pp.o
 .rodata        0x000000003ffe9a7c        0x8 libsmartconfig/sc_airkiss.o
                0x000000003ffe9a7c                RSSI_MIN
                0x000000003ffe9a7d                RSSI_BEAR
                0x000000003ffe9a7e                DATA_RSSI_BEAR
                0x000000003ffe9a80                weixin_ip
 *fill*         0x000000003ffe9a84        0x4 
 .rodata        0x000000003ffe9a88        0x7 libsmartconfig/sc_sniffer.o
                0x000000003ffe9a88                SC_VERSION
 *fill*         0x000000003ffe9a8f        0x1 
 .rodata        0x000000003ffe9a90       0x40 libssl/sha256.o
 .rodata        0x000000003ffe9ad0      0x300 libssl/sha512.o
 .rodata        0x000000003ffe9dd0      0x220 libssl/ssl_aes.o
 .rodata        0x000000003ffe9ff0       0x80 libssl/ssl_asn1.o
 .rodata        0x000000003ffea070       0x90 libssl/ssl_crypto_misc.o
                0x000000003ffea070                unsupported_str
 .rodata        0x000000003ffea100       0x34 libssl/ssl_loader.o
 *fill*         0x000000003ffea134        0xc 
 .rodata        0x000000003ffea140       0x40 libssl/ssl_md5.o
 .rodata        0x000000003ffea180       0x10 libssl/ssl_sha1.o
 .rodata        0x000000003ffea190       0x74 libssl/ssl_tls1.o
                0x000000003ffea1e4                ssl_prot_prefs
 *fill*         0x000000003ffea204        0x4 
 .rodata        0x000000003ffea208       0x10 libssl/ssl_tls1_svr.o
 *fill*         0x000000003ffea218        0x8 
 .rodata        0x000000003ffea220       0x41 libwpa2/base64.o
 *fill*         0x000000003ffea261        0x3 
 .rodata        0x000000003ffea264        0x2 libwpa2/eap_peap.o
 *fill*         0x000000003ffea266        0xa 
 .rodata        0x000000003ffea270       0x18 libwpa2/tlsv1_client_read.o
 *fill*         0x000000003ffea288        0x8 
 .rodata        0x000000003ffea290      0x1f0 libwpa2/tlsv1_common.o
 .rodata        0x000000003ffea480       0x18 libwpa2/tlsv1_server_read.o
 *fill*         0x000000003ffea498        0x8 
 .rodata        0x000000003ffea4a0       0x10 libwps/wps_common.o
 .rodata        0x000000003ffea4b0        0x6 libwps/wps.o
 *fill*         0x000000003ffea4b6        0x2 
 .rodata        0x000000003ffea4b8        0xf libwps/wps_registrar.o
 .rodata        0x000000003ffea4c7      0x101 /mnt/hdd/projects-3rdparty/xtensa/esp-open-sdk/xtensa-lx106-elf/bin/../lib/gcc/xtensa-lx106-elf/4.8.5/../../../../xtensa-lx106-elf/lib/libc.a(lib_a-ctype_.o)
                0x000000003ffea4c7                _ctype_
 .rodata        0x000000003ffea5c8        0x4 /mnt/hdd/projects-3rdparty/xtensa/esp-open-sdk/xtensa-lx106-elf/bin/../lib/gcc/xtensa-lx106-elf/4.8.5/../../../../xtensa-lx106-elf/lib/libc.a(lib_a-impure.o)
                0x000000003ffea5c8                _global_impure_ptr
 *(.rodata.*)
 .rodata.str1.1
                0x000000003ffea5cc       0x52 libairkiss/airkiss.o
 .rodata.str1.1
                0x000000003ffea61e       0x5c libairkiss/airlink.o
                                         0x60 (size before relaxing)
 *fill*         0x000000003ffea67a        0x2 
 .rodata.str1.4
                0x000000003ffea67c        0x8 libespnow/manatick.o
 .rodata.str1.4
                0x000000003ffea684        0x1 liblwip/espconn_tcp.o
 *fill*         0x000000003ffea685        0x3 
 .rodata.str1.4
                0x000000003ffea688       0x88 liblwip/mdns.o
 .rodata.str1.4
                0x000000003ffea710       0x20 liblwip/sntp.o
 .rodata.str1.4
                0x000000003ffea730        0xc libmain/app_main.o
 .rodata.str1.4
                0x000000003ffea73c        0xc libmain/ets_timer.o
 .rodata.str1.4
                0x000000003ffea748       0x1a libmain/mem_manager.o
 *fill*         0x000000003ffea762        0x2 
 .rodata.str1.4
                0x000000003ffea764       0xf2 libmesh/espconn_mesh.o
 *fill*         0x000000003ffea856        0x2 
 .rodata.str1.4
                0x000000003ffea858        0x4 libnet80211/ieee80211_action_vendor.o
 .rodata.str1.4
                0x000000003ffea85c        0x8 libnet80211/ieee80211_hostap.o
 .rodata.str1.4
                0x000000003ffea864        0x4 libnet80211/ieee80211_ie_vendor.o
 .rodata.str1.4
                0x000000003ffea868        0x7 libnet80211/ieee80211_mesh_quick.o
 *fill*         0x000000003ffea86f        0x1 
 .rodata.str1.4
                0x000000003ffea870        0x4 libnet80211/ieee80211_sta.o
 .rodata.str1.4
                0x000000003ffea874        0xc libpp/lmac.o
 .rodata.str1.4
                0x000000003ffea880        0xc libpp/pm_for_bcn_only_mode.o
 .rodata.str1.4
                0x000000003ffea88c        0xb libpp/pm.o
 *fill*         0x000000003ffea897        0x1 
 .rodata.str1.4
                0x000000003ffea898       0x10 libpp/pp.o
 .rodata.str1.4
                0x000000003ffea8a8        0xc libpp/wdev.o
 .rodata.str1.4
                0x000000003ffea8b4        0xd libsmartconfig/sc_airkiss.o
 *fill*         0x000000003ffea8c1        0x3 
 .rodata.str1.4
                0x000000003ffea8c4        0xe libsmartconfig/sc_esptouch.o
 *fill*         0x000000003ffea8d2        0x2 
 .rodata.str1.4
                0x000000003ffea8d4        0xd libsmartconfig/sc_sniffer.o
 *fill*         0x000000003ffea8e1        0x3 
 .rodata.str1.4
                0x000000003ffea8e4       0x18 libssl/espconn_ssl.o
 .rodata.str1.4
                0x000000003ffea8fc       0x1e libssl/ssl_crypto_misc.o
 *fill*         0x000000003ffea91a        0x2 
 .rodata.str1.4
                0x000000003ffea91c      0x151 libssl/ssl_loader.o
 *fill*         0x000000003ffeaa6d        0x3 
 .rodata.str1.4
                0x000000003ffeaa70       0x20 libssl/ssl_rsa.o
 .rodata.str1.4
                0x000000003ffeaa90      0x13a libssl/ssl_tls1.o
 *fill*         0x000000003ffeabca        0x2 
 .rodata.str1.4
                0x000000003ffeabcc       0xf4 libssl/ssl_x509.o
 .rodata.str1.4
                0x000000003ffeacc0        0xe libwpa2/asn1.o
 *fill*         0x000000003ffeacce        0x2 
 .rodata.str1.4
                0x000000003ffeacd0       0x29 libwpa2/eap_mschapv2.o
 *fill*         0x000000003ffeacf9        0x3 
 .rodata.str1.4
                0x000000003ffeacfc       0x58 libwpa2/eap.o
 .rodata.str1.4
                0x000000003ffead54      0x135 libwpa2/eap_peap.o
 *fill*         0x000000003ffeae89        0x3 
 .rodata.str1.4
                0x000000003ffeae8c       0x97 libwpa2/eap_tls_common.o
 *fill*         0x000000003ffeaf23        0x1 
 .rodata.str1.4
                0x000000003ffeaf24       0x1c libwpa2/eap_tls.o
 .rodata.str1.4
                0x000000003ffeaf40       0x55 libwpa2/eap_ttls.o
 *fill*         0x000000003ffeaf95        0x3 
 .rodata.str1.4
                0x000000003ffeaf98       0xa7 libwpa2/tlsv1_client.o
 *fill*         0x000000003ffeb03f        0x1 
 .rodata.str1.4
                0x000000003ffeb040       0x10 libwpa2/tlsv1_client_read.o
 .rodata.str1.4
                0x000000003ffeb050       0x10 libwpa2/tlsv1_client_write.o
 .rodata.str1.4
                0x000000003ffeb060        0xe libwpa2/tlsv1_common.o
 *fill*         0x000000003ffeb06e        0x2 
 .rodata.str1.4
                0x000000003ffeb070      0x14f libwpa2/tlsv1_cred.o
 *fill*         0x000000003ffeb1bf        0x1 
 .rodata.str1.4
                0x000000003ffeb1c0       0x74 libwpa2/tlsv1_server.o
 .rodata.str1.4
                0x000000003ffeb234       0x10 libwpa2/tlsv1_server_read.o
 .rodata.str1.4
                0x000000003ffeb244       0x10 libwpa2/tlsv1_server_write.o
 .rodata.str1.4
                0x000000003ffeb254       0x41 libwpa2/x509v3.o
 *fill*         0x000000003ffeb295        0x3 
 .rodata.str1.4
                0x000000003ffeb298       0x10 libwpa/wpabuf.o
 .rodata.str1.4
                0x000000003ffeb2a8        0xd libwpa/wpa_debug.o
 *fill*         0x000000003ffeb2b5        0x3 
 .rodata.str1.4
                0x000000003ffeb2b8       0x45 libwps/uuid.o
 *fill*         0x000000003ffeb2fd        0x3 
 .rodata.str1.4
                0x000000003ffeb300       0xe1 libwps/wps_common.o
 *fill*         0x000000003ffeb3e1        0x3 
 .rodata.str1.4
                0x000000003ffeb3e4      0x176 libwps/wps.o
 *fill*         0x000000003ffeb55a        0x2 
 .rodata.str1.4
                0x000000003ffeb55c       0x95 libwps/wps_registrar.o
 .rodata.str1.1
                0x000000003ffeb5f1        0x2 /mnt/hdd/projects-3rdparty/xtensa/esp-open-sdk/xtensa-lx106-elf/bin/../lib/gcc/xtensa-lx106-elf/4.8.5/../../../../xtensa-lx106-elf/lib/libc.a(lib_a-impure.o)
 *(.gnu.linkonce.r.*)
 *(.rodata1)
                0x000000003ffeb5f3                __XT_EXCEPTION_TABLE__ = ABSOLUTE (.)
 *(.xt_except_table)
 *(.gcc_except_table)
 *(.gnu.linkonce.e.*)
 *(.gnu.version_r)
 *(.eh_frame)
 *crtbegin.o(.ctors)
 *(EXCLUDE_FILE(*crtend.o) .ctors)
 *(SORT(.ctors.*))
 *(.ctors)
 *crtbegin.o(.dtors)
 *(EXCLUDE_FILE(*crtend.o) .dtors)
 *(SORT(.dtors.*))
 *(.dtors)
                0x000000003ffeb5f3                __XT_EXCEPTION_DESCS__ = ABSOLUTE (.)
 *(.xt_except_desc)
 *(.gnu.linkonce.h.*)
                0x000000003ffeb5f3                __XT_EXCEPTION_DESCS_END__ = ABSOLUTE (.)
 *(.xt_except_desc_end)
 *(.dynamic)
 *(.gnu.version_d)
                0x000000003ffeb5f4                . = ALIGN (0x4)
 *fill*         0x000000003ffeb5f3        0x1 
                0x000000003ffeb5f4                _bss_table_start = ABSOLUTE (.)
                0x000000003ffeb5f4        0x4 LONG 0x3ffeb600 _bss_start
                0x000000003ffeb5f8        0x4 LONG 0x3fff28b8 _bss_end
                0x000000003ffeb5fc                _bss_table_end = ABSOLUTE (.)
                0x000000003ffeb5fc                _rodata_end = ABSOLUTE (.)

.bss            0x000000003ffeb600     0x72b8
                0x000000003ffeb600                . = ALIGN (0x8)
                0x000000003ffeb600                _bss_start = ABSOLUTE (.)
 *(.dynsbss)
 *(.sbss)
 *(.sbss.*)
 *(.gnu.linkonce.sb.*)
 *(.scommon)
 *(.sbss2)
 *(.sbss2.*)
 *(.gnu.linkonce.sb2.*)
 *(.dynbss)
 *(.bss)
 .bss           0x000000003ffeb600        0x0 libairkiss/airkiss.o
 .bss           0x000000003ffeb600        0x0 libairkiss/airlink.o
 .bss           0x000000003ffeb600        0x0 libcrypto/aes-cbc.o
 .bss           0x000000003ffeb600        0x0 libcrypto/aes-internal-dec.o
 .bss           0x000000003ffeb600        0x0 libcrypto/aes-internal-enc.o
 .bss           0x000000003ffeb600        0x0 libcrypto/aes-internal.o
 .bss           0x000000003ffeb600        0x0 libcrypto/aes-wrap.o
 .bss           0x000000003ffeb600        0x0 libcrypto/crypto_internal-cipher.o
 .bss           0x000000003ffeb600        0x0 libcrypto/crypto_internal-modexp.o
 .bss           0x000000003ffeb600        0x0 libcrypto/crypto_internal.o
 .bss           0x000000003ffeb600        0x0 libcrypto/crypto_internal-rsa.o
 .bss           0x000000003ffeb600        0x0 libcrypto/des-internal.o
 .bss           0x000000003ffeb600        0x0 libcrypto/dh_group5.o
 .bss           0x000000003ffeb600        0x0 libcrypto/dh_groups.o
 .bss           0x000000003ffeb600        0x0 libcrypto/md4-internal.o
 .bss           0x000000003ffeb600       0x28 libcrypto/ms_funcs.o
 .bss           0x000000003ffeb628        0x0 libcrypto/sha256-internal.o
 .bss           0x000000003ffeb628        0x0 libcrypto/sha256.o
 .bss           0x000000003ffeb628        0x0 libespnow/espnow.o
 .bss           0x000000003ffeb628       0x30 libespnow/manatick.o
 .bss           0x000000003ffeb658        0x4 libespnow/simple_pair.o
                0x000000003ffeb658                gl_sp
 .bss           0x000000003ffeb65c        0x0 liblwip/api_lib.o
 .bss           0x000000003ffeb65c        0x0 liblwip/api_msg.o
 .bss           0x000000003ffeb65c        0x0 liblwip/autoip.o
 .bss           0x000000003ffeb65c        0x0 liblwip/def.o
 *fill*         0x000000003ffeb65c        0x4 
 .bss           0x000000003ffeb660       0x38 liblwip/dhcp.o
                0x000000003ffeb660                dhcp_rx_options_given
                0x000000003ffeb670                dhcp_rx_options_val
 .bss           0x000000003ffeb698       0x24 liblwip/dhcpserver.o
 *fill*         0x000000003ffeb6bc        0x4 
 .bss           0x000000003ffeb6c0      0x480 liblwip/dns.o
 .bss           0x000000003ffebb40        0x0 liblwip/err.o
 .bss           0x000000003ffebb40        0x0 liblwip/espconn_buf.o
 .bss           0x000000003ffebb40        0x0 liblwip/espconn_mdns.o
 .bss           0x000000003ffebb40      0x104 liblwip/espconn.o
                0x000000003ffebb40                plink_active
                0x000000003ffebb44                pserver_list
                0x000000003ffebb50                premot
                0x000000003ffebc10                pktinfo
 *fill*         0x000000003ffebc44        0xc 
 .bss           0x000000003ffebc50       0x78 liblwip/espconn_tcp.o
                0x000000003ffebc50                espconn_TaskQueue
 .bss           0x000000003ffebcc8        0x0 liblwip/espconn_udp.o
 *fill*         0x000000003ffebcc8        0x8 
 .bss           0x000000003ffebcd0      0x100 liblwip/etharp.o
                0x000000003ffebcd4                ethzero
 .bss           0x000000003ffebdd0        0x0 liblwip/icmp.o
 .bss           0x000000003ffebdd0        0xc liblwip/igmp.o
 .bss           0x000000003ffebddc        0x0 liblwip/inet_chksum.o
 .bss           0x000000003ffebddc        0x0 liblwip/inet.o
 .bss           0x000000003ffebddc        0x0 liblwip/init.o
 *fill*         0x000000003ffebddc        0x4 
 .bss           0x000000003ffebde0       0x10 liblwip/ip_addr.o
 .bss           0x000000003ffebdf0        0x0 liblwip/ip_frag.o
 .bss           0x000000003ffebdf0       0x12 liblwip/ip.o
                0x000000003ffebdf0                current_iphdr_dest
                0x000000003ffebdf4                current_iphdr_src
                0x000000003ffebdf8                current_netif
                0x000000003ffebdfc                current_header
 *fill*         0x000000003ffebe02        0xe 
 .bss           0x000000003ffebe10      0x421 liblwip/mdns.o
                0x000000003ffebe14                PUCK_SERVICE
                0x000000003ffebe1c                PUCK_PORT
                0x000000003ffebe2c                mdns_timer
 .bss           0x000000003ffec231        0x0 liblwip/mem.o
 .bss           0x000000003ffec231        0x0 liblwip/memp.o
 .bss           0x000000003ffec231        0x0 liblwip/netbuf.o
 .bss           0x000000003ffec231        0x0 liblwip/netdb.o
 .bss           0x000000003ffec231        0x0 liblwip/netifapi.o
 *fill*         0x000000003ffec231        0x3 
 .bss           0x000000003ffec234        0x9 liblwip/netif.o
                0x000000003ffec234                netif_list
                0x000000003ffec238                netif_default
 .bss           0x000000003ffec23d        0x0 liblwip/netio.o
 .bss           0x000000003ffec23d        0x0 liblwip/pbuf.o
 *fill*         0x000000003ffec23d        0x3 
 .bss           0x000000003ffec240        0xa liblwip/ping.o
 *fill*         0x000000003ffec24a        0x2 
 .bss           0x000000003ffec24c        0x4 liblwip/raw.o
 .bss           0x000000003ffec250      0x128 liblwip/sntp.o
                0x000000003ffec250                res_buf
                0x000000003ffec274                __tzyear
                0x000000003ffec278                __tznorth
                0x000000003ffec2b0                sntp__tzrule
                0x000000003ffec2f0                reult
 .bss           0x000000003ffec378        0x0 liblwip/sockets.o
 .bss           0x000000003ffec378        0x0 liblwip/stats.o
 .bss           0x000000003ffec378        0x0 liblwip/sys_arch.o
 .bss           0x000000003ffec378        0x0 liblwip/sys.o
 .bss           0x000000003ffec378       0x34 liblwip/tcp_in.o
                0x000000003ffec3a8                tcp_input_pcb
 .bss           0x000000003ffec3ac        0x0 liblwip/tcpip.o
 .bss           0x000000003ffec3ac       0x1c liblwip/tcp.o
                0x000000003ffec3b0                tcp_active_pcbs
                0x000000003ffec3b4                tcp_tmp_pcb
                0x000000003ffec3b8                tcp_tw_pcbs
                0x000000003ffec3bc                tcp_bound_pcbs
                0x000000003ffec3c0                tcp_listen_pcbs
                0x000000003ffec3c4                tcp_ticks
 .bss           0x000000003ffec3c8        0x0 liblwip/tcp_out.o
 .bss           0x000000003ffec3c8        0xc liblwip/timers.o
 .bss           0x000000003ffec3d4        0x4 liblwip/udp.o
                0x000000003ffec3d4                udp_pcbs
 .bss           0x000000003ffec3d8       0x45 libmain/app_main.o
                0x000000003ffec3dc                info
                0x000000003ffec400                freq_trace_enable
                0x000000003ffec402                lwip_timer_interval
                0x000000003ffec404                check_timeouts_timer
                0x000000003ffec418                rf_cal_sec
                0x000000003ffec41c                user_init_flag
 .bss           0x000000003ffec41d        0x0 libmain/debug-vector.o
 .bss           0x000000003ffec41d        0x0 libmain/double-vector.o
 .bss           0x000000003ffec41d        0x0 libmain/eagle_lib.o
 *fill*         0x000000003ffec41d        0x3 
 .bss           0x000000003ffec420        0xc libmain/eagle_lwip_if.o
                0x000000003ffec420                hostname
 *fill*         0x000000003ffec42c        0x4 
 .bss           0x000000003ffec430       0x30 libmain/ets_timer.o
                0x000000003ffec430                dbg_timer_flag
                0x000000003ffec434                timer_list
                0x000000003ffec438                debug_timer
                0x000000003ffec43c                debug_timerfn
 .bss           0x000000003ffec460        0x0 libmain/kernel-vector.o
 .bss           0x000000003ffec460       0x3c libmain/mem_manager.o
 *fill*         0x000000003ffec49c        0x4 
 .bss           0x000000003ffec4a0      0x1c0 libmain/nmi-vector.o
 .bss           0x000000003ffec660        0x4 libmain/spi_flash.o
                0x000000003ffec660                flash_read
 .bss           0x000000003ffec664        0x0 libmain/spi_overlap.o
 .bss           0x000000003ffec664       0x1c libmain/time.o
 .bss           0x000000003ffec680      0x242 libmain/user_interface.o
                0x000000003ffec777                deep_sleep_flag
                0x000000003ffec778                cpu_overclock
                0x000000003ffec77c                event_cb
                0x000000003ffec780                status_led_output_level
                0x000000003ffec784                done_cb
                0x000000003ffec788                rst_if
                0x000000003ffec7a4                default_interface
                0x000000003ffec7a5                OpmodChgIsOnGoing
                0x000000003ffec7a8                promiscuous_cb
                0x000000003ffec7c0                event_TaskQueue
 .bss           0x000000003ffec8c2        0x0 libmain/user-vector.o
 .bss           0x000000003ffec8c2        0x0 libmain/vector.o
 *fill*         0x000000003ffec8c2        0xe 
 .bss           0x000000003ffec8d0      0x200 libmesh/espconn_base64.o
 .bss           0x000000003ffecad0      0x3d8 libmesh/espconn_mesh.o
 .bss           0x000000003ffecea8        0x0 libnet80211/ieee80211_action.o
 .bss           0x000000003ffecea8       0x18 libnet80211/ieee80211_action_vendor.o
 .bss           0x000000003ffecec0        0x0 libnet80211/ieee80211_crypto_ccmp.o
 .bss           0x000000003ffecec0        0x0 libnet80211/ieee80211_crypto.o
 .bss           0x000000003ffecec0        0x8 libnet80211/ieee80211_crypto_tkip.o
 .bss           0x000000003ffecec8        0x0 libnet80211/ieee80211_crypto_wep.o
 .bss           0x000000003ffecec8        0x0 libnet80211/ieee80211_ets.o
 .bss           0x000000003ffecec8       0x54 libnet80211/ieee80211_hostap.o
                0x000000003ffecec8                BcnEb_update
                0x000000003ffeced5                BcnWithMcastSendStart
                0x000000003ffeced6                BcnWithMcastSendCnt
                0x000000003ffecef0                PendFreeBcnEb
                0x000000003ffecef4                ApFreqCalTimer
                0x000000003ffecf08                APRecvBcnStartTick
 .bss           0x000000003ffecf1c        0x0 libnet80211/ieee80211_ht.o
 .bss           0x000000003ffecf1c        0x0 libnet80211/ieee80211_hwmp.o
 .bss           0x000000003ffecf1c        0x0 libnet80211/ieee80211_ie_vendor.o
 .bss           0x000000003ffecf1c        0x0 libnet80211/ieee80211_input.o
 .bss           0x000000003ffecf1c        0x0 libnet80211/ieee80211_mesh.o
 .bss           0x000000003ffecf1c        0x0 libnet80211/ieee80211_mesh_quick.o
 .bss           0x000000003ffecf1c        0x0 libnet80211/ieee80211_node.o
 .bss           0x000000003ffecf1c      0x6a8 libnet80211/ieee80211.o
                0x000000003ffecf1c                g_ic
 .bss           0x000000003ffed5c4        0x0 libnet80211/ieee80211_output.o
 .bss           0x000000003ffed5c4        0x0 libnet80211/ieee80211_phy.o
 .bss           0x000000003ffed5c4        0x0 libnet80211/ieee80211_power.o
 .bss           0x000000003ffed5c4        0x0 libnet80211/ieee80211_proto.o
 .bss           0x000000003ffed5c4        0x0 libnet80211/ieee80211_regdomain.o
 .bss           0x000000003ffed5c4        0x0 libnet80211/ieee80211_rfid.o
 .bss           0x000000003ffed5c4       0xc8 libnet80211/ieee80211_scan.o
                0x000000003ffed5c4                gScanStruct
                0x000000003ffed670                connect_scan_flag
                0x000000003ffed671                FreqCalCntForScan
                0x000000003ffed672                TestStaFreqCalValInput
                0x000000003ffed674                auth_type
                0x000000003ffed676                scannum
 *fill*         0x000000003ffed68c        0x4 
 .bss           0x000000003ffed690       0x28 libnet80211/ieee80211_sta.o
 .bss           0x000000003ffed6b8        0x0 libnet80211/if_eagle.o
 .bss           0x000000003ffed6b8       0x3c libnet80211/wl_chm.o
 *fill*         0x000000003ffed6f4        0x4 
 .bss           0x000000003ffed6f8      0x394 libnet80211/wl_cnx.o
                0x000000003ffeda58                sta_con_timer
                0x000000003ffeda6c                backup_ni_connect_status
                0x000000003ffeda70                g_cnx_probe_rc_list_cb
                0x000000003ffeda74                reconnect_flag
                0x000000003ffeda75                no_ap_found_index
 .bss           0x000000003ffeda8c        0x0 libphy/ate_test.o
 .bss           0x000000003ffeda8c        0x2 libphy/phy_chip_v6_ana.o
                0x000000003ffeda8c                tout_dis_txpwr_track
                0x000000003ffeda8d                sleep_mode_flag
 *fill*         0x000000003ffeda8e        0x2 
 .bss           0x000000003ffeda90        0x9 libphy/phy_chip_v6_cal.o
                0x000000003ffeda90                phy_tx_power_out
                0x000000003ffeda92                phy_tx_pwr_error
                0x000000003ffeda94                tx_pwctrl_track_num
                0x000000003ffeda95                rxiq_cover_fail_num
                0x000000003ffeda96                phy_meas_freq_offset
                0x000000003ffeda98                tx_pwctrl_pk_num
 *fill*         0x000000003ffeda99        0x7 
 .bss           0x000000003ffedaa0      0x153 libphy/phy_chip_v6.o
                0x000000003ffedaa0                g_phyFuns
                0x000000003ffedaa4                rxiq_compute_num
                0x000000003ffedaa8                rx_table_renew_en
                0x000000003ffedaac                check_result
                0x000000003ffedab0                chip6_sleep_params
                0x000000003ffedb44                chip6_phy_init_ctrl
                0x000000003ffedbb8                phy_freq_offset
                0x000000003ffedbba                do_pwctrl_flag
                0x000000003ffedbbb                txbk_dpdby_flag
                0x000000003ffedbbd                sw_scan_mode
                0x000000003ffedbbe                rxmax_ext_level
                0x000000003ffedbc0                phy_rx_gain_dc_table
                0x000000003ffedbd4                periodic_cal_flag
                0x000000003ffedbd5                bbpll_cal_flag
                0x000000003ffedbd6                phy_in_most_power
                0x000000003ffedbd7                init_rf_no_cal
                0x000000003ffedbd8                test_print_time
                0x000000003ffedbdc                phy_in_vdd33_offset
                0x000000003ffedbdd                phy_set_most_tpw_disbg
                0x000000003ffedbde                phy_set_most_tpw_index
                0x000000003ffedbe0                adc_rand_noise
                0x000000003ffedbe4                phy_rx_gain_dc_flag
                0x000000003ffedbe5                dpd_bypass_original
                0x000000003ffedbe6                phy_txpwr_diff_flash
                0x000000003ffedbe8                noise_array
 .bss           0x000000003ffedbf3        0x0 libphy/phy_chip_v6_unused.o
 *fill*         0x000000003ffedbf3        0x1 
 .bss           0x000000003ffedbf4        0x4 libphy/phy.o
 .bss           0x000000003ffedbf8        0x7 libphy/phy_sleep.o
                0x000000003ffedbf8                periodic_cal_sat
                0x000000003ffedbfa                lslp_mem_opt_8266
                0x000000003ffedbfc                software_slp_reject
                0x000000003ffedbfd                SDIO_slp_reject
                0x000000003ffedbfe                hardware_reject
 *fill*         0x000000003ffedbff        0x1 
 .bss           0x000000003ffedc00      0xaa4 libpp/esf_buf.o
 *fill*         0x000000003ffee6a4        0xc 
 .bss           0x000000003ffee6b0       0x40 libpp/if_hwctrl.o
                0x000000003ffee6b0                interface_mask
                0x000000003ffee6d0                if_ctrl
 .bss           0x000000003ffee6f0      0x150 libpp/lmac.o
                0x000000003ffee6f4                lmacConfMib
                0x000000003ffee718                our_tx_eb
 .bss           0x000000003ffee840        0x0 libpp/mac_frame.o
 .bss           0x000000003ffee840       0x38 libpp/pm_for_bcn_only_mode.o
 *fill*         0x000000003ffee878        0x8 
 .bss           0x000000003ffee880      0x12a libpp/pm.o
                0x000000003ffee880                pmc
 *fill*         0x000000003ffee9aa        0x6 
 .bss           0x000000003ffee9b0      0x322 libpp/pp.o
                0x000000003ffee9c8                pend_flag_noise_check
                0x000000003ffee9d0                pend_flag_periodic_cal
                0x000000003ffee9e8                idle_timer_reopen_flag
                0x000000003ffee9ea                dbg_stop_sw_wdt
                0x000000003ffee9eb                dbg_stop_hw_wdt
                0x000000003ffee9ed                total_buffed_eb_num
                0x000000003ffee9f0                HighestFreqOffsetInOneChk
                0x000000003ffee9f2                LowestFreqOffsetInOneChk
                0x000000003ffee9f4                DefFreqCalTimer
                0x000000003ffeea08                PktNumInOneChk
                0x000000003ffeeb90                buffed_eb_arr
 *fill*         0x000000003ffeecd2        0xe 
 .bss           0x000000003ffeece0      0x100 libpp/rate_control.o
 .bss           0x000000003ffeede0      0x46c libpp/trc.o
 *fill*         0x000000003ffef24c        0x4 
 .bss           0x000000003ffef250     0x2f88 libpp/wdev.o
                0x000000003ffef250                wDevCtrl
                0x000000003ffef3f8                WdevTimOffSet
 *fill*         0x000000003fff21d8        0x8 
 .bss           0x000000003fff21e0      0x1b0 libpwm/pwm.o
                0x000000003fff21e0                pwm
 .bss           0x000000003fff2390       0xb8 libsmartconfig/sc_airkiss.o
                0x000000003fff2390                pAKGuideGlob
                0x000000003fff2394                pAkTrans
                0x000000003fff2398                pAkDiret
                0x000000003fff239c                KissRes_ht20_timer
                0x000000003fff2418                pKissConn
                0x000000003fff2434                weixin_timer
 .bss           0x000000003fff2448       0xd4 libsmartconfig/sc_esptouch.o
                0x000000003fff2448                pETGuideGlob
                0x000000003fff244c                pCHListHead
                0x000000003fff2450                pCHListTral
                0x000000003fff2454                pTouchGlob
                0x000000003fff2458                TouchRestart_ht20_timer
                0x000000003fff24d4                TouchRestart_ht40_timer
                0x000000003fff24e8                pTouchConn
                0x000000003fff2504                TouchUdpTimer
 .bss           0x000000003fff251c       0x30 libsmartconfig/sc_sniffer.o
                0x000000003fff251c                pAPListHead
                0x000000003fff2520                pAPListTral
                0x000000003fff2524                smartconfig_cb
                0x000000003fff2528                SnifGlob
                0x000000003fff2538                channel_timer
 .bss           0x000000003fff254c       0x10 libssl/espconn_secure.o
                0x000000003fff254c                def_certificate
                0x000000003fff2550                def_certificate_len
                0x000000003fff2554                def_private_key
                0x000000003fff2558                def_private_key_len
 *fill*         0x000000003fff255c        0x4 
 .bss           0x000000003fff2560       0x88 libssl/espconn_ssl.o
                0x000000003fff2560                pfile_param
                0x000000003fff2568                plink_server
 .bss           0x000000003fff25e8        0x0 libssl/sha256.o
 .bss           0x000000003fff25e8        0x0 libssl/sha384.o
 .bss           0x000000003fff25e8        0x0 libssl/sha512.o
 .bss           0x000000003fff25e8        0x0 libssl/ssl_aes.o
 .bss           0x000000003fff25e8        0x0 libssl/ssl_asn1.o
 .bss           0x000000003fff25e8        0x0 libssl/ssl_bigint.o
 .bss           0x000000003fff25e8        0x8 libssl/ssl_crypto_misc.o
                0x000000003fff25e8                hex_finish
                0x000000003fff25ec                hex_index
 .bss           0x000000003fff25f0        0x0 libssl/ssl_gen_cert.o
 .bss           0x000000003fff25f0        0x0 libssl/ssl_hmac.o
 .bss           0x000000003fff25f0        0x0 libssl/ssl_loader.o
 .bss           0x000000003fff25f0        0x0 libssl/ssl_md5.o
 .bss           0x000000003fff25f0        0x0 libssl/ssl_openssl.o
 .bss           0x000000003fff25f0        0x0 libssl/ssl_os_port.o
 .bss           0x000000003fff25f0        0x0 libssl/ssl_p12.o
 .bss           0x000000003fff25f0        0x0 libssl/ssl_rc4.o
 .bss           0x000000003fff25f0        0x0 libssl/ssl_rsa.o
 .bss           0x000000003fff25f0        0x0 libssl/ssl_sha1.o
 .bss           0x000000003fff25f0        0x0 libssl/ssl_tls1_clnt.o
 .bss           0x000000003fff25f0        0x4 libssl/ssl_tls1.o
 .bss           0x000000003fff25f4        0x0 libssl/ssl_tls1_svr.o
 .bss           0x000000003fff25f4        0x0 libssl/ssl_x509.o
 .bss           0x000000003fff25f4        0x0 libwpa2/asn1.o
 .bss           0x000000003fff25f4        0x0 libwpa2/base64.o
 .bss           0x000000003fff25f4        0x0 libwpa2/bignum.o
 .bss           0x000000003fff25f4        0x0 libwpa2/chap.o
 .bss           0x000000003fff25f4        0x0 libwpa2/eap_common.o
 .bss           0x000000003fff25f4        0x0 libwpa2/eap_mschapv2.o
 .bss           0x000000003fff25f4       0x44 libwpa2/eap.o
 .bss           0x000000003fff2638        0x0 libwpa2/eap_peap_common.o
 .bss           0x000000003fff2638        0x0 libwpa2/eap_peap.o
 .bss           0x000000003fff2638        0x0 libwpa2/eap_tls_common.o
 .bss           0x000000003fff2638        0x0 libwpa2/eap_tls.o
 .bss           0x000000003fff2638        0x0 libwpa2/eap_ttls.o
 .bss           0x000000003fff2638        0x4 libwpa2/ext_password.o
 .bss           0x000000003fff263c        0x0 libwpa2/mschapv2.o
 .bss           0x000000003fff263c        0x0 libwpa2/pkcs1.o
 .bss           0x000000003fff263c        0x0 libwpa2/pkcs5.o
 .bss           0x000000003fff263c        0x0 libwpa2/pkcs8.o
 .bss           0x000000003fff263c        0x0 libwpa2/rsa.o
 .bss           0x000000003fff263c        0x4 libwpa2/tls_internal.o
 .bss           0x000000003fff2640        0x0 libwpa2/tlsv1_client.o
 .bss           0x000000003fff2640        0x0 libwpa2/tlsv1_client_read.o
 .bss           0x000000003fff2640        0x0 libwpa2/tlsv1_client_write.o
 .bss           0x000000003fff2640        0x0 libwpa2/tlsv1_common.o
 .bss           0x000000003fff2640        0x0 libwpa2/tlsv1_cred.o
 .bss           0x000000003fff2640        0x0 libwpa2/tlsv1_record.o
 .bss           0x000000003fff2640        0x0 libwpa2/tlsv1_server.o
 .bss           0x000000003fff2640        0x0 libwpa2/tlsv1_server_read.o
 .bss           0x000000003fff2640        0x0 libwpa2/tlsv1_server_write.o
 .bss           0x000000003fff2640        0x0 libwpa2/x509v3.o
 .bss           0x000000003fff2640        0x0 libwpa/ap_config.o
 .bss           0x000000003fff2640        0x0 libwpa/common.o
 .bss           0x000000003fff2640        0x0 libwpa/os_xtensa.o
 .bss           0x000000003fff2640        0x0 libwpa/sta_info.o
 .bss           0x000000003fff2640        0x0 libwpa/wpa_auth_ie.o
 .bss           0x000000003fff2640        0x0 libwpa/wpa_auth.o
 .bss           0x000000003fff2640        0x0 libwpa/wpabuf.o
 .bss           0x000000003fff2640        0x0 libwpa/wpa_common.o
 .bss           0x000000003fff2640        0x0 libwpa/wpa_debug.o
 .bss           0x000000003fff2640        0x0 libwpa/wpa_ie.o
 .bss           0x000000003fff2640        0x0 libwpa/wpa_main.o
 .bss           0x000000003fff2640      0x26a libwpa/wpa.o
 .bss           0x000000003fff28aa        0x0 libwpa/wpas_glue.o
 .bss           0x000000003fff28aa        0x0 libwps/uuid.o
 .bss           0x000000003fff28aa        0x0 libwps/wps_attr_build.o
 .bss           0x000000003fff28aa        0x0 libwps/wps_attr_parse.o
 .bss           0x000000003fff28aa        0x0 libwps/wps_attr_process.o
 .bss           0x000000003fff28aa        0x0 libwps/wps_common.o
 .bss           0x000000003fff28aa        0x0 libwps/wps_dev_attr.o
 .bss           0x000000003fff28aa        0x0 libwps/wps_enrollee.o
 *fill*         0x000000003fff28aa        0x2 
 .bss           0x000000003fff28ac        0x4 libwps/wps.o
 .bss           0x000000003fff28b0        0x0 libwps/wps_registrar.o
 .bss           0x000000003fff28b0        0x0 libwps/wps_validate.o
 .bss           0x000000003fff28b0        0x8 ../empty_user.o
                0x000000003fff28b0                default_certificate_len
                0x000000003fff28b4                default_private_key_len
 .bss           0x000000003fff28b8        0x0 ../empty_libgcc.o
 .bss           0x000000003fff28b8        0x0 /mnt/hdd/projects-3rdparty/xtensa/esp-open-sdk/xtensa-lx106-elf/bin/../lib/gcc/xtensa-lx106-elf/4.8.5/../../../../xtensa-lx106-elf/lib/libc.a(lib_a-atoi.o)
 .bss           0x000000003fff28b8        0x0 /mnt/hdd/projects-3rdparty/xtensa/esp-open-sdk/xtensa-lx106-elf/bin/../lib/gcc/xtensa-lx106-elf/4.8.5/../../../../xtensa-lx106-elf/lib/libc.a(lib_a-memchr.o)
 .bss           0x000000003fff28b8        0x0 /mnt/hdd/projects-3rdparty/xtensa/esp-open-sdk/xtensa-lx106-elf/bin/../lib/gcc/xtensa-lx106-elf/4.8.5/../../../../xtensa-lx106-elf/lib/libc.a(lib_a-memcmp.o)
 .bss           0x000000003fff28b8        0x0 /mnt/hdd/projects-3rdparty/xtensa/esp-open-sdk/xtensa-lx106-elf/bin/../lib/gcc/xtensa-lx106-elf/4.8.5/../../../../xtensa-lx106-elf/lib/libc.a(lib_a-memcpy.o)
 .bss           0x000000003fff28b8        0x0 /mnt/hdd/projects-3rdparty/xtensa/esp-open-sdk/xtensa-lx106-elf/bin/../lib/gcc/xtensa-lx106-elf/4.8.5/../../../../xtensa-lx106-elf/lib/libc.a(lib_a-strcasecmp.o)
 .bss           0x000000003fff28b8        0x0 /mnt/hdd/projects-3rdparty/xtensa/esp-open-sdk/xtensa-lx106-elf/bin/../lib/gcc/xtensa-lx106-elf/4.8.5/../../../../xtensa-lx106-elf/lib/libc.a(lib_a-strtol.o)
 .bss           0x000000003fff28b8        0x0 /mnt/hdd/projects-3rdparty/xtensa/esp-open-sdk/xtensa-lx106-elf/bin/../lib/gcc/xtensa-lx106-elf/4.8.5/../../../../xtensa-lx106-elf/lib/libc.a(lib_a-sysgettod.o)
 .bss           0x000000003fff28b8        0x0 /mnt/hdd/projects-3rdparty/xtensa/esp-open-sdk/xtensa-lx106-elf/bin/../lib/gcc/xtensa-lx106-elf/4.8.5/../../../../xtensa-lx106-elf/lib/libc.a(lib_a-ctype_.o)
 .bss           0x000000003fff28b8        0x0 /mnt/hdd/projects-3rdparty/xtensa/esp-open-sdk/xtensa-lx106-elf/bin/../lib/gcc/xtensa-lx106-elf/4.8.5/../../../../xtensa-lx106-elf/lib/libc.a(lib_a-impure.o)
 *(.bss.*)
 *(.gnu.linkonce.b.*)
 *(COMMON)
 COMMON         0x000000003fff28b8        0x0 ../empty_user.o
                0x000000003fff28b8                default_private_key
                0x000000003fff28b8                default_certificate
                0x000000003fff28b8                . = ALIGN (0x8)
                0x000000003fff28b8                _bss_end = ABSOLUTE (.)
                0x000000003fff28b8                _heap_start = ABSOLUTE (.)

.irom0.text     0x0000000040240000    0x67e80
                0x0000000040240000                _irom0_text_start = ABSOLUTE (.)
 *libmbedtls.a:(.literal .text .literal.* .text.*)
 *(.irom0.literal .irom.literal .irom.text.literal .irom0.text .irom.text)
 .irom0.literal
                0x0000000040240000        0xc libairkiss/airkiss.o
 .irom0.literal
                0x000000004024000c       0x30 libairkiss/airlink.o
                                         0x38 (size before relaxing)
 .irom0.text    0x000000004024003c      0x64b libairkiss/airkiss.o
                0x000000004024005c                airkiss_version
                0x0000000040240064                airkiss_init
                0x00000000402400b8                airkiss_recv
                0x00000000402405d4                airkiss_get_result
                0x0000000040240648                airkiss_change_channel
 *fill*         0x0000000040240687        0x1 
 .irom0.text    0x0000000040240688      0x279 libairkiss/airlink.o
                0x000000004024069c                airkiss_lan_recv
                0x000000004024076c                airkiss_lan_pack
 *fill*         0x0000000040240901        0x3 
 .irom0.text    0x0000000040240904      0x130 libcrypto/aes-cbc.o
                                        0x160 (size before relaxing)
                0x0000000040240908                aes_128_cbc_encrypt
                0x0000000040240998                aes_128_cbc_decrypt
 .irom0.text    0x0000000040240a34      0x58f libcrypto/aes-internal-dec.o
                                        0x5a3 (size before relaxing)
                0x0000000040240b20                aes_decrypt_init
                0x0000000040240f7c                aes_decrypt
                0x0000000040240f98                aes_decrypt_deinit
 *fill*         0x0000000040240fc3        0x1 
 .irom0.text    0x0000000040240fc4      0x4b7 libcrypto/aes-internal-enc.o
                                        0x4df (size before relaxing)
                0x0000000040240fc8                rijndaelEncrypt
                0x00000000402413e4                aes_encrypt_init
                0x0000000040241438                aes_encrypt
                0x0000000040241450                aes_encrypt_deinit
 *fill*         0x000000004024147b        0x1 
 .irom0.text    0x000000004024147c      0x304 libcrypto/aes-internal.o
                                        0x31c (size before relaxing)
                0x0000000040241480                rijndaelKeySetupEnc
 .irom0.text    0x0000000040241780       0xdf libcrypto/aes-wrap.o
                                        0x103 (size before relaxing)
                0x0000000040241780                aes_wrap
 *fill*         0x000000004024185f        0x1 
 .irom0.text    0x0000000040241860      0x277 libcrypto/crypto_internal-cipher.o
                                        0x2e3 (size before relaxing)
                0x0000000040241868                crypto_cipher_init
                0x0000000040241930                crypto_cipher_encrypt
                0x00000000402419e8                crypto_cipher_decrypt
                0x0000000040241aa8                crypto_cipher_deinit
 *fill*         0x0000000040241ad7        0x1 
 .irom0.text    0x0000000040241ad8       0xa5 libcrypto/crypto_internal-modexp.o
                                         0xfd (size before relaxing)
                0x0000000040241ad8                crypto_mod_exp
 *fill*         0x0000000040241b7d        0x3 
 .irom0.text    0x0000000040241b80      0x52a libcrypto/crypto_internal.o
                                        0x632 (size before relaxing)
                0x0000000040241b9c                crypto_hash_init
                0x0000000040241dc8                crypto_hash_update
                0x0000000040241e08                crypto_hash_finish
                0x00000000402420a4                crypto_global_init
                0x00000000402420a8                crypto_global_deinit
 *fill*         0x00000000402420aa        0x2 
 .irom0.text    0x00000000402420ac       0xe6 libcrypto/crypto_internal-rsa.o
                                        0x116 (size before relaxing)
                0x00000000402420ac                crypto_public_key_import
                0x00000000402420c0                crypto_private_key_import
                0x00000000402420f8                crypto_public_key_from_cert
                0x00000000402420fc                crypto_public_key_encrypt_pkcs1_v15
                0x0000000040242120                crypto_private_key_decrypt_pkcs1_v15
                0x0000000040242134                crypto_private_key_sign_pkcs1
                0x0000000040242158                crypto_public_key_free
                0x000000004024216c                crypto_private_key_free
                0x0000000040242180                crypto_public_key_decrypt_pkcs1
 *fill*         0x0000000040242192        0x2 
 .irom0.text    0x0000000040242194      0x53a libcrypto/des-internal.o
                                        0x55e (size before relaxing)
                0x00000000402425c8                des_encrypt
 *fill*         0x00000000402426ce        0x2 
 .irom0.text    0x00000000402426d0       0x4e libcrypto/dh_group5.o
                                         0x66 (size before relaxing)
                0x00000000402426d0                dh5_init
                0x00000000402426fc                dh5_derive_shared
                0x000000004024271c                dh5_free
 *fill*         0x000000004024271e        0x2 
 .irom0.text    0x0000000040242720      0x156 libcrypto/dh_groups.o
                                        0x1b2 (size before relaxing)
                0x0000000040242724                dh_groups_get
                0x000000004024273c                dh_init
                0x00000000402427f4                dh_derive_shared
 *fill*         0x0000000040242876        0x2 
 .irom0.text    0x0000000040242878      0x682 libcrypto/md4-internal.o
                                        0x692 (size before relaxing)
                0x0000000040242878                md4_vector
 *fill*         0x0000000040242efa        0x2 
 .irom0.text    0x0000000040242efc      0x56a libcrypto/ms_funcs.o
                                        0x5be (size before relaxing)
                0x0000000040243004                nt_password_hash
                0x000000004024304c                hash_nt_password_hash
                0x0000000040243070                challenge_response
                0x00000000402430c0                generate_nt_response
                0x00000000402430fc                generate_nt_response_pwhash
                0x0000000040243130                generate_authenticator_response_pwhash
                0x00000000402431cc                generate_authenticator_response
                0x0000000040243204                nt_challenge_response
                0x0000000040243234                get_master_key
                0x0000000040243298                get_asymetric_start_key
                0x0000000040243338                encrypt_pw_block_with_password_hash
                0x00000000402433cc                new_password_encrypted_with_old_nt_password_hash
                0x0000000040243400                nt_password_hash_encrypted_with_block
                0x000000004024342c                old_nt_password_hash_encrypted_with_new_nt_password_hash
 *fill*         0x0000000040243466        0x2 
 .irom0.text    0x0000000040243468      0x3c7 libcrypto/sha256-internal.o
                                        0x3cb (size before relaxing)
                0x0000000040243468                sha256_vector
                0x0000000040243660                sha256_init
                0x0000000040243694                sha256_process
                0x0000000040243744                sha256_done
 *fill*         0x000000004024382f        0x1 
 .irom0.text    0x0000000040243830      0x212 libcrypto/sha256.o
                                        0x232 (size before relaxing)
                0x0000000040243830                hmac_sha256_vector
                0x000000004024395c                hmac_sha256
                0x0000000040243980                sha256_prf
 *fill*         0x0000000040243a42        0x2 
 .irom0.text    0x0000000040243a44      0x300 libespnow/espnow.o
                                        0x403 (size before relaxing)
                0x0000000040243a4c                esp_now_init
                0x0000000040243a80                esp_now_deinit
                0x0000000040243aac                esp_now_register_recv_cb
                0x0000000040243ac8                esp_now_unregister_recv_cb
                0x0000000040243aec                esp_now_register_send_cb
                0x0000000040243b08                esp_now_unregister_send_cb
                0x0000000040243b2c                esp_now_send
                0x0000000040243b80                esp_now_add_peer
                0x0000000040243bac                esp_now_del_peer
                0x0000000040243bd0                esp_now_set_self_role
                0x0000000040243bec                esp_now_get_self_role
                0x0000000040243c08                esp_now_get_peer_role
                0x0000000040243c24                esp_now_set_peer_role
                0x0000000040243c40                esp_now_set_peer_channel
                0x0000000040243c5c                esp_now_get_peer_channel
                0x0000000040243c78                esp_now_set_peer_key
                0x0000000040243c94                esp_now_get_peer_key
                0x0000000040243cb0                esp_now_is_peer_exist
                0x0000000040243cd4                esp_now_fetch_peer
                0x0000000040243cf0                esp_now_get_cnt_info
                0x0000000040243d0c                esp_now_set_kok
                0x0000000040243d28                esp_now_encrypt_key
 *fill*         0x0000000040243d44        0x0 
 .irom0.text    0x0000000040243d44      0xa58 libespnow/manatick.o
                                        0xca0 (size before relaxing)
                0x0000000040243d4c                mt_crypto_key_of_key
                0x0000000040243dac                mt_decrypto_key_of_key
                0x0000000040243e20                mt_send_self_protocol
                0x0000000040243f10                mt_is_peer_exist
                0x0000000040243f4c                mt_set_self_role
                0x0000000040243f60                mt_get_self_role
                0x0000000040243f68                mt_set_peer_role
                0x0000000040243fb4                mt_get_peer_role
                0x0000000040243ff4                mt_set_peer_channel
                0x000000004024403c                mt_get_peer_channel
                0x0000000040244084                mt_set_peer_key
                0x00000000402441e4                mt_get_peer_key
                0x0000000040244260                mt_add_peer
                0x0000000040244440                mt_del_peer
                0x0000000040244508                mt_fetch_peer
                0x0000000040244524                mt_register_recv_self_protocol_cb
                0x0000000040244538                mt_unregister_recv_self_protocol_cb
                0x0000000040244544                mt_recv_action_cb
                0x0000000040244564                mt_register_send_cb
                0x0000000040244578                mt_unregister_send_cb
                0x0000000040244584                mt_send_cb
                0x00000000402445f0                mt_set_kok
                0x000000004024462c                mt_get_cnt_info
                0x0000000040244658                mt_init
                0x00000000402446b8                mt_deinit
 .irom0.text    0x000000004024479c      0xd69 libespnow/simple_pair.o
                                        0xfc5 (size before relaxing)
                0x0000000040244cb0                simple_pair_get_peer_mac
                0x0000000040244cbc                simple_pair_get_state
                0x0000000040244d18                simple_pair_enter_state
                0x000000004024518c                simple_pair_init
                0x00000000402452b0                simple_pair_deinit
                0x000000004024531c                simple_pair_state_reset
                0x0000000040245330                simple_pair_ap_enter_announce_mode
                0x0000000040245348                simple_pair_sta_enter_scan_mode
                0x0000000040245360                simple_pair_sta_start_negotiate
                0x00000000402453a0                simple_pair_ap_start_negotiate
                0x00000000402453e0                simple_pair_ap_refuse_negotiate
                0x0000000040245414                simple_pair_set_peer_ref
                0x0000000040245480                simple_pair_get_peer_ref
                0x00000000402454dc                register_simple_pair_status_cb
                0x00000000402454f0                unregister_simple_pair_status_cb
                0x0000000040245500                simple_pair_get_version
 *fill*         0x0000000040245505        0x3 
 .irom0.text    0x0000000040245508     0x1482 liblwip/dhcp.o
                                       0x1666 (size before relaxing)
                0x000000004024578c                dhcp_coarse_tmr
                0x00000000402457dc                dhcp_fine_tmr
                0x0000000040245a34                dhcp_set_struct
                0x0000000040245a5c                dhcp_cleanup
                0x0000000040245a88                dhcp_start
                0x0000000040245b40                dhcp_inform
                0x0000000040245bec                dhcp_network_changed
                0x0000000040245c34                dhcp_arp_reply
                0x0000000040245f3c                dhcp_renew
                0x0000000040246268                dhcp_release
                0x0000000040246328                dhcp_stop
 *fill*         0x000000004024698a        0x2 
 .irom0.text    0x000000004024698c      0xe0a liblwip/dhcpserver.o
                                       0x104a (size before relaxing)
                0x000000004024698c                node_insert_to_list
                0x00000000402469c4                node_remove_from_list
                0x00000000402470d4                dhcps_start
                0x000000004024713c                dhcps_stop
                0x00000000402471c0                wifi_softap_set_dhcps_lease
                0x00000000402472ac                wifi_softap_get_dhcps_lease
                0x000000004024734c                dhcps_coarse_tmr
                0x00000000402473c0                wifi_softap_set_dhcps_offer_option
                0x0000000040247404                wifi_softap_set_dhcps_lease_time
                0x0000000040247434                wifi_softap_reset_dhcps_lease_time
                0x0000000040247460                wifi_softap_get_dhcps_lease_time
                0x0000000040247468                wifi_softap_dhcps_client_leave
                0x0000000040247510                wifi_softap_dhcps_client_update
 *fill*         0x0000000040247796        0x2 
 .irom0.text    0x0000000040247798      0x5cf liblwip/dns.o
                                        0x68b (size before relaxing)
                0x00000000402477a4                dns_init
                0x00000000402477e4                dns_setserver
                0x0000000040247804                dns_getserver
                0x0000000040247818                dns_tmr
                0x0000000040247d10                dns_gethostbyname
 *fill*         0x0000000040247d67        0x1 
 .irom0.text    0x0000000040247d68       0xc6 liblwip/espconn_mdns.o
                                         0xee (size before relaxing)
                0x0000000040247d68                espconn_mdns_enable
                0x0000000040247d7c                espconn_mdns_disable
                0x0000000040247d90                espconn_mdns_set_hostname
                0x0000000040247da4                espconn_mdns_get_hostname
                0x0000000040247db8                espconn_mdns_set_servername
                0x0000000040247dcc                espconn_mdns_get_servername
                0x0000000040247de0                espconn_mdns_server_register
                0x0000000040247df4                espconn_mdns_server_unregister
                0x0000000040247e08                espconn_mdns_close
                0x0000000040247e1c                espconn_mdns_init
 *fill*         0x0000000040247e2e        0x2 
 .irom0.text    0x0000000040247e30      0xafa liblwip/espconn.o
                                        0xbf2 (size before relaxing)
                0x0000000040247e30                espconn_copy_partial
                0x0000000040247ec0                espconn_list_creat
                0x0000000040247ee0                espconn_list_delete
                0x0000000040247f08                espconn_pbuf_create
                0x0000000040247f24                espconn_pbuf_delete
                0x0000000040247f4c                espconn_find_connection
                0x0000000040248008                espconn_connect
                0x00000000402480ec                espconn_create
                0x0000000040248134                espconn_sent
                0x0000000040248134                espconn_send
                0x0000000040248200                espconn_recv
                0x0000000040248274                espconn_sendto
                0x00000000402482bc                espconn_tcp_get_wnd
                0x00000000402482e0                espconn_tcp_set_wnd
                0x00000000402482fc                espconn_tcp_get_mss
                0x0000000040248304                espconn_tcp_get_max_con
                0x0000000040248314                espconn_tcp_set_max_con
                0x000000004024832c                espconn_tcp_get_max_retran
                0x000000004024833c                espconn_tcp_set_max_retran
                0x0000000040248354                espconn_tcp_get_max_syn
                0x0000000040248364                espconn_tcp_set_max_syn
                0x000000004024837c                espconn_tcp_get_max_con_allow
                0x00000000402483a4                espconn_tcp_set_max_con_allow
                0x00000000402483d4                espconn_tcp_set_buf_count
                0x0000000040248418                espconn_regist_sentcb
                0x0000000040248424                espconn_regist_write_finish
                0x000000004024843c                espconn_regist_connectcb
                0x000000004024844c                espconn_regist_recvcb
                0x0000000040248458                espconn_regist_reconcb
                0x0000000040248468                espconn_regist_disconcb
                0x000000004024847c                espconn_get_connection_info
                0x0000000040248544                espconn_accept
                0x0000000040248588                espconn_regist_time
                0x00000000402485c8                espconn_disconnect
                0x000000004024860c                espconn_abort
                0x0000000040248654                espconn_get_packet_info
                0x00000000402486e4                espconn_set_opt
                0x000000004024873c                espconn_clear_opt
                0x000000004024879c                espconn_set_keepalive
                0x0000000040248808                espconn_get_keepalive
                0x0000000040248878                espconn_delete
                0x00000000402488c4                espconn_port
                0x00000000402488fc                espconn_gethostbyname
                0x0000000040248918                espconn_dns_setserver
 *fill*         0x000000004024892a        0x2 
 .irom0.text    0x000000004024892c     0x10e8 liblwip/espconn_tcp.o
                                       0x1414 (size before relaxing)
                0x0000000040248a14                espconn_kill_oldest_pcb
                0x0000000040248a98                espconn_kill_pcb
                0x0000000040248b14                espconn_find_current_pcb
                0x0000000040248bb4                espconn_tcp_memp_free
                0x0000000040248e3c                espconn_tcp_sent
                0x0000000040248f00                espconn_tcp_disconnect
                0x0000000040248fa8                espconn_recv_hold
                0x0000000040248fec                espconn_recv_unhold
                0x0000000040249048                espconn_lock_recv
                0x0000000040249094                espconn_unlock_recv
                0x00000000402491a4                espconn_tcp_write
                0x00000000402493d4                espconn_tcp_client
                0x00000000402498ac                espconn_tcp_server
                0x0000000040249968                espconn_tcp_delete
                0x00000000402499f8                espconn_init
 .irom0.text    0x0000000040249a14      0x4e7 liblwip/espconn_udp.o
                                        0x63f (size before relaxing)
                0x0000000040249a64                espconn_udp_sent
                0x0000000040249bcc                espconn_udp_sendto
                0x0000000040249e20                espconn_udp_disconnect
                0x0000000040249e5c                espconn_udp_server
                0x0000000040249ec4                espconn_igmp_leave
                0x0000000040249ee0                espconn_igmp_join
 *fill*         0x0000000040249efb        0x1 
 .irom0.text    0x0000000040249efc      0x8d3 liblwip/etharp.o
                                        0x9b7 (size before relaxing)
                0x0000000040249f30                etharp_tmr
                0x000000004024a15c                etharp_cleanup_netif
                0x000000004024a198                etharp_find_addr
                0x000000004024a3f0                etharp_output
                0x000000004024a504                etharp_query
                0x000000004024a734                etharp_request
                0x000000004024a758                ethernet_input
 *fill*         0x000000004024a7cf        0x1 
 .irom0.text    0x000000004024a7d0      0x276 liblwip/icmp.o
                                        0x312 (size before relaxing)
                0x000000004024a7dc                icmp_input
                0x000000004024a988                icmp_dest_unreach
 *fill*         0x000000004024aa46        0x2 
 .irom0.text    0x000000004024aa48      0x5f6 liblwip/igmp.o
                                        0x68a (size before relaxing)
                0x000000004024aa54                igmp_init
                0x000000004024aa64                igmp_start
                0x000000004024aaa8                igmp_stop
                0x000000004024ab0c                igmp_report_groups
                0x000000004024ab3c                igmp_lookfor_group
                0x000000004024ac04                igmp_input
                0x000000004024ad4c                igmp_joingroup
                0x000000004024adf4                igmp_leavegroup
                0x000000004024ae98                igmp_tmr
 *fill*         0x000000004024b03e        0x2 
 .irom0.text    0x000000004024b040       0x40 liblwip/init.o
                                         0x60 (size before relaxing)
                0x000000004024b044                lwip_init
 .irom0.text    0x000000004024b080      0x37e liblwip/ip_addr.o
                                        0x3a2 (size before relaxing)
                0x000000004024b080                ip4_addr_isbroadcast
                0x000000004024b0b0                ip4_addr_netmask_valid
                0x000000004024b0f0                ipaddr_addr
                0x000000004024b10c                ipaddr_aton
                0x000000004024b328                ipaddr_ntoa
                0x000000004024b33c                ipaddr_ntoa_r
 *fill*         0x000000004024b3fe        0x2 
 .irom0.text    0x000000004024b400      0x589 liblwip/ip.o
                                        0x62d (size before relaxing)
                0x000000004024b404                ip_route
                0x000000004024b480                ip_router
                0x000000004024b4f8                ip_input
                0x000000004024b750                ip_output_if
                0x000000004024b774                ip_output_if_opt
                0x000000004024b950                ip_output
 *fill*         0x000000004024b989        0x3 
 .irom0.text    0x000000004024b98c      0xf37 liblwip/mdns.o
                                       0x1307 (size before relaxing)
                0x000000004024b990                getPcb
                0x000000004024c3d0                mdns_close
                0x000000004024c468                mdns_set_name
                0x000000004024c484                mdns_enable
                0x000000004024c4a8                mdns_disable
                0x000000004024c4cc                mdns_get_hostname
                0x000000004024c4e4                mdns_set_hostname
                0x000000004024c550                mdns_set_servername
                0x000000004024c57c                mdns_get_servername
                0x000000004024c594                mdns_server_unregister
                0x000000004024c60c                mdns_server_register
                0x000000004024c65c                mdns_reg
                0x000000004024c6b8                mdns_init
 *fill*         0x000000004024c8c3        0x1 
 .irom0.text    0x000000004024c8c4      0x281 liblwip/netif.o
                                        0x2c1 (size before relaxing)
                0x000000004024c8c4                netif_init
                0x000000004024c8cc                netif_add
                0x000000004024c934                netif_set_addr
                0x000000004024c95c                netif_remove
                0x000000004024c9b8                netif_find
                0x000000004024c9f4                netif_set_ipaddr
                0x000000004024ca5c                netif_set_gw
                0x000000004024ca6c                netif_set_netmask
                0x000000004024ca7c                netif_set_default
                0x000000004024ca84                netif_set_up
                0x000000004024cac0                netif_set_down
                0x000000004024cae8                netif_set_link_up
                0x000000004024cb34                netif_set_link_down
 *fill*         0x000000004024cb45        0x3 
 .irom0.text    0x000000004024cb48      0x3dc liblwip/netio.o
                                        0x494 (size before relaxing)
                0x000000004024cefc                netio_init
 .irom0.text    0x000000004024cf24      0x68e liblwip/pbuf.o
                                        0x6f6 (size before relaxing)
                0x000000004024cf24                pbuf_free_ooseq_new
                0x000000004024cf7c                pbuf_alloc
                0x000000004024d0dc                pbuf_realloc
                0x000000004024d124                pbuf_header
                0x000000004024d190                pbuf_free
                0x000000004024d21c                pbuf_clen
                0x000000004024d234                pbuf_ref
                0x000000004024d240                pbuf_cat
                0x000000004024d26c                pbuf_chain
                0x000000004024d288                pbuf_dechain
                0x000000004024d2c4                pbuf_copy
                0x000000004024d368                pbuf_copy_partial
                0x000000004024d3e8                pbuf_take
                0x000000004024d448                pbuf_coalesce
                0x000000004024d47c                pbuf_get_at
                0x000000004024d4a4                pbuf_memcmp
                0x000000004024d510                pbuf_memfind
                0x000000004024d568                pbuf_strstr
 *fill*         0x000000004024d5b2        0x2 
 .irom0.text    0x000000004024d5b4      0x45c liblwip/ping.o
                                        0x538 (size before relaxing)
                0x000000004024d99c                ping_start
                0x000000004024d9f8                ping_regist_recv
                0x000000004024da04                ping_regist_sent
 .irom0.text    0x000000004024da10      0x1ed liblwip/raw.o
                                        0x249 (size before relaxing)
                0x000000004024da14                raw_input
                0x000000004024da9c                raw_bind
                0x000000004024daac                raw_connect
                0x000000004024dabc                raw_recv
                0x000000004024dac4                raw_sendto
                0x000000004024db60                raw_send
                0x000000004024db78                raw_remove
                0x000000004024dbb4                raw_new
 *fill*         0x000000004024dbfd        0x3 
 .irom0.text    0x000000004024dc00      0x99f liblwip/sntp.o
                                        0xb7f (size before relaxing)
                0x000000004024dc20                sntp_mktm_r
                0x000000004024decc                sntp_localtime_r
                0x000000004024dee0                sntp_localtime
                0x000000004024defc                sntp__tzcalc_limits
                0x000000004024e0a8                sntp_asctime_r
                0x000000004024e0f4                sntp_asctime
                0x000000004024e10c                sntp_get_timezone
                0x000000004024e120                sntp_set_timezone
                0x000000004024e16c                sntp_set_daylight
                0x000000004024e1a0                sntp_time_inc
                0x000000004024e498                sntp_init
                0x000000004024e4d0                sntp_stop
                0x000000004024e510                sntp_setserver
                0x000000004024e52c                sntp_getserver
                0x000000004024e540                sntp_setservername
                0x000000004024e550                sntp_getservername
                0x000000004024e568                sntp_set_update_delay
                0x000000004024e578                sntp_set_timetype
                0x000000004024e580                sntp_set_receive_time_size
 *fill*         0x000000004024e59f        0x1 
 .irom0.text    0x000000004024e5a0     0x157c liblwip/tcp_in.o
                                       0x17c0 (size before relaxing)
                0x000000004024e5a8                tcp_input
 .irom0.text    0x000000004024fb1c      0xae7 liblwip/tcp.o
                                        0xc23 (size before relaxing)
                0x000000004024fb20                tcp_tmr
                0x000000004024fb44                tcp_close
                0x000000004024fb68                tcp_shutdown
                0x000000004024fbc8                tcp_abandon
                0x000000004024fc70                tcp_abort
                0x000000004024fc88                tcp_bind
                0x000000004024fd04                tcp_listen_with_backlog
                0x000000004024fdc4                tcp_update_rcv_ann_wnd
                0x000000004024fe08                tcp_recved
                0x000000004024fe64                tcp_connect
                0x000000004024ff70                tcp_slowtmr
                0x0000000040250218                tcp_fasttmr
                0x0000000040250294                tcp_segs_free
                0x00000000402502b0                tcp_seg_free
                0x00000000402502dc                tcp_setprio
                0x00000000402502e4                tcp_seg_copy
                0x0000000040250328                tcp_recv_null
                0x00000000402503dc                tcp_alloc
                0x00000000402504c4                tcp_new
                0x00000000402504d8                tcp_arg
                0x00000000402504dc                tcp_recv
                0x00000000402504e4                tcp_sent
                0x00000000402504ec                tcp_err
                0x00000000402504f4                tcp_accept
                0x00000000402504f8                tcp_poll
                0x0000000040250500                tcp_pcb_purge
                0x0000000040250554                tcp_pcb_remove
                0x00000000402505bc                tcp_next_iss
                0x00000000402505d0                tcp_eff_send_mss
 *fill*         0x0000000040250603        0x1 
 .irom0.text    0x0000000040250604      0xf24 liblwip/tcp_out.o
                                       0x1028 (size before relaxing)
                0x00000000402506fc                tcp_send_fin
                0x00000000402508e8                tcp_write
                0x0000000040250c24                tcp_enqueue_flags
                0x0000000040250d08                tcp_send_empty_ack
                0x0000000040250d9c                tcp_output
                0x00000000402510ac                tcp_rst
                0x00000000402511ec                tcp_rexmit_rto
                0x0000000040251260                tcp_rexmit
                0x000000004025130c                tcp_rexmit_fast
                0x0000000040251364                tcp_keepalive
                0x00000000402513e4                tcp_zero_window_probe
 .irom0.text    0x0000000040251528      0x2cf liblwip/timers.o
                                        0x357 (size before relaxing)
                0x0000000040251568                tcp_timer_needed
                0x00000000402515f4                sys_timeouts_init
                0x000000004025165c                sys_timeout
                0x00000000402516d8                sys_untimeout
                0x000000004025172c                sys_check_timeouts
                0x00000000402517e8                sys_restart_timeouts
 *fill*         0x00000000402517f7        0x1 
 .irom0.text    0x00000000402517f8      0x56f liblwip/udp.o
                                        0x62b (size before relaxing)
                0x00000000402517fc                udp_input
                0x0000000040251a54                udp_send
                0x0000000040251a68                udp_sendto
                0x0000000040251ab4                udp_sendto_if
                0x0000000040251bf8                udp_bind
                0x0000000040251c74                udp_connect
                0x0000000040251cd0                udp_disconnect
                0x0000000040251ce8                udp_recv
                0x0000000040251cf4                udp_remove
                0x0000000040251d30                udp_new
 *fill*         0x0000000040251d67        0x1 
 .irom0.text    0x0000000040251d68      0xc91 libmain/app_main.o
                                        0xf3d (size before relaxing)
                0x000000004025201c                wdt_init
                0x00000000402520bc                user_uart_wait_tx_fifo_empty
                0x000000004025236c                user_rf_pre_init
                0x0000000040252374                system_phy_freq_trace_enable
                0x0000000040252384                flash_data_check
 *fill*         0x00000000402529f9        0x3 
 .irom0.text    0x00000000402529fc      0x60c libmain/eagle_lib.o
                                        0x620 (size before relaxing)
                0x00000000402529fc                divide
                0x0000000040252a38                skip_atoi
                0x0000000040252bb8                ets_vsnprintf
                0x0000000040252f18                ets_vsprintf
                0x0000000040252f3c                ets_sprintf
                0x0000000040252f64                ets_strcat
                0x0000000040252f84                ets_strrchr
                0x0000000040252fb0                ets_strchr
                0x0000000040252fc8                bit_popcount
                0x0000000040252fe4                ets_snprintf
 .irom0.text    0x0000000040253008      0x326 libmain/eagle_lwip_if.o
                                        0x3e6 (size before relaxing)
                0x00000000402530c8                eagle_lwip_if_alloc
                0x0000000040253288                eagle_lwip_if_free
                0x000000004025330c                eagle_lwip_getif
 *fill*         0x000000004025332e        0x2 
 .irom0.text    0x0000000040253330      0x17e libmain/ets_timer.o
                                        0x1b2 (size before relaxing)
                0x0000000040253338                ets_timer_done
                0x0000000040253380                ets_timer_handler_isr
                0x000000004025344c                ets_timer_init
 *fill*         0x00000000402534ae        0x2 
 .irom0.text    0x00000000402534b0       0xe8 libmain/mem_manager.o
                                         0xf8 (size before relaxing)
                0x00000000402534b0                check_memleak_debug_enable
                0x0000000040253518                xPortGetFreeHeapSize
                0x0000000040253520                vPortInitialiseBlocks
 .irom0.text    0x0000000040253598        0xb libmain/spi_flash.o
                0x000000004025359c                spi_flash_set_read_func
 *fill*         0x00000000402535a3        0x1 
 .irom0.text    0x00000000402535a4      0x1f1 libmain/spi_overlap.o
                                        0x211 (size before relaxing)
                0x00000000402535ac                overlap_hspi_init
                0x0000000040253634                overlap_hspi_deinit
                0x00000000402536c0                overlap_hspi_read_data
 *fill*         0x0000000040253795        0x3 
 .irom0.text    0x0000000040253798      0x1f6 libmain/time.o
                                        0x262 (size before relaxing)
                0x0000000040253804                millis
                0x000000004025383c                micros
                0x0000000040253850                updateTime
                0x0000000040253878                configTime
                0x000000004025390c                time
                0x0000000040253934                _gettimeofday_r
                0x0000000040253970                getrealtimeofday
 *fill*         0x000000004025398e        0x2 
 .irom0.text    0x0000000040253990     0x3cf5 libmain/user_interface.o
                                       0x48dd (size before relaxing)
                0x0000000040253994                system_set_os_print
                0x00000000402539a4                system_get_os_print
                0x0000000040253b6c                system_pp_recycle_rx_pkt
                0x0000000040253b80                system_adc_read
                0x0000000040253bc0                system_adc_read_fast
                0x0000000040253c20                system_get_vdd33
                0x0000000040253c4c                system_restart_hook
                0x0000000040253c64                system_restart_local
                0x0000000040253d44                system_restart
                0x0000000040253da0                system_restore
                0x0000000040253e08                system_get_flash_size_map
                0x0000000040253e28                system_get_boot_version
                0x0000000040253e60                system_get_test_result
                0x0000000040253e84                system_get_userbin_addr
                0x0000000040253f1c                system_get_boot_mode
                0x0000000040253f4c                system_restart_enhance
                0x00000000402540f8                system_upgrade_userbin_set
                0x0000000040254144                system_upgrade_userbin_check
                0x0000000040254184                system_upgrade_flag_set
                0x0000000040254198                system_upgrade_flag_check
                0x00000000402541c0                system_upgrade_reboot
                0x000000004025431c                system_deep_sleep_instant
                0x00000000402544b4                system_deep_sleep
                0x0000000040254514                system_deep_sleep_set_option
                0x0000000040254530                system_phy_temperature_alert
                0x0000000040254544                system_phy_set_max_tpw
                0x0000000040254558                system_phy_set_tpw_via_vdd33
                0x000000004025456c                system_phy_set_rfoption
                0x0000000040254580                system_phy_set_powerup_option
                0x0000000040254598                system_update_cpu_freq
                0x00000000402545f4                system_get_cpu_freq
                0x000000004025460c                system_overclock
                0x0000000040254638                system_restoreclock
                0x0000000040254668                system_timer_reinit
                0x0000000040254680                system_relative_time
                0x00000000402546a0                system_station_got_ip_set
                0x00000000402547cc                system_print_meminfo
                0x000000004025482c                system_get_free_heap_size
                0x0000000040254840                system_get_chip_id
                0x0000000040254864                system_rtc_clock_cali_proc
                0x0000000040254878                system_get_rtc_time
                0x000000004025488c                system_mktime
                0x000000004025495c                system_init_done_cb
                0x0000000040254964                system_get_rst_info
                0x000000004025496c                system_get_data_of_array_8
                0x0000000040254990                system_get_data_of_array_16
                0x00000000402549b8                system_get_string_from_flash
                0x0000000040254a24                wifi_softap_dhcps_start
                0x0000000040254a6c                wifi_softap_dhcps_stop
                0x0000000040254aac                wifi_softap_dhcps_status
                0x0000000040254ab4                wifi_station_dhcpc_start
                0x0000000040254b0c                wifi_station_dhcpc_stop
                0x0000000040254b4c                wifi_station_dhcpc_event
                0x0000000040254bc0                wifi_station_dhcpc_set_maxtry
                0x0000000040254bd0                wifi_station_dhcpc_status
                0x0000000040254c50                wifi_get_opmode
                0x0000000040254c64                wifi_get_opmode_default
                0x0000000040254cdc                wifi_get_broadcast_if
                0x0000000040254d18                wifi_set_broadcast_if
                0x0000000040254e94                wifi_set_opmode
                0x0000000040254ea8                wifi_set_opmode_current
                0x0000000040254ebc                system_get_checksum
                0x0000000040254f00                wifi_param_save_protect_with_check
                0x0000000040254fc0                system_param_save_with_protect
                0x0000000040255074                system_save_sys_param
                0x00000000402550a0                system_param_load
                0x00000000402551dc                wifi_station_get_config
                0x00000000402551f0                wifi_station_get_config_default
                0x0000000040255210                wifi_station_get_ap_info
                0x00000000402552c8                wifi_station_ap_number_set
                0x000000004025577c                wifi_station_set_config
                0x0000000040255794                wifi_station_set_config_current
                0x00000000402557ac                wifi_station_restore_config
                0x00000000402557c4                wifi_station_get_current_ap_id
                0x00000000402557d8                wifi_station_ap_check
                0x0000000040255828                wifi_station_ap_change
                0x0000000040255940                wifi_station_scan
                0x000000004025598c                wifi_station_get_auto_connect
                0x00000000402559ac                wifi_station_set_auto_connect
                0x0000000040255a64                wifi_station_save_pmk2cache
                0x0000000040255b94                wifi_station_save_bssid
                0x0000000040255c34                wifi_station_connect
                0x0000000040255cc8                wifi_station_disconnect
                0x0000000040255d88                wifi_station_get_connect_status
                0x0000000040255db8                wifi_station_set_reconnect_policy
                0x0000000040255dd0                wifi_station_get_reconnect_policy
                0x0000000040255dd8                wifi_station_get_rssi
                0x0000000040255e24                wifi_station_set_default_hostname
                0x0000000040255e8c                wifi_station_get_hostname
                0x0000000040255eb4                wifi_station_set_hostname
                0x0000000040255f54                wifi_softap_cacl_mac
                0x0000000040255fc4                wifi_softap_set_default_ssid
                0x00000000402561a4                wifi_softap_get_config
                0x00000000402561b8                wifi_softap_get_config_default
                0x00000000402564f0                wifi_softap_set_config
                0x0000000040256504                wifi_softap_set_config_current
                0x0000000040256518                wifi_softap_set_station_info
                0x0000000040256588                wifi_softap_get_station_info
                0x0000000040256634                wifi_softap_free_station_info
                0x0000000040256674                wifi_softap_get_station_num
                0x00000000402566c4                wifi_softap_deauth
                0x0000000040256774                wifi_softap_get_beacon_only_mode
                0x0000000040256788                wifi_softap_set_beacon_only_mode
                0x00000000402567ec                wifi_register_user_ie_manufacturer_recv_cb
                0x0000000040256800                wifi_unregister_user_ie_manufacturer_recv_cb
                0x0000000040256830                wifi_set_user_ie
                0x0000000040256940                wifi_get_user_ie
                0x0000000040256974                wifi_get_phy_mode
                0x0000000040256988                wifi_set_phy_mode
                0x0000000040256b3c                wifi_check_regdomain_param
                0x0000000040256bc0                wifi_regdomain_need_update
                0x0000000040256c9c                wifi_set_regdomain
                0x0000000040256dd4                wifi_get_regdomain
                0x0000000040256e84                wifi_set_sleep_type
                0x0000000040256ea4                wifi_enable_gpio_wakeup
                0x0000000040256ed0                wifi_disable_gpio_wakeup
                0x0000000040256ee8                wifi_get_sleep_type
                0x0000000040256f00                wifi_get_channel
                0x0000000040256f18                wifi_set_channel
                0x0000000040256f70                wifi_promiscuous_set_mac
                0x0000000040256fd0                wifi_promiscuous_enable
                0x00000000402570b4                wifi_set_promiscuous_rx_cb
                0x00000000402570c4                wifi_get_ip_info
                0x0000000040257144                wifi_set_ip_info
                0x00000000402571b8                wifi_get_macaddr
                0x0000000040257218                wifi_set_macaddr
                0x0000000040257334                wifi_enable_6m_rate
                0x000000004025733c                wifi_get_user_fixed_rate
                0x000000004025735c                wifi_set_user_fixed_rate
                0x000000004025737c                wifi_set_user_sup_rate
                0x00000000402573b8                wifi_set_user_rate_limit
                0x00000000402573dc                wifi_get_user_limit_rate_mask
                0x00000000402573e4                wifi_set_user_limit_rate_mask
                0x00000000402573fc                wifi_register_send_pkt_freedom_cb
                0x0000000040257410                wifi_unregister_send_pkt_freedom_cb
                0x000000004025741c                wifi_send_pkt_freedom
                0x0000000040257468                wifi_rfid_locp_recv_open
                0x000000004025747c                wifi_rfid_locp_recv_close
                0x0000000040257490                wifi_register_rfid_locp_recv_cb
                0x00000000402574a4                wifi_unregister_rfid_locp_recv_cb
                0x00000000402574bc                wifi_status_led_install
                0x00000000402574f0                wifi_status_led_uninstall
                0x0000000040257514                wifi_set_status_led_output_level
                0x0000000040257568                wifi_set_event_handler_cb
                0x00000000402575b0                system_os_task
                0x00000000402575ec                system_uart_swap
                0x000000004025764c                system_uart_de_swap
                0x0000000040257680                system_get_sdk_version
 *fill*         0x0000000040257685        0x3 
 .irom0.text    0x0000000040257688      0x2ad libmesh/espconn_base64.o
                                        0x2cd (size before relaxing)
                0x0000000040257690                _base64Decode
                0x0000000040257790                _base64Encode
                0x000000004025785c                base64Decode
                0x00000000402578d8                base64Encode
 *fill*         0x0000000040257935        0x3 
 .irom0.text    0x0000000040257938     0x665d libmesh/espconn_mesh.o
                                       0x7d25 (size before relaxing)
                0x0000000040257948                espconn_mesh_http_complete
                0x0000000040257a68                espconn_mesh_scan_done_for_usr
                0x0000000040257b10                espconn_mesh_scan
                0x0000000040257b5c                espconn_mesh_get_node_info
                0x0000000040257cb4                espconn_mesh_server_init
                0x0000000040257ce0                espconn_mesh_release_usr_ctx
                0x0000000040257d08                espconn_mesh_group_id_init
                0x0000000040257d40                espconn_mesh_set_dev_type
                0x0000000040257d4c                espconn_mesh_get_dev_type
                0x0000000040257d5c                espconn_mesh_encrypt_init
                0x0000000040257dc4                espconn_mesh_set_ssid_prefix
                0x0000000040257e14                espconn_mesh_get_version
                0x0000000040257e20                espconn_mesh_print_ver
                0x00000000402589f8                espconn_mesh_get_status
                0x0000000040258a78                espconn_mesh_get_max_hops
                0x0000000040258a80                espconn_mesh_set_max_hops
                0x0000000040258a98                espconn_mesh_setup_timer
                0x0000000040258da8                espconn_mesh_get_router
                0x0000000040258e08                espconn_mesh_set_router
                0x0000000040258ed8                espconn_mesh_enable
                0x00000000402591e4                espconn_mesh_disable
                0x0000000040259e10                espconn_mesh_local_addr
                0x0000000040259e44                espconn_mesh_layer
                0x000000004025a700                espconn_mesh_connect
                0x000000004025a8f8                espconn_mesh_disconnect
                0x000000004025b7e8                espconn_json_find_section
                0x000000004025d9d8                espconn_mesh_sent
 *fill*         0x000000004025df95        0x3 
 .irom0.text    0x000000004025df98      0x16f libnet80211/ieee80211_action.o
                                        0x193 (size before relaxing)
                0x000000004025dfa8                ieee80211_send_action_register
                0x000000004025dfdc                ieee80211_send_action_unregister
                0x000000004025dff0                ieee80211_send_action
                0x000000004025e05c                ieee80211_recv_action_register
                0x000000004025e090                ieee80211_recv_action_unregister
                0x000000004025e0a4                ieee80211_recv_action
 *fill*         0x000000004025e107        0x1 
 .irom0.text    0x000000004025e108      0x588 libnet80211/ieee80211_action_vendor.o
                                        0x5fc (size before relaxing)
                0x000000004025e108                ieee80211_avs_fetch_key_idx
                0x000000004025e15c                ieee80211_avs_clear_key_idx
                0x000000004025e184                get_iav_key
                0x000000004025e1a8                register_ieee80211_action_vendor_get_key_cb
                0x000000004025e1c0                unregister_ieee80211_action_vendor_get_key_cb
                0x000000004025e1d8                ieee80211_add_action_vendor_spec_esp
                0x000000004025e21c                ieee80211_alloc_action_vendor_spec
                0x000000004025e328                ieee80211_send_action_vendor_spec
                0x000000004025e4d8                ieee80211_recv_action_vendor_spec
                0x000000004025e634                ieee80211_action_vendor_spec_attach
                0x000000004025e66c                register_ieee80211_action_vendor_spec_cb
                0x000000004025e684                unregister_ieee80211_action_vendor_spec_cb
 .irom0.text    0x000000004025e690      0x15d libnet80211/ieee80211_crypto_ccmp.o
                                        0x165 (size before relaxing)
 *fill*         0x000000004025e7ed        0x3 
 .irom0.text    0x000000004025e7f0       0xcf libnet80211/ieee80211_crypto.o
                                         0xd7 (size before relaxing)
                0x000000004025e7f0                ieee80211_crypto_attach
                0x000000004025e7f4                ieee80211_crypto_available
                0x000000004025e7f8                ieee80211_crypto_setkey
                0x000000004025e7fc                ieee80211_crypto_encap
                0x000000004025e854                ieee80211_crypto_decap
 *fill*         0x000000004025e8bf        0x1 
 .irom0.text    0x000000004025e8c0      0x18b libnet80211/ieee80211_crypto_tkip.o
                                        0x197 (size before relaxing)
 *fill*         0x000000004025ea4b        0x1 
 .irom0.text    0x000000004025ea4c       0x7c libnet80211/ieee80211_crypto_wep.o
 .irom0.text    0x000000004025eac8       0x4c libnet80211/ieee80211_ets.o
                                         0x50 (size before relaxing)
                0x000000004025eacc                ieee80211_getmgtframe
 .irom0.text    0x000000004025eb14     0x1a10 libnet80211/ieee80211_hostap.o
                                       0x1f3b (size before relaxing)
                0x000000004025f164                ieee80211_hostap_attach
                0x000000004025f260                hostap_handle_timer
                0x000000004025f2f8                hostap_input
                0x0000000040260204                wifi_softap_start
                0x0000000040260388                wifi_softap_stop
 *fill*         0x0000000040260524        0x0 
 .irom0.text    0x0000000040260524      0xa6e libnet80211/ieee80211_ht.o
                                        0xb36 (size before relaxing)
                0x0000000040260534                ieee80211_ht_attach
                0x0000000040260584                ieee80211_ht_node_init
                0x00000000402605c4                ieee80211_ht_node_cleanup
                0x00000000402605fc                ieee80211_parse_htcap
                0x00000000402606ec                ieee80211_ht_updateparams
                0x00000000402607fc                ieee80211_setup_htrates
                0x00000000402608c8                ieee80211_setup_basic_htrates
                0x0000000040260c00                ieee80211_add_htcap
                0x0000000040260c1c                ieee80211_add_htcap_vendor
                0x0000000040260d3c                ieee80211_add_htinfo
                0x0000000040260d58                ieee80211_add_htinfo_vendor
 *fill*         0x0000000040260f92        0x2 
 .irom0.text    0x0000000040260f94      0x24d libnet80211/ieee80211_ie_vendor.o
                                        0x26d (size before relaxing)
                0x0000000040260f98                ieee80211_add_ie_vendor_esp_head
                0x0000000040260fd0                ieee80211_add_ie_vendor_esp_mesh_assoc
                0x0000000040261054                ieee80211_add_ie_vendor_esp_mesh_group
                0x0000000040261088                ieee80211_add_ie_vendor_esp_simple_pair
                0x00000000402610e4                ieee80211_add_ie_vendor_esp_freq_annon
                0x000000004026111c                ieee80211_add_ie_vendor_esp_now
                0x0000000040261154                ieee80211_add_ie_vendor_esp_ssid
                0x0000000040261194                ieee80211_add_ie_vendor_esp_manufacturer
 *fill*         0x00000000402611e1        0x3 
 .irom0.text    0x00000000402611e4      0xadc libnet80211/ieee80211_input.o
                                        0xb70 (size before relaxing)
                0x00000000402611e4                ieee80211_deliver_data
                0x0000000040261238                ieee80211_decap
                0x000000004026133c                ieee80211_setup_rates
                0x00000000402613ac                ieee80211_alloc_challenge
                0x00000000402613ec                ieee80211_parse_beacon
                0x0000000040261a10                ieee80211_parse_wpa
                0x0000000040261b24                ieee80211_parse_rsn
                0x0000000040261c20                ieee80211_parse_action
                0x0000000040261cbc                ieee80211_setup_rateset
 .irom0.text    0x0000000040261cc0      0x2a6 libnet80211/ieee80211_mesh_quick.o
                                        0x302 (size before relaxing)
                0x0000000040261ccc                ieee80211_mesh_quick_init
                0x0000000040261d3c                ieee80211_mesh_quick_deinit
                0x0000000040261d6c                ieee80211_mesh_quick_set
                0x0000000040261e68                ieee80211_mesh_quick_get
                0x0000000040261f34                ieee80211_mesh_quick_ie_add
 *fill*         0x0000000040261f66        0x2 
 .irom0.text    0x0000000040261f68      0x481 libnet80211/ieee80211.o
                                        0x545 (size before relaxing)
                0x0000000040261ff4                ieee80211_rate_ref_init
                0x000000004026200c                ieee80211_freedom_inside_cb
                0x000000004026203c                ieee80211_freedom_init
                0x0000000040262060                ieee80211_user_ie_init
                0x000000004026207c                ieee80211_ifattach
                0x00000000402620e0                ieee80211_mhz2ieee
                0x000000004026213c                ieee80211_chan2ieee
                0x0000000040262158                ieee80211_ieee2mhz
                0x0000000040262198                ieee80211_find_channel
                0x00000000402621c4                ieee80211_find_channel_byieee
                0x0000000040262214                wifi_mode_set
 *fill*         0x00000000402623e9        0x3 
 .irom0.text    0x00000000402623ec     0x1e4c libnet80211/ieee80211_output.o
                                       0x220c (size before relaxing)
                0x00000000402623f0                ieee80211_output_pbuf
                0x0000000040262660                ieee80211_send_setup
                0x0000000040262794                ieee80211_mgmt_output
                0x000000004026287c                ieee80211_tx_mgt_cb
                0x0000000040262884                ieee80211_send_nulldata
                0x0000000040262cf0                ieee80211_add_rates
                0x0000000040262d40                ieee80211_add_xrates
                0x0000000040262e70                ieee80211_send_probereq
                0x00000000402630e0                ieee80211_getcapinfo
                0x000000004026313c                ieee80211_send_mgmt
                0x00000000402636e8                ieee80211_alloc_proberesp
                0x0000000040263954                ieee80211_send_proberesp
                0x0000000040263a9c                ieee80211_alloc_deauth
                0x0000000040263adc                ieee80211_send_deauth
                0x0000000040263c18                ieee80211_freedom_output
                0x000000004026405c                ieee80211_beacon_alloc
 .irom0.text    0x0000000040264238       0xe0 libnet80211/ieee80211_phy.o
                                        0x108 (size before relaxing)
                0x0000000040264238                ieee80211_phy_init
                0x000000004026426c                ieee80211_phy_type_get
                0x0000000040264288                ieee80211_setup_ratetable
 .irom0.text    0x0000000040264318      0x1b6 libnet80211/ieee80211_power.o
                                        0x1f2 (size before relaxing)
                0x0000000040264318                ieee80211_psq_init
                0x0000000040264338                ieee80211_psq_cleanup
                0x0000000040264340                ieee80211_set_tim
                0x0000000040264380                ieee80211_pwrsave
                0x00000000402643e8                pwrsave_flushq
                0x0000000040264498                ieee80211_node_pwrsave
 *fill*         0x00000000402644ce        0x2 
 .irom0.text    0x00000000402644d0      0x121 libnet80211/ieee80211_proto.o
                                        0x159 (size before relaxing)
                0x00000000402644d4                ieee80211_proto_attach
                0x00000000402644fc                ieee80211_set_shortslottime
                0x0000000040264518                ieee80211_iserp_rateset
                0x000000004026454c                ieee80211_wme_initparams
                0x0000000040264550                ieee80211_wme_updateparams
                0x0000000040264558                ieee80211_mlme_connect_bss
 *fill*         0x00000000402645f1        0x3 
 .irom0.text    0x00000000402645f4      0x1bc libnet80211/ieee80211_regdomain.o
                                        0x1dc (size before relaxing)
                0x00000000402645f4                ieee80211_regdomain_attach
                0x00000000402645fc                ieee80211_regdomain_detach
                0x0000000040264624                ieee80211_alloc_countryie
                0x00000000402646c4                ieee80211_chan_in_regdomain
                0x0000000040264708                ieee80211_update_regdomain
 .irom0.text    0x00000000402647b0       0xb2 libnet80211/ieee80211_rfid.o
                                         0xd6 (size before relaxing)
                0x00000000402647b4                ieee80211_rfid_locp_recv_open
                0x00000000402647f0                ieee80211_rfid_locp_recv_close
                0x0000000040264808                ieee80211_rfid_locp_recv_reset
                0x0000000040264828                ieee80211_rfid_locp_recv
                0x0000000040264844                register_ieee80211_rfid_locp_recv_cb
                0x0000000040264858                unregister_ieee80211_rfid_locp_recv_cb
 *fill*         0x0000000040264862        0x2 
 .irom0.text    0x0000000040264864      0xf49 libnet80211/ieee80211_scan.o
                                       0x129d (size before relaxing)
                0x0000000040264870                ieee80211_scan_attach
                0x0000000040264904                scan_start
                0x0000000040264ac4                scan_pm_channel_op_cb
                0x0000000040264c64                scan_cancel
                0x0000000040264dc0                scan_add_bssid
                0x0000000040264de4                scan_remove_bssid
                0x0000000040264df0                scan_hidden_ssid
                0x0000000040264df8                scan_add_probe_ssid
                0x0000000040264e4c                scan_remove_probe_ssid
                0x0000000040264f88                scan_clear_channles
                0x0000000040264ffc                scan_set_desChan
                0x0000000040265008                scan_get_type
                0x0000000040265010                cannel_scan_connect_state
                0x0000000040265028                scan_connect_state
                0x0000000040265070                scan_check_hidden
                0x000000004026509c                scan_profile_check
                0x000000004026543c                scan_parse_beacon
 *fill*         0x00000000402657ad        0x3 
 .irom0.text    0x00000000402657b0     0x10fd libnet80211/ieee80211_sta.o
                                       0x139d (size before relaxing)
                0x000000004026580c                sta_status_set
                0x0000000040265878                ieee80211_sta_new_state
                0x0000000040265c08                sta_input
                0x0000000040266154                ieee80211_parse_wmeparams
                0x00000000402667f8                wifi_station_start
                0x000000004026686c                wifi_station_stop
 *fill*         0x00000000402668ad        0x3 
 .irom0.text    0x00000000402668b0      0x2aa libnet80211/wl_chm.o
                                        0x32e (size before relaxing)
                0x00000000402668bc                chm_init
                0x000000004026692c                chm_acquire_lock
                0x0000000040266970                chm_release_lock
                0x0000000040266984                chm_start_op
                0x0000000040266a28                chm_end_op
                0x0000000040266a70                chm_cancel_op
                0x0000000040266aa4                chm_return_home_channel
                0x0000000040266ad4                chm_set_current_channel
                0x0000000040266b04                chm_freq2index
                0x0000000040266b2c                chm_check_same_channel
 *fill*         0x0000000040266b5a        0x2 
 .irom0.text    0x0000000040266b5c     0x1939 libnet80211/wl_cnx.o
                                       0x1f2d (size before relaxing)
                0x0000000040266b68                cnx_attach
                0x0000000040266ba8                cnx_sta_connect_led_timer_cb
                0x0000000040266bfc                cnx_sta_connect_cmd
                0x0000000040266cd8                cnx_sta_scan_cmd
                0x0000000040266f40                cnx_connect_timeout
                0x0000000040266fbc                cnx_auth_timeout
                0x0000000040266fe0                cnx_assoc_timeout
                0x0000000040267004                cnx_handshake_timeout
                0x0000000040267044                cnx_start_handoff_cb
                0x00000000402671dc                cnx_csa_fn
                0x00000000402675e8                cnx_bss_alloc
                0x0000000040267688                cnx_rc_search
                0x0000000040267708                cnx_add_rc
                0x0000000040267774                cnx_remove_all_rc
                0x00000000402677c0                cnx_remove_rc
                0x0000000040267890                cnx_rc_update_rssi
                0x0000000040267918                cnx_rc_update_state_metric
                0x0000000040267984                cnx_rc_update_age
                0x00000000402679a8                cnx_update_bss
                0x00000000402679dc                cnx_update_bss_more
                0x0000000040267bc8                cnx_sta_leave
                0x0000000040267e58                cnx_sta_associated
                0x0000000040267f60                cnx_node_alloc
                0x0000000040267fd4                cnx_node_remove
                0x0000000040268060                cnx_node_search
                0x00000000402680dc                cnx_node_leave
                0x00000000402681dc                wifi_softap_staconnected_event_policy
                0x0000000040268204                wifi_softap_toomany_deny
                0x0000000040268240                cnx_node_join
 *fill*         0x0000000040268495        0x3 
 .irom0.text    0x0000000040268498     0x1753 libphy/phy_chip_v6_ana.o
                                       0x197f (size before relaxing)
                0x000000004026849c                ram_pbus_set_rxgain
                0x000000004026856c                ram_pbus_debugmode
                0x0000000040268620                ram_pbus_xpd_tx_on
                0x000000004026868c                set_rf_freq_offset
                0x00000000402686fc                chip_v6_rxmax_ext_ana
                0x0000000040268850                ram_chip_v6_rx_init
                0x0000000040268880                tsen_meas
                0x000000004026892c                readvdd33
                0x0000000040268af8                txpwr_offset
                0x0000000040268bb4                set_txcap_reg
                0x0000000040268c34                ram_ana_inf_gating_en
                0x0000000040268d94                ram_restart_cal
                0x0000000040268e00                wait_rfpll_cal_end
                0x0000000040268e8c                ram_rfpll_set_freq
                0x0000000040268f8c                ram_set_channel_freq
                0x0000000040269288                chip_60_set_channel
                0x0000000040269428                chip_v6_set_chan_offset
                0x0000000040269488                chip_v6_set_chan
                0x0000000040269538                chip_v6_set_chan_wakeup
                0x00000000402695b8                chip_v6_rf_init
                0x000000004026981c                low_power_set
                0x000000004026986c                test_tout
                0x00000000402699e4                check_data_flag
                0x0000000040269a04                phy_get_check_flag
                0x0000000040269b38                phy_get_vdd33
 *fill*         0x0000000040269beb        0x1 
 .irom0.text    0x0000000040269bec     0x21b0 libphy/phy_chip_v6_cal.o
                                       0x23d4 (size before relaxing)
                0x0000000040269bec                txbbgain2dcoindex
                0x0000000040269c0c                dcoindex2txbbgain
                0x0000000040269c30                init_cal_dcoffset
                0x0000000040269cf4                set_rfanagain_dc_reg
                0x0000000040269d90                set_txdc_pbus
                0x0000000040269dfc                get_rf_gain_qdb
                0x0000000040269e24                correct_rf_ana_gain
                0x0000000040269f2c                get_sar_dout
                0x0000000040269fc0                cal_rf_ana_gain
                0x000000004026a0d8                meas_tone_pwr_db
                0x000000004026a148                tx_pwr_backoff
                0x000000004026a2fc                get_fcc_1m2m_pwr_offset
                0x000000004026a338                ram_set_txbb_atten
                0x000000004026a3cc                txiq_get_mis_pwr
                0x000000004026a470                txiq_cover
                0x000000004026a690                ram_rfcal_txiq
                0x000000004026a8fc                rc_cal
                0x000000004026aabc                get_target_power_offset
                0x000000004026abc4                get_pwctrl_correct
                0x000000004026ac24                tx_pwctrl_cal
                0x000000004026af20                tx_pwctrl_bg_init
                0x000000004026af9c                tx_pwctrl_background
                0x000000004026b054                read_sar_dout
                0x000000004026b0b8                ram_get_fm_sar_dout
                0x000000004026b15c                ram_cal_tos_v60
                0x000000004026b32c                ram_get_bb_atten
                0x000000004026b35c                ram_rfcal_txcap
                0x000000004026b520                ram_rfcal_pwrctrl
                0x000000004026b75c                ram_rxiq_get_mis
                0x000000004026b928                ram_rxiq_cover_mg_mp
                0x000000004026bacc                ram_rfcal_rxiq
                0x000000004026bcd8                dpd_scale_set
                0x000000004026bd20                dpd_mem_write
 .irom0.text    0x000000004026bd9c     0x3e18 libphy/phy_chip_v6.o
                                       0x44fc (size before relaxing)
                0x000000004026bd9c                ram_tx_mac_enable
                0x000000004026bda0                ram_tx_mac_disable
                0x000000004026bda4                rtc_mem_backup
                0x000000004026bdd4                rtc_mem_recovery
                0x000000004026be04                set_cal_rxdc
                0x000000004026beb8                set_rx_gain_cal_iq
                0x000000004026c210                gen_rx_gain_table
                0x000000004026c368                pbus_set_rxbbgain
                0x000000004026c3e4                set_rx_gain_testchip_50
                0x000000004026c718                ram_get_corr_power
                0x000000004026c808                check_data_func
                0x000000004026c828                do_noisefloor_lsleep_v50
                0x000000004026c85c                do_noisefloor
                0x000000004026c8cc                start_dig_rx
                0x000000004026c910                stop_dig_rx
                0x000000004026c93c                chip_v6_set_chanfreq
                0x000000004026c964                tx_cap_init
                0x000000004026cb8c                target_power_add_backoff
                0x000000004026cbb4                tx_pwctrl_init_cal
                0x000000004026cd50                tx_atten_set_interp
                0x000000004026cfb0                check_tx_pwr_cal
                0x000000004026d0f4                tx_pwctrl_init
                0x000000004026d218                ram_get_noisefloor
                0x000000004026d234                get_noisefloor_sat
                0x000000004026d264                ram_set_noise_floor
                0x000000004026d2c0                ram_start_noisefloor
                0x000000004026d308                read_hw_noisefloor
                0x000000004026d330                noise_check_loop
                0x000000004026d488                noise_init
                0x000000004026d688                target_power_backoff
                0x000000004026d6dc                sdt_on_noise_start
                0x000000004026d75c                chip_v6_set_chan_rx_cmp
                0x000000004026d8e8                chip_v6_set_chan_misc
                0x000000004026d978                phy_dig_spur_set
                0x000000004026dcd0                phy_dig_spur_prot
                0x000000004026df08                chip_v6_rxmax_ext_dig
                0x000000004026df54                chip_v6_rxmax_ext
                0x000000004026dff8                phy_bb_rx_cfg
                0x000000004026e410                uart_wait_idle
                0x000000004026e448                phy_pbus_soc_cfg
                0x000000004026e500                phy_gpio_cfg
                0x000000004026e718                tx_cont_en
                0x000000004026e7c0                tx_cont_dis
                0x000000004026e814                tx_cont_cfg
                0x000000004026e834                chip_v6_initialize_bb
                0x000000004026e998                periodic_cal
                0x000000004026e9d0                bbpll_cal
                0x000000004026ea78                periodic_cal_top
                0x000000004026eadc                register_chipv6_phy_init_param
                0x000000004026ed84                change_bbpll160_sleep
                0x000000004026ef34                change_bbpll160
                0x000000004026ef6c                set_crystal_uart
                0x000000004026effc                ant_switch_init
                0x000000004026f0a8                reduce_current_init
                0x000000004026f194                rtc_mem_check
                0x000000004026f1d0                phy_afterwake_set_rfoption
                0x000000004026f1ec                deep_sleep_set_option
                0x000000004026f218                write_data_to_rtc
                0x000000004026f250                get_data_from_rtc
                0x000000004026f2d4                register_chipv6_phy
                0x000000004026f76c                set_dpd_bypass
                0x000000004026f794                set_rf_gain_stage10
                0x000000004026f7c4                get_vdd33_offset
                0x000000004026f838                get_phy_target_power
                0x000000004026f8e8                set_most_pwr_reg
                0x000000004026f9bc                phy_set_most_tpw
                0x000000004026f9dc                phy_vdd33_set_tpw
                0x000000004026f9f4                get_adc_rand
                0x000000004026fa24                phy_get_rand
                0x000000004026fa3c                phy_tx_pwctrl_cali
                0x000000004026fa64                phy_check_data_table
                0x000000004026faa0                phy_after_init_enrx
                0x000000004026fb04                phy_set_rx11b_reg
                0x000000004026fb38                phy_set_powerup_option
                0x000000004026fb48                phy_get_txpwr_param
                0x000000004026fb94                phy_get_rxnf_param
                0x000000004026fba0                phy_get_freq_param
 .irom0.text    0x000000004026fbb4       0xfa libphy/phy.o
                                        0x11e (size before relaxing)
                0x000000004026fbb8                rf_init
                0x000000004026fbd4                bb_init
                0x000000004026fbec                phy_init
                0x000000004026fc1c                RFChannelSel
                0x000000004026fc38                phy_delete_channel
                0x000000004026fc50                phy_enable_agc
                0x000000004026fc68                phy_disable_agc
                0x000000004026fc80                phy_initialize_bb
                0x000000004026fc98                phy_set_sense
 *fill*         0x000000004026fcae        0x2 
 .irom0.text    0x000000004026fcb0      0xc86 libphy/phy_sleep.o
                                        0xe9a (size before relaxing)
                0x000000004026fcb0                pm_usec2rtc
                0x000000004026fce4                pm_rtc2usec
                0x000000004026fcf0                pm_set_sleep_cycles
                0x000000004026fd18                pm_sleep_opt
                0x000000004026fe6c                pm_wakeup_opt
                0x000000004026fea4                get_chip_version
                0x000000004026fee4                pm_sleep_opt_bb_off
                0x000000004026ff30                pm_sleep_opt_bb_on
                0x000000004026ff84                pm_set_pll_xtal_wait_time
                0x000000004026ffb0                pm_prepare_to_sleep
                0x000000004026ffb8                pm_sdio_nidle
                0x000000004027002c                chg_lslp_mem_opt_8266
                0x000000004027004c                pm_wait4wakeup
                0x0000000040270088                pm_open_rf
                0x00000000402700c8                pm_sleep_set_mac
                0x000000004027014c                pm_set_wakeup_mac
                0x00000000402701e4                pm_check_mac_idle
                0x000000004027023c                pm_set_sleep_btco
                0x00000000402702dc                pm_set_wakeup_btco
                0x00000000402703f4                pm_set_sleep_mode
                0x0000000040270514                pm_unmask_bt
                0x0000000040270580                pm_wakeup_init
                0x00000000402707dc                sleep_opt_8266
                0x00000000402707fc                sleep_opt_bb_on_8266
                0x0000000040270834                sleep_reset_analog_rtcreg_8266
 *fill*         0x0000000040270936        0x2 
 .irom0.text    0x0000000040270938      0x3f1 libpp/esf_buf.o
                                        0x4c1 (size before relaxing)
                0x0000000040270940                esf_buf_alloc
                0x0000000040270b28                esf_buf_recycle
                0x0000000040270c6c                esf_buf_setup
 *fill*         0x0000000040270d29        0x3 
 .irom0.text    0x0000000040270d2c      0x48d libpp/if_hwctrl.o
                                        0x5bd (size before relaxing)
                0x0000000040270d4c                ic_get_addr
                0x0000000040270d58                ic_set_opmode
                0x0000000040270d6c                ic_enable_interface
                0x0000000040270dbc                ic_interface_enabled
                0x0000000040270dd0                ic_disable_interface
                0x0000000040270e18                ic_is_pure_sta
                0x0000000040270e34                ic_get_ptk_alg
                0x0000000040270e44                ic_get_gtk_alg
                0x0000000040270e54                ic_set_ptk_alg
                0x0000000040270e64                ic_set_gtk_alg
                0x0000000040270e74                ic_interface_is_p2p
                0x0000000040270f0c                ic_set_vif
                0x0000000040270fc8                ic_set_sta
                0x00000000402710c8                ic_bss_info_update
                0x0000000040271124                ic_set_key
                0x0000000040271180                ic_remove_key
                0x0000000040271194                ic_get_rssi
 *fill*         0x00000000402711b9        0x3 
 .irom0.text    0x00000000402711bc       0xfc libpp/lmac.o
                                        0x118 (size before relaxing)
                0x00000000402711c0                lmacInitAc
                0x00000000402711f0                lmacInit
                0x000000004027129c                lmacSetRetryLimit
 .irom0.text    0x00000000402712b8      0xb54 libpp/pm_for_bcn_only_mode.o
                                        0xee4 (size before relaxing)
                0x00000000402712cc                wifi_fpm_set_sleep_type
                0x00000000402712cc                fpm_set_type_from_upper
                0x0000000040271388                wifi_fpm_get_sleep_type
                0x0000000040271388                fpm_get_slp_type
                0x0000000040271390                fpm_rf_is_closed
                0x00000000402713a4                fpm_is_open
                0x00000000402713b0                fpm_allow_tx
                0x00000000402713dc                wifi_fpm_close
                0x00000000402713dc                fpm_close
                0x000000004027146c                wifi_fpm_open
                0x000000004027146c                fpm_open
                0x00000000402714f0                fpm_attach
                0x00000000402716b0                wifi_fpm_set_wakeup_cb
                0x00000000402716b0                fpm_set_wakeup_cb
                0x00000000402717f0                wifi_fpm_do_wakeup
                0x00000000402717f0                fpm_do_wakeup
                0x0000000040271d24                fpm_do_sleep
                0x0000000040271d24                wifi_fpm_do_sleep
                0x0000000040271dc4                fpm_auto_sleep_set_in_null_mode
                0x0000000040271dc4                wifi_fpm_auto_sleep_set_in_null_mode
                0x0000000040271e04                get_fpm_auto_sleep_flag
 .irom0.text    0x0000000040271e0c     0x1a55 libpp/pm.o
                                       0x2045 (size before relaxing)
                0x0000000040271e10                pm_set_gpio_wakeup_pin
                0x0000000040271e48                pm_clear_gpio_wakeup_pin
                0x0000000040271e58                pm_is_gpio_int_trig
                0x0000000040271e6c                pm_rtc_clock_cali_proc
                0x0000000040271ea4                pm_get_ck170_period
                0x0000000040271ec8                pm_set_sleep_time
                0x0000000040272228                pm_rf_is_closed
                0x0000000040272254                pm_set_sleep_type_from_upper
                0x0000000040272344                pm_get_sleep_type
                0x0000000040272500                uart_tx_flush
                0x0000000040272504                pm_suspend
                0x0000000040272714                pm_shutdown
                0x00000000402727f4                pm_reset_idle_sleep
                0x0000000040272834                pm_idle_sleep
                0x0000000040272844                pm_open
                0x0000000040272948                pm_onBcnRx
                0x0000000040272cd8                StopLightSleepSetFunc
                0x0000000040272ce0                LightSleepWakedCbSetFunc
                0x00000000402732a4                pm_enable_gpio_wakeup
                0x00000000402732e0                pm_attach
                0x00000000402733cc                pm_send_nullfunc
                0x0000000040273570                pm_is_waked
                0x0000000040273588                pm_is_open
                0x00000000402735a0                pm_scan_lock
                0x00000000402735c8                pm_try_scan_unlock
                0x00000000402735e0                pm_force_scan_unlock
                0x0000000040273684                pm_scan_unlocked
                0x0000000040273698                pm_allow_tx
                0x00000000402736b4                pm_assoc_parse
                0x00000000402736cc                pm_set_addr
                0x00000000402736ec                pm_sleep_for
                0x000000004027371c                pm_post
                0x0000000040273820                pm_get_idle_wait_time
 *fill*         0x0000000040273861        0x3 
 .irom0.text    0x0000000040273864     0x15a2 libpp/pp.o
                                       0x19a2 (size before relaxing)
                0x0000000040273870                PPWdtReset
                0x00000000402738a4                pp_soft_wdt_init
                0x00000000402738c4                system_soft_wdt_feed
                0x00000000402738c4                pp_soft_wdt_feed
                0x00000000402738e0                pp_soft_wdt_stop
                0x00000000402738e0                system_soft_wdt_stop
                0x000000004027390c                pp_soft_wdt_restart
                0x000000004027390c                system_soft_wdt_restart
                0x0000000040273940                RxNodeNum
                0x0000000040273958                TxNodeNum
                0x000000004027397c                pp_disable_noise_timer
                0x000000004027399c                pp_enable_noise_timer
                0x0000000040273aac                pp_noise_test
                0x0000000040273abc                reset_noise_timer
                0x0000000040273af4                pp_disable_idle_timer
                0x0000000040273b18                pp_enable_idle_timer
                0x0000000040273b40                pp_try_enable_idle_timer
                0x0000000040273b7c                ppPeocessRxPktHdr
                0x0000000040273eb0                HdlAllBuffedEb
                0x0000000040273f38                ppTxPkt
                0x00000000402740b0                ppProcessWaitQ
                0x00000000402740c0                ppRegisterTxCallback
                0x00000000402740e8                ppUnregisterTxCallback
                0x000000004027411c                ppRecycleRxPkt
                0x000000004027417c                ppCheckTxIdle
                0x00000000402743f4                pp_tx_idle_timeout
                0x00000000402745b4                DefFreqCalTimerCB
                0x0000000040274928                ppGetTxQFirstAvail_Locked
                0x0000000040274a04                pp_attach
 *fill*         0x0000000040274e06        0x2 
 .irom0.text    0x0000000040274e08      0x292 libpp/rate_control.o
                                        0x2a2 (size before relaxing)
                0x0000000040275050                RC_SetBasicRate
 *fill*         0x000000004027509a        0x2 
 .irom0.text    0x000000004027509c      0x5e9 libpp/trc.o
                                        0x64d (size before relaxing)
                0x000000004027509c                phytype2mode
                0x00000000402750b8                rc_set_rate_limit_id
                0x00000000402751d4                rcUpdatePhyMode
                0x00000000402753a0                rcAttach
                0x00000000402753ec                rcGetTrc
                0x00000000402753f4                trc_onDisconnect
                0x00000000402753f8                trc_onScanStart
                0x000000004027540c                trc_onScanDone
                0x0000000040275428                rc_enable_trc
                0x0000000040275500                rc_get_mask
                0x0000000040275514                rc_disable_trc
                0x0000000040275568                rc_disable_trc_by_interface
                0x0000000040275584                rc_get_sta_trc
                0x00000000402755c8                rc_get_trc
                0x0000000040275638                rc_get_trc_by_index
                0x0000000040275658                rc_only_sta_trc
 *fill*         0x0000000040275685        0x3 
 .irom0.text    0x0000000040275688      0xbcb libpp/wdev.o
                                        0xd43 (size before relaxing)
                0x0000000040275694                wDev_Option_Init
                0x0000000040275788                wDev_Enable_Beacon_Tsf
                0x00000000402757a4                wDev_Disable_Beacon_Tsf
                0x00000000402757c0                wDev_Set_Beacon_Int
                0x00000000402757c8                wDev_Reset_TBTT
                0x00000000402757f8                wDev_Get_Next_TBTT
                0x0000000040275a74                wDev_Initialize
                0x0000000040275ae4                wDevForceAck6M
                0x0000000040275b00                wDev_SetMacAddress
                0x0000000040275b9c                wDev_SetRxPolicy
                0x0000000040275bf0                wDev_EnableUcRx
                0x0000000040275c1c                wDev_DisableUcRx
                0x0000000040275c48                wDev_SetBssid
                0x0000000040275d20                wDev_ClearBssid
                0x0000000040275d54                wDev_Is_Mac_Key_Exist
                0x0000000040275de0                wDev_Insert_KeyEntry
                0x0000000040275ed0                wDev_remove_KeyEntry
                0x0000000040275f0c                wDev_remove_KeyEntry_all_cnx
                0x0000000040275f54                wDev_Crypto_Conf
                0x0000000040275ff0                wDev_Crypto_Disable
                0x0000000040276028                wDevEnableRx
                0x0000000040276050                wdev_go_sniffer
                0x000000004027612c                wdev_set_sniffer_addr
                0x0000000040276184                wdev_exit_sniffer
 *fill*         0x0000000040276253        0x1 
 .irom0.text    0x0000000040276254      0x729 libpwm/pwm.o
                                        0x82d (size before relaxing)
                0x000000004027636c                pwm_start
                0x00000000402767cc                pwm_set_duty
                0x00000000402767e0                pwm_set_period
                0x0000000040276840                pwm_get_duty
                0x000000004027684c                pwm_get_period
                0x0000000040276860                pwm_init
                0x0000000040276960                get_pwm_version
                0x0000000040276968                get_pwm_date
                0x0000000040276970                set_pwm_debug_en
 *fill*         0x000000004027697d        0x3 
 .irom0.text    0x0000000040276980     0x1af4 libsmartconfig/sc_airkiss.o
                                       0x1ed4 (size before relaxing)
                0x0000000040276994                KISS_Init_guide_glob
                0x00000000402769e4                KISS_Free_guide_glob
                0x0000000040276a14                KISS_Init_Glob_Trans
                0x0000000040276a70                KISS_Init_Glob_Diret
                0x0000000040276ac4                KISS_Free_Glob_Trans
                0x0000000040276aec                KISS_Free_Glob_Diret
                0x0000000040276bac                KISS_Find_channel_end
                0x0000000040276d80                KISS_Find_channel_trans
                0x000000004027716c                KISS_Find_channel_direct
                0x0000000040277500                KISS_Find_channel
                0x0000000040278234                KISS_Deal_with
 .irom0.text    0x0000000040278474     0x24a6 libsmartconfig/sc_esptouch.o
                                       0x29e2 (size before relaxing)
                0x00000000402784d4                TOUCH_Init_guide_glob
                0x000000004027856c                TOUCH_Free_guide_glob
                0x00000000402785c4                TOUCH_Init_glob
                0x0000000040278624                TOUCH_Free_glob
                0x00000000402788b8                TOUCH_Find_sync_ht20
                0x0000000040279a48                TOUCH_Find_sync_ht40
                0x000000004027a640                TOUCH_Deal_with
 *fill*         0x000000004027a91a        0x2 
 .irom0.text    0x000000004027a91c      0x91c libsmartconfig/sc_sniffer.o
                                        0xbe0 (size before relaxing)
                0x000000004027a928                sc_init_snif_glob
                0x000000004027a970                sc_free_snif_glob
                0x000000004027a9b0                sc_smartconfig_restart
                0x000000004027a9d8                sc_channel_timer_cb
                0x000000004027aae0                sc_PackCallback
                0x000000004027abb8                sc_wifi_scan_done
                0x000000004027ae24                sc_system_init_done
                0x000000004027ae6c                smartconfig_start
                0x000000004027af58                smartconfig_stop
                0x000000004027b0fc                smartconfig_get_status
                0x000000004027b1ac                smartconfig_get_version
                0x000000004027b1b8                esptouch_set_timeout
                0x000000004027b1f8                smartconfig_set_type
 .irom0.text    0x000000004027b238      0x379 libssl/espconn_secure.o
                                        0x42d (size before relaxing)
                0x000000004027b238                espconn_secure_connect
                0x000000004027b314                espconn_secure_disconnect
                0x000000004027b33c                espconn_secure_send
                0x000000004027b33c                espconn_secure_sent
                0x000000004027b388                espconn_secure_accept
                0x000000004027b3a8                espconn_secure_set_size
                0x000000004027b3dc                espconn_secure_get_size
                0x000000004027b414                espconn_secure_ca_enable
                0x000000004027b448                espconn_secure_ca_disable
                0x000000004027b470                espconn_secure_cert_req_enable
                0x000000004027b4a4                espconn_secure_cert_req_disable
                0x000000004027b4d4                espconn_secure_set_default_certificate
                0x000000004027b51c                espconn_secure_set_default_private_key
                0x000000004027b564                espconn_secure_delete
 *fill*         0x000000004027b5b1        0x3 
 .irom0.text    0x000000004027b5b4     0x14b8 libssl/espconn_ssl.o
                                       0x190c (size before relaxing)
                0x000000004027b750                espconn_ssl_read
                0x000000004027b8b0                espconn_ssl_read_param_from_flash
                0x000000004027bba8                espconn_ssl_sent
                0x000000004027bbfc                espconn_sent_packet
                0x000000004027c22c                espconn_ssl_disconnect
                0x000000004027c254                espconn_ssl_client
                0x000000004027c90c                espconn_ssl_server
                0x000000004027c9d0                espconn_ssl_delete
 .irom0.text    0x000000004027ca6c     0x292e libssl/sha256.o
                                       0x293a (size before relaxing)
                0x000000004027ca8c                SHA256_Init
                0x000000004027f19c                SHA256_Update
                0x000000004027f23c                SHA256_Final
 *fill*         0x000000004027f39a        0x2 
 .irom0.text    0x000000004027f39c       0xe2 libssl/sha384.o
                                         0xee (size before relaxing)
                0x000000004027f3dc                SHA384_Init
                0x000000004027f43c                SHA384_Update
                0x000000004027f450                SHA384_Final
 *fill*         0x000000004027f47e        0x2 
 .irom0.text    0x000000004027f480      0x592 libssl/sha512.o
                                        0x5c2 (size before relaxing)
                0x000000004027f4a0                SHA512_Init
                0x000000004027f89c                SHA512_Update
                0x000000004027f91c                SHA512_Final
 *fill*         0x000000004027fa12        0x2 
 .irom0.text    0x000000004027fa14      0x8e5 libssl/ssl_aes.o
                                        0x925 (size before relaxing)
                0x000000004027fa34                AES_set_key
                0x000000004027fbb0                AES_convert_key
                0x000000004027fc5c                AES_cbc_encrypt
                0x000000004027fdcc                AES_cbc_decrypt
 *fill*         0x00000000402802f9        0x3 
 .irom0.text    0x00000000402802fc      0xa97 libssl/ssl_asn1.o
                                        0xb4f (size before relaxing)
                0x00000000402802fc                get_asn1_length
                0x0000000040280344                asn1_next_obj
                0x0000000040280368                asn1_skip_obj
                0x00000000402803a4                asn1_get_int
                0x0000000040280408                asn1_get_private_key
                0x00000000402807b0                asn1_version
                0x00000000402807d0                asn1_validity
                0x0000000040280944                asn1_name
                0x00000000402809f0                asn1_public_key
                0x0000000040280a8c                asn1_signature
                0x0000000040280b20                remove_ca_certs
                0x0000000040280b70                asn1_compare_dn
                0x0000000040280bb4                asn1_find_oid
                0x0000000040280c48                asn1_find_subjectaltname
                0x0000000040280c8c                asn1_signature_type
 *fill*         0x0000000040280d93        0x1 
 .irom0.text    0x0000000040280d94     0x1357 libssl/ssl_bigint.o
                                       0x1403 (size before relaxing)
                0x0000000040280d98                bi_initialize
                0x0000000040280de8                bi_terminate
                0x0000000040280e20                bi_clear_cache
                0x0000000040280e70                bi_copy
                0x0000000040280e94                bi_permanent
                0x0000000040280eb4                bi_depermanent
                0x0000000040280ed8                bi_free
                0x0000000040280f14                int_to_bi
                0x0000000040280f30                bi_clone
                0x0000000040280f68                bi_add
                0x0000000040280fe8                bi_subtract
                0x0000000040281104                bi_divide
                0x0000000040281514                bi_import
                0x0000000040281590                bi_str_import
                0x000000004028161c                bi_print
                0x0000000040281694                bi_export
                0x0000000040281714                bi_set_mod
                0x0000000040281794                bi_free_mod
                0x00000000402818fc                bi_multiply
                0x0000000040281ab8                bi_square
                0x0000000040281ad8                bi_compare
                0x0000000040281d04                bi_barrett
                0x0000000040281e68                bi_mod_power
                0x0000000040281fc8                bi_mod_power2
                0x0000000040282064                bi_crt
 *fill*         0x00000000402820eb        0x1 
 .irom0.text    0x00000000402820ec      0x1a2 libssl/ssl_crypto_misc.o
                                        0x1c2 (size before relaxing)
                0x00000000402820f0                get_file
                0x000000004028216c                RNG_initialize
                0x0000000040282170                RNG_custom_init
                0x0000000040282174                RNG_terminate
                0x0000000040282178                get_random
                0x0000000040282194                get_random_NZ
                0x00000000402821e0                print_blob
                0x00000000402821ec                base64_decode
 *fill*         0x000000004028228e        0x2 
 .irom0.text    0x0000000040282290      0x1c2 libssl/ssl_hmac.o
                                        0x252 (size before relaxing)
                0x0000000040282290                ssl_hmac_md5
                0x0000000040282374                ssl_hmac_sha1
 *fill*         0x0000000040282452        0x2 
 .irom0.text    0x0000000040282454      0x57f libssl/ssl_loader.o
                                        0x687 (size before relaxing)
                0x0000000040282460                ssl_obj_load
                0x00000000402824f0                ssl_obj_memory_load
                0x0000000040282590                ssl_obj_free
                0x0000000040282940                load_key_certs
 *fill*         0x00000000402829d3        0x1 
 .irom0.text    0x00000000402829d4      0x9f2 libssl/ssl_md5.o
                                        0x9fa (size before relaxing)
                0x00000000402829e4                MD5_Init
                0x0000000040282a00                MD5_Update
                0x0000000040282aa4                MD5_Final
 *fill*         0x00000000402833c6        0x2 
 .irom0.text    0x00000000402833c8      0x3ad libssl/ssl_rsa.o
                                        0x4e5 (size before relaxing)
                0x00000000402833c8                RSA_priv_key_new
                0x0000000040283454                RSA_pub_key_new
                0x00000000402834c0                RSA_free
                0x0000000040283544                RSA_decrypt
                0x0000000040283648                RSA_private
                0x0000000040283678                RSA_print
                0x00000000402836a8                RSA_public
                0x00000000402836c8                RSA_encrypt
 *fill*         0x0000000040283775        0x3 
 .irom0.text    0x0000000040283778      0x350 libssl/ssl_sha1.o
                                        0x368 (size before relaxing)
                0x000000004028377c                SHA1_Init
                0x00000000402837a0                SHA1_Update
                0x00000000402837f4                SHA1_Final
 .irom0.text    0x0000000040283ac8      0x469 libssl/ssl_tls1_clnt.o
                                        0x4e9 (size before relaxing)
                0x0000000040283ac8                SSLClient_new
                0x0000000040283b38                do_clnt_handshake
                0x0000000040283c0c                do_client_connect
 *fill*         0x0000000040283f31        0x3 
 .irom0.text    0x0000000040283f34     0x19ab libssl/ssl_tls1.o
                                       0x1c8f (size before relaxing)
                0x0000000040283f38                ssl_ctx_new
                0x0000000040283fa0                ssl_ctx_free
                0x0000000040284038                ssl_free
                0x00000000402840a0                ssl_read
                0x00000000402840dc                ssl_write
                0x000000004028412c                add_cert
                0x00000000402841d4                add_cert_auth
                0x0000000040284254                ssl_get_cert_dn
                0x0000000040284288                ssl_get_cert_subject_alt_dnsname
                0x00000000402842b4                ssl_renegotiate
                0x0000000040284310                ssl_new_context
                0x0000000040284398                add_private_key
                0x0000000040284524                add_packet
                0x0000000040284740                generate_master_secret
                0x0000000040284804                finished_digest
                0x00000000402849f4                send_packet
                0x0000000040284cec                basic_read
                0x0000000040284f94                send_change_cipher_spec
                0x0000000040284ff0                send_finished
                0x0000000040285054                send_alert
                0x000000004028510c                process_finished
                0x0000000040285184                send_certificate
                0x000000004028522c                disposable_new
                0x0000000040285260                disposable_free
                0x00000000402852a4                ssl_session_update
                0x00000000402853c0                kill_ssl_session
                0x00000000402853e8                ssl_get_session_id
                0x00000000402853f0                ssl_get_session_id_size
                0x00000000402853f8                ssl_get_cipher_id
                0x0000000040285400                ssl_handshake_status
                0x0000000040285408                ssl_get_config
                0x0000000040285424                ssl_verify_cert
                0x0000000040285444                process_certificate
                0x0000000040285530                DISPLAY_STATE
                0x00000000402855b0                DISPLAY_RSA
                0x00000000402855cc                DISPLAY_BYTES
                0x0000000040285620                ssl_display_error
                0x00000000402857ec                DISPLAY_ALERT
                0x00000000402858d8                ssl_version
 *fill*         0x00000000402858df        0x1 
 .irom0.text    0x00000000402858e0      0x464 libssl/ssl_tls1_svr.o
                                        0x4e4 (size before relaxing)
                0x00000000402858e0                sslserver_new
                0x00000000402858f8                do_svr_handshake
 .irom0.text    0x0000000040285d44      0x7fa libssl/ssl_x509.o
                                        0x9b6 (size before relaxing)
                0x0000000040285da0                x509_new
                0x0000000040286180                x509_free
                0x000000004028630c                x509_verify
                0x000000004028648c                x509_print
                0x00000000402864d0                x509_display_error
 *fill*         0x000000004028653e        0x2 
 .irom0.text    0x0000000040286540      0x291 libwpa2/asn1.o
                                        0x29d (size before relaxing)
                0x0000000040286540                asn1_get_next
                0x00000000402865f8                asn1_parse_oid
                0x000000004028668c                asn1_get_oid
                0x00000000402866d4                asn1_oid_to_str
                0x0000000040286770                asn1_bit_string_to_long
 *fill*         0x00000000402867d1        0x3 
 .irom0.text    0x00000000402867d4      0x26e libwpa2/base64.o
                                        0x292 (size before relaxing)
                0x00000000402867dc                _base64_encode
                0x000000004028691c                _base64_decode
 *fill*         0x0000000040286a42        0x2 
 .irom0.text    0x0000000040286a44     0x1968 libwpa2/bignum.o
                                       0x1a04 (size before relaxing)
                0x0000000040288248                bignum_init
                0x0000000040288284                bignum_deinit
                0x00000000402882a8                bignum_get_unsigned_bin_len
                0x00000000402882b8                bignum_get_unsigned_bin
                0x00000000402882fc                bignum_set_unsigned_bin
                0x0000000040288314                bignum_cmp
                0x0000000040288324                bignum_cmp_d
                0x0000000040288334                bignum_add
                0x000000004028834c                bignum_sub
                0x0000000040288364                bignum_mul
                0x000000004028837c                bignum_mulmod
                0x0000000040288394                bignum_exptmod
 .irom0.text    0x00000000402883ac      0x238 libwpa2/eap_common.o
                                        0x264 (size before relaxing)
                0x00000000402883c0                eap_hdr_len_valid
                0x000000004028841c                eap_hdr_validate
                0x00000000402884d8                eap_msg_alloc
                0x000000004028858c                eap_update_len
                0x00000000402885ac                eap_get_id
                0x00000000402885c8                eap_get_type
 .irom0.text    0x00000000402885e4      0xa01 libwpa2/eap_mschapv2.o
                                        0xc01 (size before relaxing)
                0x0000000040288f90                eap_peer_mschapv2_register
 *fill*         0x0000000040288fe5        0x3 
 .irom0.text    0x0000000040288fe8     0x108c libwpa2/eap.o
                                       0x1330 (size before relaxing)
                0x0000000040289038                eap_peer_get_eap_method
                0x0000000040289058                eap_peer_get_methods
                0x0000000040289078                eap_peer_get_type
                0x00000000402890dc                eap_get_phase2_type
                0x0000000040289110                eap_get_phase2_types
                0x0000000040289194                eap_peer_method_alloc
                0x00000000402891c8                eap_peer_method_free
                0x00000000402891e0                eap_peer_method_register
                0x0000000040289244                eap_peer_unregister_methods
                0x0000000040289274                eap_peer_register_methods
                0x00000000402893a8                wpa2_sm_alloc_eapol
                0x0000000040289410                eap_sm_build_identity_resp
                0x00000000402895a8                eap_sm_send_eapol
                0x00000000402895fc                eap_sm_process_request
                0x00000000402897b0                wpa2_sm_rx_eapol
                0x0000000040289c84                eap_get_config
                0x0000000040289c8c                eap_get_config_identity
                0x0000000040289cb0                eap_get_config_password
                0x0000000040289cd4                eap_get_config_password2
                0x0000000040289d04                eap_get_config_new_password
                0x0000000040289d28                eap_get_config_blob
                0x0000000040289d90                wifi_station_set_wpa2_enterprise_auth
                0x0000000040289e30                wifi_station_set_cert_key
                0x0000000040289e30                wifi_station_set_enterprise_cert_key
                0x0000000040289e54                wifi_station_clear_cert_key
                0x0000000040289e54                wifi_station_clear_enterprise_cert_key
                0x0000000040289e68                wifi_station_set_enterprise_ca_cert
                0x0000000040289e78                wifi_station_clear_enterprise_ca_cert
                0x0000000040289e84                wifi_station_set_enterprise_username
                0x0000000040289e84                wifi_station_set_username
                0x0000000040289ef4                wifi_station_clear_enterprise_username
                0x0000000040289ef4                wifi_station_clear_username
                0x0000000040289f1c                wifi_station_set_enterprise_password
                0x0000000040289f84                wifi_station_clear_enterprise_password
                0x0000000040289fac                wifi_station_set_enterprise_new_password
                0x000000004028a014                wifi_station_clear_enterprise_new_password
                0x000000004028a040                wifi_station_set_enterprise_disable_time_check
                0x000000004028a048                wifi_station_get_enterprise_disable_time_check
                0x000000004028a050                wpa2_enterprise_set_user_get_time
                0x000000004028a058                wpa2_get_time
 .irom0.text    0x000000004028a074       0xf3 libwpa2/eap_peap_common.o
                                         0xff (size before relaxing)
                0x000000004028a078                peap_prfplus
 *fill*         0x000000004028a167        0x1 
 .irom0.text    0x000000004028a168     0x1246 libwpa2/eap_peap.o
                                       0x14ae (size before relaxing)
                0x000000004028b340                eap_peer_peap_register
 *fill*         0x000000004028b3ae        0x2 
 .irom0.text    0x000000004028b3b0      0xbb5 libwpa2/eap_tls_common.o
                                        0xd3c (size before relaxing)
                0x000000004028b654                eap_peer_tls_ssl_init
                0x000000004028b6c0                eap_peer_tls_ssl_deinit
                0x000000004028b6e8                eap_peer_tls_derive_key
                0x000000004028b7c4                eap_peer_tls_derive_session_id
                0x000000004028ba88                eap_peer_tls_process_helper
                0x000000004028bb14                eap_peer_tls_build_ack
                0x000000004028bb48                eap_peer_tls_reauth_init
                0x000000004028bb74                eap_peer_tls_status
                0x000000004028bbbc                eap_peer_tls_process_init
                0x000000004028bcb8                eap_peer_tls_reset_input
                0x000000004028bcdc                eap_peer_tls_reset_output
                0x000000004028bd00                eap_peer_tls_decrypt
                0x000000004028bd4c                eap_peer_tls_encrypt
                0x000000004028bda4                eap_peer_select_phase2_methods
                0x000000004028bef4                eap_peer_tls_phase2_nak
 *fill*         0x000000004028bf65        0x3 
 .irom0.text    0x000000004028bf68      0x2d5 libwpa2/eap_tls.o
                                        0x369 (size before relaxing)
                0x000000004028c1e8                eap_peer_tls_register
 *fill*         0x000000004028c23d        0x3 
 .irom0.text    0x000000004028c240     0x1002 libwpa2/eap_ttls.o
                                       0x1272 (size before relaxing)
                0x000000004028d1d4                eap_peer_ttls_register
 *fill*         0x000000004028d242        0x2 
 .irom0.text    0x000000004028d244      0x121 libwpa2/ext_password.o
                                        0x14d (size before relaxing)
                0x000000004028d24c                ext_password_init
                0x000000004028d2d0                ext_password_deinit
                0x000000004028d300                ext_password_get
                0x000000004028d31c                ext_password_alloc
                0x000000004028d338                ext_password_free
 *fill*         0x000000004028d365        0x3 
 .irom0.text    0x000000004028d368      0x156 libwpa2/mschapv2.o
                                        0x192 (size before relaxing)
                0x000000004028d368                mschapv2_remove_domain
                0x000000004028d390                mschapv2_derive_response
                0x000000004028d478                mschapv2_verify_auth_response
 *fill*         0x000000004028d4be        0x2 
 .irom0.text    0x000000004028d4c0      0x226 libwpa2/pkcs1.o
                                        0x24a (size before relaxing)
                0x000000004028d564                pkcs1_encrypt
                0x000000004028d5c0                pkcs1_v15_private_key_decrypt
                0x000000004028d630                pkcs1_decrypt_public_key
 *fill*         0x000000004028d6e6        0x2 
 .irom0.text    0x000000004028d6e8      0x2ad libwpa2/pkcs5.o
                                        0x319 (size before relaxing)
                0x000000004028d8b8                pkcs5_decrypt
 *fill*         0x000000004028d995        0x3 
 .irom0.text    0x000000004028d998      0x1ba libwpa2/pkcs8.o
                                        0x232 (size before relaxing)
                0x000000004028d998                pkcs8_key_import
                0x000000004028dabc                pkcs8_enc_key_import
 *fill*         0x000000004028db52        0x2 
 .irom0.text    0x000000004028db54      0x3c3 libwpa2/rsa.o
                                        0x51b (size before relaxing)
                0x000000004028db98                crypto_rsa_import_public_key
                0x000000004028dc1c                crypto_rsa_import_private_key
                0x000000004028dd34                crypto_rsa_get_modulus_len
                0x000000004028dd50                crypto_rsa_exptmod
                0x000000004028decc                crypto_rsa_free
 *fill*         0x000000004028df17        0x1 
 .irom0.text    0x000000004028df18      0x5b2 libwpa2/tls_internal.o
                                        0x6ae (size before relaxing)
                0x000000004028df20                tls_init
                0x000000004028df5c                tls_deinit
                0x000000004028df88                tls_get_errors
                0x000000004028df8c                tls_connection_init
                0x000000004028dfd4                tls_connection_deinit
                0x000000004028e000                tls_connection_established
                0x000000004028e01c                tls_connection_shutdown
                0x000000004028e038                tls_connection_set_params
                0x000000004028e0d4                tls_global_set_params
                0x000000004028e0d8                tls_global_set_verify
                0x000000004028e0e0                tls_connection_set_verify
                0x000000004028e0e4                tls_connection_get_keys
                0x000000004028e104                tls_connection_prf
                0x000000004028e128                tls_connection_handshake
                0x000000004028e13c                tls_connection_handshake2
                0x000000004028e1e8                tls_connection_server_handshake
                0x000000004028e1ec                tls_connection_encrypt
                0x000000004028e24c                tls_connection_decrypt
                0x000000004028e260                tls_connection_decrypt2
                0x000000004028e28c                tls_connection_resumed
                0x000000004028e2a8                tls_connection_set_cipher_list
                0x000000004028e2c8                tls_get_cipher
                0x000000004028e2ec                tls_connection_enable_workaround
                0x000000004028e2f0                tls_connection_client_hello_ext
                0x000000004028e314                tls_connection_get_failed
                0x000000004028e318                tls_connection_get_read_alerts
                0x000000004028e31c                tls_connection_get_write_alerts
                0x000000004028e320                tls_connection_get_keyblock_size
                0x000000004028e33c                tls_capabilities
                0x000000004028e340                tls_connection_set_session_ticket_cb
                0x000000004028e36c                tls_prf_sha1_md5
 *fill*         0x000000004028e4ca        0x2 
 .irom0.text    0x000000004028e4cc      0xa2c libwpa2/tlsv1_client.o
                                        0xbdc (size before relaxing)
                0x000000004028e4f8                tls_alert
                0x000000004028e508                tlsv1_client_free_dh
                0x000000004028e550                tls_derive_pre_master_secret
                0x000000004028e584                tls_derive_keys
                0x000000004028e6e0                tlsv1_client_handshake
                0x000000004028e900                tlsv1_client_encrypt
                0x000000004028e93c                tlsv1_client_decrypt
                0x000000004028ea84                tlsv1_client_global_init
                0x000000004028ea98                tlsv1_client_global_deinit
                0x000000004028eaac                tlsv1_client_init
                0x000000004028eb28                tlsv1_client_deinit
                0x000000004028eb90                tlsv1_client_established
                0x000000004028eba0                tlsv1_client_prf
                0x000000004028ec68                tlsv1_client_get_cipher
                0x000000004028ecf4                tlsv1_client_shutdown
                0x000000004028ed5c                tlsv1_client_resumed
                0x000000004028ed64                tlsv1_client_hello_ext
                0x000000004028ee0c                tlsv1_client_get_keys
                0x000000004028ee58                tlsv1_client_get_keyblock_size
                0x000000004028ee78                tlsv1_client_set_cipher_list
                0x000000004028eeb0                tlsv1_client_set_cred
                0x000000004028eed4                tlsv1_client_set_time_checks
                0x000000004028eef0                tlsv1_client_set_session_ticket_cb
 .irom0.text    0x000000004028eef8      0xb90 libwpa2/tlsv1_client_read.o
                                        0xd4c (size before relaxing)
                0x000000004028f934                tlsv1_client_process_handshake
 .irom0.text    0x000000004028fa88      0xba5 libwpa2/tlsv1_client_write.o
                                        0xdad (size before relaxing)
                0x000000004028fae0                tls_send_client_hello
                0x0000000040290580                tlsv1_client_handshake_write
                0x00000000402905c4                tlsv1_client_send_alert
 *fill*         0x000000004029062d        0x3 
 .irom0.text    0x0000000040290630      0x262 libwpa2/tlsv1_common.o
                                        0x2fa (size before relaxing)
                0x0000000040290634                tls_get_cipher_suite
                0x0000000040290658                tls_get_cipher_data
                0x0000000040290674                tls_server_key_exchange_allowed
                0x000000004029069c                tls_parse_cert
                0x00000000402906e8                tls_verify_hash_init
                0x0000000040290764                tls_verify_hash_add
                0x00000000402907c8                tls_verify_hash_free
                0x0000000040290820                tls_version_ok
                0x0000000040290844                tls_version_str
                0x0000000040290870                tls_prf
 *fill*         0x0000000040290892        0x2 
 .irom0.text    0x0000000040290894      0x60b libwpa2/tlsv1_cred.o
                                        0x717 (size before relaxing)
                0x0000000040290898                tlsv1_cred_alloc
                0x00000000402908b4                tlsv1_cred_free
                0x0000000040290ac8                tlsv1_set_ca_cert
                0x0000000040290ae8                tlsv1_set_cert
                0x0000000040290c8c                tlsv1_set_private_key
                0x0000000040290e60                tlsv1_set_dhparams
 *fill*         0x0000000040290e9f        0x1 
 .irom0.text    0x0000000040290ea0      0x4a0 libwpa2/tlsv1_record.o
                                        0x534 (size before relaxing)
                0x0000000040290ea0                tlsv1_record_set_cipher_suite
                0x0000000040290f0c                tlsv1_record_change_write_cipher
                0x0000000040290f64                tlsv1_record_change_read_cipher
                0x0000000040290fbc                tlsv1_record_send
                0x0000000040291150                tlsv1_record_receive
 .irom0.text    0x0000000040291340      0x6fc libwpa2/tlsv1_server.o
                                        0x7dc (size before relaxing)
                0x0000000040291340                tlsv1_server_alert
                0x0000000040291354                tlsv1_server_derive_keys
                0x0000000040291494                tlsv1_server_handshake
                0x00000000402915d8                tlsv1_server_encrypt
                0x0000000040291614                tlsv1_server_decrypt
                0x00000000402916ec                tlsv1_server_global_init
                0x0000000040291700                tlsv1_server_global_deinit
                0x0000000040291714                tlsv1_server_init
                0x00000000402917f4                tlsv1_server_deinit
                0x0000000040291818                tlsv1_server_established
                0x0000000040291828                tlsv1_server_prf
                0x00000000402918e4                tlsv1_server_get_cipher
                0x0000000040291948                tlsv1_server_shutdown
                0x000000004029197c                tlsv1_server_resumed
                0x0000000040291980                tlsv1_server_get_keys
                0x00000000402919cc                tlsv1_server_get_keyblock_size
                0x00000000402919ec                tlsv1_server_set_cipher_list
                0x0000000040291a2c                tlsv1_server_set_verify
                0x0000000040291a34                tlsv1_server_set_session_ticket_cb
 .irom0.text    0x0000000040291a3c      0xc76 libwpa2/tlsv1_server_read.o
                                        0xea2 (size before relaxing)
                0x0000000040292600                tlsv1_server_process_handshake
 *fill*         0x00000000402926b2        0x2 
 .irom0.text    0x00000000402926b4      0xa29 libwpa2/tlsv1_server_write.o
                                        0xbd1 (size before relaxing)
                0x0000000040293050                tlsv1_server_handshake_write
                0x0000000040293074                tlsv1_server_send_alert
 *fill*         0x00000000402930dd        0x3 
 .irom0.text    0x00000000402930e0     0x167f libwpa2/x509v3.o
                                       0x18e3 (size before relaxing)
                0x0000000040293198                x509_certificate_free
                0x00000000402931e4                x509_certificate_chain_free
                0x0000000040293334                x509_name_compare
                0x00000000402937bc                x509_name_string
                0x00000000402941c4                x509_certificate_parse
                0x0000000040294324                x509_certificate_check_signature
                0x00000000402945c4                x509_certificate_chain_validate
                0x0000000040294708                x509_certificate_get_subject
                0x000000004029473c                x509_certificate_self_signed
 *fill*         0x000000004029475f        0x1 
 .irom0.text    0x0000000040294760      0x2ae libwpa/ap_config.o
                                        0x2ee (size before relaxing)
                0x0000000040294768                hostapd_config_defaults_bss
                0x00000000402947b4                hostapd_config_defaults
                0x0000000040294838                hostapd_mac_comp
                0x000000004029484c                hostapd_mac_comp_empty
                0x00000000402948b8                hostapd_setup_wpa_psk
                0x00000000402948e8                hostapd_wep_key_cmp
                0x0000000040294938                hostapd_maclist_found
                0x00000000402949a0                hostapd_rate_found
                0x00000000402949bc                hostapd_get_psk
 *fill*         0x0000000040294a0e        0x2 
 .irom0.text    0x0000000040294a10      0x2b6 libwpa/common.o
                                        0x302 (size before relaxing)
                0x0000000040294a10                inc_byte_array
                0x0000000040294a64                hex2byte
                0x0000000040294a98                hexstr2bin
                0x0000000040294ae4                wpa_get_ntp_timestamp
                0x0000000040294b7c                wpa_config_parse_string
                0x0000000040294c80                dup_binstr
 *fill*         0x0000000040294cc6        0x2 
 .irom0.text    0x0000000040294cc8       0xcc libwpa/os_xtensa.o
                                         0xdc (size before relaxing)
                0x0000000040294ccc                ets_strdup
                0x0000000040294d10                os_get_time
                0x0000000040294d14                r_rand
                0x0000000040294d28                os_random
                0x0000000040294d38                os_get_random
 .irom0.text    0x0000000040294d94      0x586 libwpa/wpa_auth_ie.o
                                        0x5f6 (size before relaxing)
                0x0000000040294e58                wpa_write_rsn_ie
                0x0000000040294f64                wpa_auth_gen_wpa_ie
                0x0000000040294ff4                wpa_add_kde
                0x0000000040295060                wpa_validate_wpa_ie
                0x0000000040295270                wpa_parse_kde_ies
                0x000000004029530c                wpa_auth_uses_mfp
 *fill*         0x000000004029531a        0x2 
 .irom0.text    0x000000004029531c     0x1c86 libwpa/wpa_auth.o
                                       0x1f66 (size before relaxing)
                0x0000000040295464                wpa_auth_for_each_sta
                0x00000000402955e4                wpa_init
                0x0000000040295674                wpa_auth_sta_init
                0x00000000402956bc                wpa_auth_sta_associated
                0x0000000040295728                wpa_auth_sta_no_wpa
                0x0000000040295784                wpa_auth_sta_deinit
                0x0000000040295858                wpa_receive
                0x0000000040295cbc                __wpa_send_eapol
                0x00000000402961e0                wpa_remove_ptk
                0x000000004029622c                wpa_auth_sm_event
 *fill*         0x0000000040296fa2        0x2 
 .irom0.text    0x0000000040296fa4      0x308 libwpa/wpabuf.o
                                        0x350 (size before relaxing)
                0x0000000040296fc8                wpabuf_resize
                0x0000000040297060                wpabuf_alloc
                0x000000004029708c                wpabuf_alloc_ext_data
                0x00000000402970c0                wpabuf_alloc_copy
                0x00000000402970f0                wpabuf_dup
                0x0000000040297120                wpabuf_free
                0x0000000040297154                wpabuf_put
                0x0000000040297194                wpabuf_concat
                0x00000000402971ec                wpabuf_zeropad
                0x0000000040297248                wpabuf_printf
 .irom0.text    0x00000000402972ac      0x75e libwpa/wpa_common.o
                                        0x7fa (size before relaxing)
                0x00000000402973f4                wpa_parse_wpa_ie_rsn
                0x0000000040297588                wpa_parse_wpa_ie_wpa
                0x0000000040297710                wpa_eapol_key_mic
                0x0000000040297750                wpa_compare_rsn_ie
                0x0000000040297778                wpa_pmk_to_ptk
                0x0000000040297864                rsn_pmkid
                0x00000000402978c0                wpa_cipher_key_len
                0x00000000402978e4                wpa_cipher_to_alg
                0x000000004029790c                wpa_cipher_to_suite
                0x0000000040297960                rsn_cipher_put_suites
                0x00000000402979c0                wpa_cipher_put_suites
 *fill*         0x0000000040297a0a        0x2 
 .irom0.text    0x0000000040297a0c       0xa8 libwpa/wpa_debug.o
                                         0xac (size before relaxing)
                0x0000000040297a84                wpa_snprintf_hex_uppercase
                0x0000000040297a98                wpa_snprintf_hex
                0x0000000040297aac                eloop_cancel_timeout
                0x0000000040297ab0                eloop_register_timeout
 .irom0.text    0x0000000040297ab4      0x325 libwpa/wpa_ie.o
                                        0x341 (size before relaxing)
                0x0000000040297ab4                wpa_parse_wpa_ie
                0x0000000040297ba8                wpa_supplicant_parse_ies
                0x0000000040297da8                wpa_gen_wpa_ie
 *fill*         0x0000000040297dd9        0x3 
 .irom0.text    0x0000000040297ddc      0x454 libwpa/wpa_main.o
                                        0x538 (size before relaxing)
                0x0000000040297de8                ppInstallKey
                0x0000000040297f78                wpa_config_profile
                0x0000000040297fac                wpa_config_bss
                0x0000000040297fdc                wpa_config_assoc_ie
                0x0000000040297ff0                dhcp_bind_check
                0x0000000040298050                eagle_auth_done
                0x00000000402981d0                wpa_neg_complete
                0x00000000402981f8                wpa_attach
 .irom0.text    0x0000000040298230     0x14e4 libwpa/wpa.o
                                       0x1708 (size before relaxing)
                0x00000000402991bc                wpa_sm_rx_eapol
                0x0000000040299334                wpa_register
                0x0000000040299360                wpa_set_profile
                0x0000000040299378                wpa_set_pmk
                0x00000000402993a4                wpa_set_bss
                0x00000000402995bc                pp_michael_mic_failure
                0x0000000040299660                eapol_txcb
                0x00000000402996ec                wpa_sm_set_state
 .irom0.text    0x0000000040299714       0xd6 libwpa/wpas_glue.o
                                         0xe2 (size before relaxing)
                0x0000000040299784                wpa_sm_alloc_eapol
                0x00000000402997c4                wpa_sm_deauthenticate
                0x00000000402997e0                wpa_sm_mlme_setprotection
                0x00000000402997e4                wpa_sm_get_beacon_ie
                0x00000000402997e8                wpa_sm_disassociate
 *fill*         0x00000000402997ea        0x2 
 .irom0.text    0x00000000402997ec      0x111 libwps/uuid.o
                                        0x135 (size before relaxing)
                0x00000000402997ec                uuid_str2bin
                0x000000004029986c                uuid_bin2str
                0x00000000402998e8                is_nil_uuid
 *fill*         0x00000000402998fd        0x3 
 .irom0.text    0x0000000040299900      0x798 libwps/wps_attr_build.o
                                        0x958 (size before relaxing)
                0x0000000040299914                wps_build_public_key
                0x0000000040299a58                wps_build_req_type
                0x0000000040299a94                wps_build_resp_type
                0x0000000040299ad0                wps_build_config_methods
                0x0000000040299b0c                wps_build_uuid_e
                0x0000000040299b48                wps_build_dev_password_id
                0x0000000040299b80                wps_build_config_error
                0x0000000040299bbc                wps_build_authenticator
                0x0000000040299c3c                wps_build_version
                0x0000000040299c78                wps_build_wfa_ext
                0x0000000040299d60                wps_build_msg_type
                0x0000000040299d9c                wps_build_enrollee_nonce
                0x0000000040299ddc                wps_build_registrar_nonce
                0x0000000040299e1c                wps_build_auth_type_flags
                0x0000000040299e54                wps_build_encr_type_flags
                0x0000000040299e8c                wps_build_conn_type_flags
                0x0000000040299ec4                wps_build_assoc_state
                0x0000000040299efc                wps_build_key_wrap_auth
                0x0000000040299f58                wps_build_encr_settings
                0x0000000040299fec                wps_ie_encapsulate
 .irom0.text    0x000000004029a098      0x56b libwps/wps_attr_parse.o
                                        0x573 (size before relaxing)
                0x000000004029a584                wps_parse_msg
 *fill*         0x000000004029a603        0x1 
 .irom0.text    0x000000004029a604      0x31d libwps/wps_attr_process.o
                                        0x33d (size before relaxing)
                0x000000004029a604                wps_process_authenticator
                0x000000004029a66c                wps_process_key_wrap_auth
                0x000000004029a804                wps_process_cred
                0x000000004029a8b0                wps_process_ap_settings
 *fill*         0x000000004029a921        0x3 
 .irom0.text    0x000000004029a924      0x855 libwps/wps_common.o
                                        0x9d4 (size before relaxing)
                0x000000004029a924                wps_kdf
                0x000000004029a9f4                wps_derive_keys
                0x000000004029aaf0                wps_derive_psk
                0x000000004029ab54                wps_decrypt_encr_settings
                0x000000004029ac00                wps_pin_checksum
                0x000000004029ac68                wps_pin_valid
                0x000000004029aca4                wps_generate_pin
                0x000000004029acdc                wps_pin_str_valid
                0x000000004029ad08                wps_fail_event
                0x000000004029ad50                wps_success_event
                0x000000004029ad6c                wps_pwd_auth_fail_event
                0x000000004029adac                wps_pbc_overlap_event
                0x000000004029adc8                wps_pbc_timeout_event
                0x000000004029ade8                wps_dev_type_str2bin
                0x000000004029ae60                wps_dev_type_bin2str
                0x000000004029aed4                uuid_gen_mac_addr
                0x000000004029af84                wps_config_methods_str2bin
                0x000000004029b0ac                wps_build_wsc_ack
                0x000000004029b10c                wps_build_wsc_nack
 *fill*         0x000000004029b179        0x3 
 .irom0.text    0x000000004029b17c      0x7ae libwps/wps_dev_attr.o
                                        0x8e6 (size before relaxing)
                0x000000004029b188                wps_build_manufacturer
                0x000000004029b1e0                wps_build_model_name
                0x000000004029b238                wps_build_model_number
                0x000000004029b2e8                wps_build_primary_dev_type
                0x000000004029b328                wps_build_secondary_dev_type
                0x000000004029b37c                wps_build_req_dev_type
                0x000000004029b3cc                wps_build_dev_name
                0x000000004029b420                wps_build_device_attrs
                0x000000004029b47c                wps_build_os_version
                0x000000004029b4dc                wps_build_vendor_ext_m1
                0x000000004029b52c                wps_build_rf_bands
                0x000000004029b570                wps_build_vendor_ext
                0x000000004029b7a4                wps_process_device_attrs
                0x000000004029b80c                wps_process_os_version
                0x000000004029b83c                wps_process_rf_bands
                0x000000004029b850                wps_device_data_dup
                0x000000004029b8c0                wps_device_data_free
 *fill*         0x000000004029b92a        0x2 
 .irom0.text    0x000000004029b92c     0x1450 libwps/wps_enrollee.o
                                       0x1868 (size before relaxing)
                0x000000004029c0c4                wps_enrollee_get_msg
                0x000000004029ccdc                wps_enrollee_process_msg
 .irom0.text    0x000000004029cd7c     0x180d libwps/wps.o
                                       0x1d91 (size before relaxing)
                0x000000004029cd7c                show_buf
                0x000000004029ce8c                wps_sm_alloc_eapol
                0x000000004029cee0                wps_init
                0x000000004029d028                wps_deinit
                0x000000004029d088                wps_process_msg
                0x000000004029d0a4                wps_get_msg
                0x000000004029d0c0                wps_is_selected_pbc_registrar
                0x000000004029d17c                wps_is_selected_pin_registrar
                0x000000004029d1a4                wps_is_addr_authorized
                0x000000004029d244                wps_ap_priority_compar
                0x000000004029d2b0                wps_get_uuid_e
                0x000000004029d2d0                wps_is_20
                0x000000004029d300                wps_build_assoc_req_ie
                0x000000004029d378                wps_build_assoc_resp_ie
                0x000000004029d3ec                wps_build_probe_req_ie
                0x000000004029d500                wps_attr_text
                0x000000004029d9a4                wps_send_eap_identity_rsp
                0x000000004029da2c                wps_process_wps_mX_req
                0x000000004029da8c                wps_send_wps_mX_rsp
                0x000000004029db60                wps_txStart
                0x000000004029dbb0                wps_start_pending
                0x000000004029dbd8                wps_sm_rx_eapol
                0x000000004029dd98                wps_dev_init
                0x000000004029df1c                wps_dev_deinit
                0x000000004029df8c                wifi_station_wps_timeout
                0x000000004029dfc4                wifi_station_wps_success
                0x000000004029e004                wifi_station_wps_init
                0x000000004029e1b4                wifi_station_wps_deinit
                0x000000004029e2a8                wps_station_wps_register_cb
                0x000000004029e2bc                wps_sm_get
                0x000000004029e2c8                wps_key_save
                0x000000004029e350                wifi_wps_scan_done
                0x000000004029e388                wifi_wps_scan
                0x000000004029e3c4                wifi_station_wps_start
                0x000000004029e418                wifi_wps_enable
                0x000000004029e494                wifi_wps_disable
                0x000000004029e50c                wifi_wps_start
                0x000000004029e560                wifi_set_wps_cb
 *fill*         0x000000004029e589        0x3 
 .irom0.text    0x000000004029e58c     0x2c49 libwps/wps_registrar.o
                                       0x3421 (size before relaxing)
                0x000000004029e854                wps_device_store
                0x000000004029ea1c                wps_registrar_pbc_overlap
                0x000000004029ece4                wps_authorized_macs
                0x000000004029ed34                wps_registrar_init
                0x000000004029ede0                wps_registrar_deinit
                0x000000004029ee5c                wps_registrar_add_pin
                0x000000004029f05c                wps_registrar_invalidate_pin
                0x000000004029f13c                wps_registrar_unlock_pin
                0x000000004029f1e8                wps_registrar_button_pushed
                0x000000004029f2a4                wps_registrar_complete
                0x000000004029f300                wps_registrar_wps_cancel
                0x000000004029f344                wps_registrar_probe_req_rx
                0x000000004029fafc                wps_build_credential_wrap
                0x000000004029fb60                wps_build_cred
                0x00000000402a02b0                wps_registrar_get_msg
                0x00000000402a0fd8                wps_registrar_process_msg
                0x00000000402a1060                wps_registrar_update_ie
                0x00000000402a108c                wps_registrar_selected_registrar_changed
                0x00000000402a1100                wps_registrar_get_info
                0x00000000402a118c                wps_registrar_config_ap
 *fill*         0x00000000402a11d5        0x3 
 .irom0.text    0x00000000402a11d8     0x131e libwps/wps_validate.o
                                       0x1386 (size before relaxing)
                0x00000000402a17cc                wps_validate_beacon
                0x00000000402a1878                wps_validate_beacon_probe_resp
                0x00000000402a199c                wps_validate_probe_req
                0x00000000402a1a9c                wps_validate_assoc_req
                0x00000000402a1ae8                wps_validate_assoc_resp
                0x00000000402a1b34                wps_validate_m1
                0x00000000402a1c70                wps_validate_m2
                0x00000000402a1da0                wps_validate_m2d
                0x00000000402a1eac                wps_validate_m3
                0x00000000402a1f20                wps_validate_m4
                0x00000000402a1fa4                wps_validate_m4_encr
                0x00000000402a1fe4                wps_validate_m5
                0x00000000402a2050                wps_validate_m5_encr
                0x00000000402a2090                wps_validate_m6
                0x00000000402a20fc                wps_validate_m6_encr
                0x00000000402a213c                wps_validate_m7
                0x00000000402a21b4                wps_validate_m7_encr
                0x00000000402a2254                wps_validate_m8
                0x00000000402a22c0                wps_validate_m8_encr
                0x00000000402a234c                wps_validate_wsc_ack
                0x00000000402a23ac                wps_validate_wsc_nack
                0x00000000402a2414                wps_validate_wsc_done
                0x00000000402a2474                wps_validate_upnp_set_selected_registrar
 *fill*         0x00000000402a24f6        0x0 
 *fill*         0x00000000402a24f6        0x2 
 .irom0.literal
                0x00000000402a24f8        0x0 libcrypto/aes-cbc.o
 .irom0.literal
                0x00000000402a24f8        0x0 libcrypto/aes-internal-dec.o
 *fill*         0x00000000402a24f8        0x8 
 .irom.text     0x00000000402a2500       0x13 libcrypto/aes-internal-dec.o
 *fill*         0x00000000402a2513        0x1 
 .irom0.literal
                0x00000000402a2514        0x0 libcrypto/aes-internal-enc.o
 *fill*         0x00000000402a2514        0xc 
 .irom.text     0x00000000402a2520       0x13 libcrypto/aes-internal-enc.o
 *fill*         0x00000000402a2533        0x1 
 .irom0.literal
                0x00000000402a2534        0x0 libcrypto/aes-internal.o
 .irom0.literal
                0x00000000402a2534        0x0 libcrypto/aes-wrap.o
 *fill*         0x00000000402a2534        0x0 
 .irom0.literal
                0x00000000402a2534        0x0 libcrypto/crypto_internal-cipher.o
 *fill*         0x00000000402a2534        0xc 
 .irom.text     0x00000000402a2540       0x19 libcrypto/crypto_internal-cipher.o
 *fill*         0x00000000402a2559        0x3 
 .irom0.literal
                0x00000000402a255c        0x0 libcrypto/crypto_internal-modexp.o
 *fill*         0x00000000402a255c        0x0 
 .irom0.literal
                0x00000000402a255c        0x0 libcrypto/crypto_internal.o
 *fill*         0x00000000402a255c        0x4 
 .irom.text     0x00000000402a2560       0x12 libcrypto/crypto_internal.o
 *fill*         0x00000000402a2572        0x2 
 .irom0.literal
                0x00000000402a2574        0x0 libcrypto/crypto_internal-rsa.o
 *fill*         0x00000000402a2574        0x0 
 .irom0.literal
                0x00000000402a2574        0x0 libcrypto/des-internal.o
 *fill*         0x00000000402a2574        0x0 
 .irom0.literal
                0x00000000402a2574        0x0 libcrypto/dh_group5.o
 *fill*         0x00000000402a2574        0x0 
 .irom0.literal
                0x00000000402a2574        0x0 libcrypto/dh_groups.o
 *fill*         0x00000000402a2574        0x0 
 .irom0.literal
                0x00000000402a2574        0x0 libcrypto/md4-internal.o
 *fill*         0x00000000402a2574        0x0 
 .irom0.literal
                0x00000000402a2574        0x0 libcrypto/ms_funcs.o
 *fill*         0x00000000402a2574        0x0 
 .irom0.literal
                0x00000000402a2574        0x0 libcrypto/sha256-internal.o
 *fill*         0x00000000402a2574        0x0 
 .irom0.literal
                0x00000000402a2574        0x0 libcrypto/sha256.o
 *fill*         0x00000000402a2574        0x0 
 .irom0.literal
                0x00000000402a2574        0x0 libespnow/espnow.o
 *fill*         0x00000000402a2574        0x0 
 .irom0.literal
                0x00000000402a2574        0x0 libespnow/manatick.o
 *fill*         0x00000000402a2574        0xc 
 .irom.text     0x00000000402a2580       0x62 libespnow/manatick.o
 *fill*         0x00000000402a25e2        0x2 
 .irom0.literal
                0x00000000402a25e4        0x0 libespnow/simple_pair.o
 *fill*         0x00000000402a25e4        0xc 
 .irom.text     0x00000000402a25f0       0xb6 libespnow/simple_pair.o
 *fill*         0x00000000402a26a6        0x2 
 .irom0.literal
                0x00000000402a26a8        0x0 liblwip/dhcp.o
 *fill*         0x00000000402a26a8        0x8 
 .irom.text     0x00000000402a26b0       0x1e liblwip/dhcp.o
 *fill*         0x00000000402a26ce        0x2 
 .irom0.literal
                0x00000000402a26d0        0x0 liblwip/dhcpserver.o
 *fill*         0x00000000402a26d0        0x0 
 .irom.text     0x00000000402a26d0       0x45 liblwip/dhcpserver.o
 *fill*         0x00000000402a2715        0x3 
 .irom0.literal
                0x00000000402a2718        0x0 liblwip/dns.o
 *fill*         0x00000000402a2718        0x0 
 .irom.text     0x00000000402a2718        0x6 liblwip/dns.o
 *fill*         0x00000000402a271e        0x2 
 .irom.text     0x00000000402a2720       0x57 liblwip/espconn_buf.o
 *fill*         0x00000000402a2777        0x1 
 .irom0.literal
                0x00000000402a2778        0x0 liblwip/espconn_mdns.o
 *fill*         0x00000000402a2778        0x0 
 .irom0.literal
                0x00000000402a2778        0x0 liblwip/espconn.o
 *fill*         0x00000000402a2778        0x8 
 .irom.text     0x00000000402a2780        0xa liblwip/espconn.o
 *fill*         0x00000000402a278a        0x2 
 .irom0.literal
                0x00000000402a278c        0x0 liblwip/espconn_tcp.o
 *fill*         0x00000000402a278c        0x4 
 .irom.text     0x00000000402a2790       0xab liblwip/espconn_tcp.o
 *fill*         0x00000000402a283b        0x1 
 .irom0.literal
                0x00000000402a283c        0x0 liblwip/espconn_udp.o
 *fill*         0x00000000402a283c        0x4 
 .irom.text     0x00000000402a2840        0xe liblwip/espconn_udp.o
 *fill*         0x00000000402a284e        0x2 
 .irom0.literal
                0x00000000402a2850        0x0 liblwip/etharp.o
 *fill*         0x00000000402a2850        0x0 
 .irom.text     0x00000000402a2850        0x9 liblwip/etharp.o
 *fill*         0x00000000402a2859        0x3 
 .irom0.literal
                0x00000000402a285c        0x0 liblwip/icmp.o
 *fill*         0x00000000402a285c        0x0 
 .irom0.literal
                0x00000000402a285c        0x0 liblwip/igmp.o
 *fill*         0x00000000402a285c        0x4 
 .irom.text     0x00000000402a2860        0x7 liblwip/igmp.o
 *fill*         0x00000000402a2867        0x1 
 .irom0.literal
                0x00000000402a2868        0x0 liblwip/inet_chksum.o
 .irom0.text    0x00000000402a2868      0x298 liblwip/inet_chksum.o
                0x00000000402a28e0                inet_chksum_pseudo
                0x00000000402a29a0                inet_chksum_pseudo_partial
                0x00000000402a2a7c                inet_chksum
                0x00000000402a2a94                inet_chksum_pbuf
 .irom0.literal
                0x00000000402a2b00        0x0 liblwip/init.o
 .irom0.literal
                0x00000000402a2b00        0x0 liblwip/ip_addr.o
 *fill*         0x00000000402a2b00        0x0 
 .irom.text     0x00000000402a2b00        0x8 liblwip/ip_addr.o
                0x00000000402a2b00                ip_addr_any
                0x00000000402a2b04                ip_addr_broadcast
 .irom0.literal
                0x00000000402a2b08        0x0 liblwip/ip.o
 *fill*         0x00000000402a2b08        0x8 
 .irom.text     0x00000000402a2b10       0x11 liblwip/ip.o
 *fill*         0x00000000402a2b21        0x3 
 .irom0.literal
                0x00000000402a2b24        0x0 liblwip/mdns.o
 *fill*         0x00000000402a2b24        0xc 
 .irom.text     0x00000000402a2b30      0x1e2 liblwip/mdns.o
 *fill*         0x00000000402a2d12        0xe 
 .irom.text     0x00000000402a2d20       0x28 liblwip/memp.o
                0x00000000402a2d20                memp_sizes
 .irom0.literal
                0x00000000402a2d48        0x0 liblwip/netif.o
 *fill*         0x00000000402a2d48        0x0 
 .irom0.literal
                0x00000000402a2d48        0x0 liblwip/netio.o
 .irom.text     0x00000000402a2d48        0x8 liblwip/netio.o
 .irom0.literal
                0x00000000402a2d50        0x0 liblwip/pbuf.o
 *fill*         0x00000000402a2d50        0x0 
 .irom.text     0x00000000402a2d50        0x7 liblwip/pbuf.o
 *fill*         0x00000000402a2d57        0x1 
 .irom0.literal
                0x00000000402a2d58        0x0 liblwip/ping.o
 *fill*         0x00000000402a2d58        0x8 
 .irom.text     0x00000000402a2d60       0x84 liblwip/ping.o
 .irom0.literal
                0x00000000402a2de4        0x0 liblwip/raw.o
 *fill*         0x00000000402a2de4        0x4 
 .irom.text     0x00000000402a2de8        0x6 liblwip/raw.o
 *fill*         0x00000000402a2dee        0x2 
 .irom0.literal
                0x00000000402a2df0        0x0 liblwip/sntp.o
 *fill*         0x00000000402a2df0        0x0 
 .irom.text     0x00000000402a2df0       0x1b liblwip/sntp.o
 *fill*         0x00000000402a2e0b        0x1 
 .irom0.literal
                0x00000000402a2e0c        0x0 liblwip/tcp_in.o
 *fill*         0x00000000402a2e0c        0x4 
 .irom.text     0x00000000402a2e10        0x9 liblwip/tcp_in.o
 *fill*         0x00000000402a2e19        0x3 
 .irom0.literal
                0x00000000402a2e1c        0x0 liblwip/tcp.o
 *fill*         0x00000000402a2e1c        0x4 
 .irom.text     0x00000000402a2e20       0x3d liblwip/tcp.o
                0x00000000402a2e30                tcp_pcb_lists
                0x00000000402a2e40                tcp_persist_backoff
                0x00000000402a2e50                tcp_backoff
 *fill*         0x00000000402a2e5d        0x3 
 .irom0.literal
                0x00000000402a2e60        0x0 liblwip/tcp_out.o
 *fill*         0x00000000402a2e60        0x0 
 .irom.text     0x00000000402a2e60        0xa liblwip/tcp_out.o
 *fill*         0x00000000402a2e6a        0x2 
 .irom0.literal
                0x00000000402a2e6c        0x0 liblwip/timers.o
 *fill*         0x00000000402a2e6c        0x4 
 .irom.text     0x00000000402a2e70        0x9 liblwip/timers.o
 *fill*         0x00000000402a2e79        0x3 
 .irom0.literal
                0x00000000402a2e7c        0x0 liblwip/udp.o
 *fill*         0x00000000402a2e7c        0x4 
 .irom.text     0x00000000402a2e80        0x6 liblwip/udp.o
 *fill*         0x00000000402a2e86        0x2 
 .irom0.literal
                0x00000000402a2e88        0x0 libmain/app_main.o
 *fill*         0x00000000402a2e88        0x8 
 .irom.text     0x00000000402a2e90      0x510 libmain/app_main.o
 .irom0.literal
                0x00000000402a33a0        0x0 libmain/eagle_lib.o
 .irom0.literal
                0x00000000402a33a0        0x0 libmain/eagle_lwip_if.o
 *fill*         0x00000000402a33a0        0x0 
 .irom.text     0x00000000402a33a0       0x63 libmain/eagle_lwip_if.o
 *fill*         0x00000000402a3403        0x1 
 .irom0.literal
                0x00000000402a3404        0x0 libmain/ets_timer.o
 *fill*         0x00000000402a3404        0xc 
 .irom.text     0x00000000402a3410      0x14c libmain/ets_timer.o
 .irom0.literal
                0x00000000402a355c        0x0 libmain/mem_manager.o
 *fill*         0x00000000402a355c        0x4 
 .irom.text     0x00000000402a3560       0x11 libmain/mem_manager.o
 *fill*         0x00000000402a3571        0x3 
 .irom0.literal
                0x00000000402a3574        0x0 libmain/spi_flash.o
 *fill*         0x00000000402a3574        0xc 
 .irom.text     0x00000000402a3580      0x12f libmain/spi_flash.o
 *fill*         0x00000000402a36af        0x1 
 .irom0.literal
                0x00000000402a36b0        0x0 libmain/spi_overlap.o
 *fill*         0x00000000402a36b0        0x0 
 .irom0.literal
                0x00000000402a36b0        0x0 libmain/time.o
 *fill*         0x00000000402a36b0        0x0 
 .irom0.literal
                0x00000000402a36b0        0x0 libmain/user_interface.o
 *fill*         0x00000000402a36b0        0x0 
 .irom.text     0x00000000402a36b0      0x2d5 libmain/user_interface.o
                0x00000000402a36d0                default_ssid
 *fill*         0x00000000402a3985        0x3 
 .irom0.literal
                0x00000000402a3988        0x0 libmesh/espconn_base64.o
 *fill*         0x00000000402a3988        0x8 
 .irom.text     0x00000000402a3990       0x11 libmesh/espconn_base64.o
 *fill*         0x00000000402a39a1        0x3 
 .irom0.literal
                0x00000000402a39a4        0x0 libmesh/espconn_mesh.o
 *fill*         0x00000000402a39a4        0xc 
 .irom.text     0x00000000402a39b0      0xb29 libmesh/espconn_mesh.o
 *fill*         0x00000000402a44d9        0x3 
 .irom0.literal
                0x00000000402a44dc        0x0 libnet80211/ieee80211_action.o
 *fill*         0x00000000402a44dc        0x0 
 .irom0.literal
                0x00000000402a44dc        0x0 libnet80211/ieee80211_action_vendor.o
 *fill*         0x00000000402a44dc        0x4 
 .irom.text     0x00000000402a44e0       0xe3 libnet80211/ieee80211_action_vendor.o
 *fill*         0x00000000402a45c3        0x1 
 .irom0.literal
                0x00000000402a45c4        0x0 libnet80211/ieee80211_crypto_ccmp.o
 *fill*         0x00000000402a45c4        0x0 
 .irom.text     0x00000000402a45c4       0x18 libnet80211/ieee80211_crypto_ccmp.o
                0x00000000402a45c4                ccmp
 .irom0.literal
                0x00000000402a45dc        0x0 libnet80211/ieee80211_crypto.o
 *fill*         0x00000000402a45dc        0x0 
 .irom0.literal
                0x00000000402a45dc        0x0 libnet80211/ieee80211_crypto_tkip.o
 *fill*         0x00000000402a45dc        0x0 
 .irom.text     0x00000000402a45dc       0x18 libnet80211/ieee80211_crypto_tkip.o
                0x00000000402a45dc                tkip
 .irom0.literal
                0x00000000402a45f4        0x0 libnet80211/ieee80211_crypto_wep.o
 .irom.text     0x00000000402a45f4       0x18 libnet80211/ieee80211_crypto_wep.o
                0x00000000402a45f4                wep
 .irom0.literal
                0x00000000402a460c        0x0 libnet80211/ieee80211_ets.o
 .irom0.literal
                0x00000000402a460c        0x0 libnet80211/ieee80211_hostap.o
 *fill*         0x00000000402a460c        0x4 
 .irom.text     0x00000000402a4610       0x4b libnet80211/ieee80211_hostap.o
 *fill*         0x00000000402a465b        0x1 
 .irom0.literal
                0x00000000402a465c        0x0 libnet80211/ieee80211_ht.o
 *fill*         0x00000000402a465c        0x4 
 .irom.text     0x00000000402a4660       0x19 libnet80211/ieee80211_ht.o
 *fill*         0x00000000402a4679        0x3 
 .irom0.literal
                0x00000000402a467c        0x0 libnet80211/ieee80211_ie_vendor.o
 *fill*         0x00000000402a467c        0x0 
 .irom0.literal
                0x00000000402a467c        0x0 libnet80211/ieee80211_input.o
 *fill*         0x00000000402a467c        0x4 
 .irom.text     0x00000000402a4680       0x12 libnet80211/ieee80211_input.o
 *fill*         0x00000000402a4692        0x2 
 .irom0.literal
                0x00000000402a4694        0x0 libnet80211/ieee80211_mesh_quick.o
 *fill*         0x00000000402a4694        0xc 
 .irom.text     0x00000000402a46a0       0x43 libnet80211/ieee80211_mesh_quick.o
 *fill*         0x00000000402a46e3        0x1 
 .irom0.literal
                0x00000000402a46e4        0x0 libnet80211/ieee80211.o
 *fill*         0x00000000402a46e4        0xc 
 .irom.text     0x00000000402a46f0       0x82 libnet80211/ieee80211.o
                0x00000000402a4700                ieee80211_opcap
 *fill*         0x00000000402a4772        0x2 
 .irom0.literal
                0x00000000402a4774        0x0 libnet80211/ieee80211_output.o
 *fill*         0x00000000402a4774        0xc 
 .irom.text     0x00000000402a4780       0x3d libnet80211/ieee80211_output.o
 *fill*         0x00000000402a47bd        0x3 
 .irom0.literal
                0x00000000402a47c0        0x0 libnet80211/ieee80211_phy.o
 *fill*         0x00000000402a47c0        0x0 
 .irom.text     0x00000000402a47c0      0x1b8 libnet80211/ieee80211_phy.o
 .irom0.literal
                0x00000000402a4978        0x0 libnet80211/ieee80211_power.o
 *fill*         0x00000000402a4978        0x0 
 .irom0.literal
                0x00000000402a4978        0x0 libnet80211/ieee80211_proto.o
 *fill*         0x00000000402a4978        0x8 
 .irom.text     0x00000000402a4980       0x1c libnet80211/ieee80211_proto.o
 .irom0.literal
                0x00000000402a499c        0x0 libnet80211/ieee80211_regdomain.o
 *fill*         0x00000000402a499c        0x4 
 .irom.text     0x00000000402a49a0       0x2b libnet80211/ieee80211_regdomain.o
 *fill*         0x00000000402a49cb        0x1 
 .irom0.literal
                0x00000000402a49cc        0x0 libnet80211/ieee80211_rfid.o
 *fill*         0x00000000402a49cc        0x0 
 .irom0.literal
                0x00000000402a49cc        0x0 libnet80211/ieee80211_scan.o
 *fill*         0x00000000402a49cc        0x4 
 .irom.text     0x00000000402a49d0       0x99 libnet80211/ieee80211_scan.o
 *fill*         0x00000000402a4a69        0x3 
 .irom0.literal
                0x00000000402a4a6c        0x0 libnet80211/ieee80211_sta.o
 *fill*         0x00000000402a4a6c        0x4 
 .irom.text     0x00000000402a4a70       0x26 libnet80211/ieee80211_sta.o
 *fill*         0x00000000402a4a96        0x2 
 .irom0.literal
                0x00000000402a4a98        0x0 libnet80211/wl_chm.o
 *fill*         0x00000000402a4a98        0x0 
 .irom0.literal
                0x00000000402a4a98        0x0 libnet80211/wl_cnx.o
 *fill*         0x00000000402a4a98        0x8 
 .irom.text     0x00000000402a4aa0      0x1a7 libnet80211/wl_cnx.o
 *fill*         0x00000000402a4c47        0x1 
 .irom0.literal
                0x00000000402a4c48        0x0 libphy/phy_chip_v6_ana.o
 *fill*         0x00000000402a4c48        0x8 
 .irom.text     0x00000000402a4c50       0x65 libphy/phy_chip_v6_ana.o
 *fill*         0x00000000402a4cb5        0x3 
 .irom0.literal
                0x00000000402a4cb8        0x0 libphy/phy_chip_v6_cal.o
 *fill*         0x00000000402a4cb8        0x8 
 .irom.text     0x00000000402a4cc0      0x1f4 libphy/phy_chip_v6_cal.o
 .irom0.literal
                0x00000000402a4eb4        0x0 libphy/phy_chip_v6.o
 *fill*         0x00000000402a4eb4        0xc 
 .irom.text     0x00000000402a4ec0      0x14c libphy/phy_chip_v6.o
 .irom0.literal
                0x00000000402a500c        0x0 libphy/phy_chip_v6_unused.o
 .irom0.text    0x00000000402a500c        0xc libphy/phy_chip_v6_unused.o
                0x00000000402a500c                chip_v6_set_sense
                0x00000000402a5010                chip_v6_get_sense
                0x00000000402a5014                chip_v6_unset_chanfreq
 .irom0.literal
                0x00000000402a5018        0x0 libphy/phy.o
 *fill*         0x00000000402a5018        0x0 
 .irom0.literal
                0x00000000402a5018        0x0 libphy/phy_sleep.o
 *fill*         0x00000000402a5018        0x0 
 .irom0.literal
                0x00000000402a5018        0x0 libpp/esf_buf.o
 *fill*         0x00000000402a5018        0x8 
 .irom.text     0x00000000402a5020        0xa libpp/esf_buf.o
 *fill*         0x00000000402a502a        0x2 
 .irom0.literal
                0x00000000402a502c        0x0 libpp/if_hwctrl.o
 *fill*         0x00000000402a502c        0x4 
 .irom.text     0x00000000402a5030       0x50 libpp/if_hwctrl.o
 .irom0.literal
                0x00000000402a5080        0x0 libpp/lmac.o
 *fill*         0x00000000402a5080        0x0 
 .irom.text     0x00000000402a5080       0x2f libpp/lmac.o
 *fill*         0x00000000402a50af        0x1 
 .irom0.literal
                0x00000000402a50b0        0x0 libpp/pm_for_bcn_only_mode.o
 *fill*         0x00000000402a50b0        0x0 
 .irom.text     0x00000000402a50b0      0x118 libpp/pm_for_bcn_only_mode.o
 .irom0.literal
                0x00000000402a51c8        0x0 libpp/pm.o
 *fill*         0x00000000402a51c8        0x8 
 .irom.text     0x00000000402a51d0      0x16d libpp/pm.o
 *fill*         0x00000000402a533d        0x3 
 .irom0.literal
                0x00000000402a5340        0x0 libpp/pp.o
 *fill*         0x00000000402a5340        0x0 
 .irom.text     0x00000000402a5340       0x5b libpp/pp.o
 *fill*         0x00000000402a539b        0x1 
 .irom0.literal
                0x00000000402a539c        0x0 libpp/rate_control.o
 *fill*         0x00000000402a539c        0x0 
 .irom0.literal
                0x00000000402a539c        0x0 libpp/trc.o
 *fill*         0x00000000402a539c        0x4 
 .irom.text     0x00000000402a53a0       0x38 libpp/trc.o
 .irom0.literal
                0x00000000402a53d8        0x0 libpp/wdev.o
 *fill*         0x00000000402a53d8        0x0 
 .irom.text     0x00000000402a53d8        0x7 libpp/wdev.o
 *fill*         0x00000000402a53df        0x1 
 .irom0.literal
                0x00000000402a53e0        0x0 libpwm/pwm.o
 *fill*         0x00000000402a53e0        0x0 
 .irom.text     0x00000000402a53e0       0xfc libpwm/pwm.o
 .irom0.literal
                0x00000000402a54dc        0x0 libsmartconfig/sc_airkiss.o
 *fill*         0x00000000402a54dc        0x4 
 .irom.text     0x00000000402a54e0      0x50c libsmartconfig/sc_airkiss.o
 .irom0.literal
                0x00000000402a59ec        0x0 libsmartconfig/sc_esptouch.o
 *fill*         0x00000000402a59ec        0x4 
 .irom.text     0x00000000402a59f0      0x64f libsmartconfig/sc_esptouch.o
 *fill*         0x00000000402a603f        0x1 
 .irom0.literal
                0x00000000402a6040        0x0 libsmartconfig/sc_sniffer.o
 .irom.text     0x00000000402a6040      0x20d libsmartconfig/sc_sniffer.o
 *fill*         0x00000000402a624d        0x3 
 .irom0.literal
                0x00000000402a6250        0x0 libssl/espconn_secure.o
 *fill*         0x00000000402a6250        0x0 
 .irom.text     0x00000000402a6250       0x11 libssl/espconn_secure.o
 *fill*         0x00000000402a6261        0x3 
 .irom0.literal
                0x00000000402a6264        0x0 libssl/espconn_ssl.o
 *fill*         0x00000000402a6264        0xc 
 .irom.text     0x00000000402a6270      0x1b9 libssl/espconn_ssl.o
 *fill*         0x00000000402a6429        0x3 
 .irom0.literal
                0x00000000402a642c        0x0 libssl/sha256.o
 *fill*         0x00000000402a642c        0x0 
 .irom0.literal
                0x00000000402a642c        0x0 libssl/sha384.o
 *fill*         0x00000000402a642c        0x0 
 .irom0.literal
                0x00000000402a642c        0x0 libssl/sha512.o
 *fill*         0x00000000402a642c        0x0 
 .irom0.literal
                0x00000000402a642c        0x0 libssl/ssl_aes.o
 *fill*         0x00000000402a642c        0x0 
 .irom0.literal
                0x00000000402a642c        0x0 libssl/ssl_asn1.o
 *fill*         0x00000000402a642c        0x4 
 .irom.text     0x00000000402a6430       0x6a libssl/ssl_asn1.o
 *fill*         0x00000000402a649a        0x2 
 .irom0.literal
                0x00000000402a649c        0x0 libssl/ssl_bigint.o
 *fill*         0x00000000402a649c        0x4 
 .irom.text     0x00000000402a64a0        0xd libssl/ssl_bigint.o
 *fill*         0x00000000402a64ad        0x3 
 .irom0.literal
                0x00000000402a64b0        0x0 libssl/ssl_crypto_misc.o
 *fill*         0x00000000402a64b0        0x0 
 .irom.text     0x00000000402a64b0       0x12 libssl/ssl_crypto_misc.o
 *fill*         0x00000000402a64c2        0x2 
 .irom0.literal
                0x00000000402a64c4        0x0 libssl/ssl_hmac.o
 *fill*         0x00000000402a64c4        0x0 
 .irom0.literal
                0x00000000402a64c4        0x0 libssl/ssl_loader.o
 *fill*         0x00000000402a64c4        0xc 
 .irom.text     0x00000000402a64d0       0x29 libssl/ssl_loader.o
 *fill*         0x00000000402a64f9        0x3 
 .irom0.literal
                0x00000000402a64fc        0x0 libssl/ssl_md5.o
 *fill*         0x00000000402a64fc        0x0 
 .irom0.literal
                0x00000000402a64fc        0x0 libssl/ssl_rc4.o
 .irom0.text    0x00000000402a64fc       0x9d libssl/ssl_rc4.o
                0x00000000402a64fc                RC4_setup
                0x00000000402a6554                RC4_crypt
 *fill*         0x00000000402a6599        0x3 
 .irom0.literal
                0x00000000402a659c        0x0 libssl/ssl_rsa.o
 *fill*         0x00000000402a659c        0x4 
 .irom.text     0x00000000402a65a0        0xa libssl/ssl_rsa.o
 *fill*         0x00000000402a65aa        0x2 
 .irom0.literal
                0x00000000402a65ac        0x0 libssl/ssl_sha1.o
 .irom0.literal
                0x00000000402a65ac        0x0 libssl/ssl_tls1_clnt.o
 *fill*         0x00000000402a65ac        0x0 
 .irom0.literal
                0x00000000402a65ac        0x0 libssl/ssl_tls1.o
 *fill*         0x00000000402a65ac        0x4 
 .irom.text     0x00000000402a65b0      0x2c2 libssl/ssl_tls1.o
 *fill*         0x00000000402a6872        0x2 
 .irom0.literal
                0x00000000402a6874        0x0 libssl/ssl_tls1_svr.o
 .irom0.literal
                0x00000000402a6874        0x0 libssl/ssl_x509.o
 *fill*         0x00000000402a6874        0xc 
 .irom.text     0x00000000402a6880       0xe8 libssl/ssl_x509.o
 .irom0.literal
                0x00000000402a6968        0x0 libwpa2/asn1.o
 *fill*         0x00000000402a6968        0x0 
 .irom0.literal
                0x00000000402a6968        0x0 libwpa2/base64.o
 *fill*         0x00000000402a6968        0x8 
 .irom.text     0x00000000402a6970        0x9 libwpa2/base64.o
 *fill*         0x00000000402a6979        0x3 
 .irom0.literal
                0x00000000402a697c        0x0 libwpa2/bignum.o
 *fill*         0x00000000402a697c        0x4 
 .irom.text     0x00000000402a6980       0x27 libwpa2/bignum.o
 .irom0.text    0x00000000402a69a7        0x0 libwpa2/chap.o
 *fill*         0x00000000402a69a7        0x1 
 .irom0.literal
                0x00000000402a69a8        0x0 libwpa2/eap_common.o
 *fill*         0x00000000402a69a8        0x8 
 .irom.text     0x00000000402a69b0       0x39 libwpa2/eap_common.o
 *fill*         0x00000000402a69e9        0x3 
 .irom0.literal
                0x00000000402a69ec        0x0 libwpa2/eap_mschapv2.o
 *fill*         0x00000000402a69ec        0x4 
 .irom.text     0x00000000402a69f0      0x28a libwpa2/eap_mschapv2.o
 *fill*         0x00000000402a6c7a        0x2 
 .irom0.literal
                0x00000000402a6c7c        0x0 libwpa2/eap.o
 *fill*         0x00000000402a6c7c        0x4 
 .irom.text     0x00000000402a6c80      0x153 libwpa2/eap.o
 *fill*         0x00000000402a6dd3        0x1 
 .irom0.literal
                0x00000000402a6dd4        0x0 libwpa2/eap_peap_common.o
 *fill*         0x00000000402a6dd4        0x0 
 .irom0.literal
                0x00000000402a6dd4        0x0 libwpa2/eap_peap.o
 *fill*         0x00000000402a6dd4        0xc 
 .irom.text     0x00000000402a6de0      0x1cb libwpa2/eap_peap.o
 *fill*         0x00000000402a6fab        0x1 
 .irom0.literal
                0x00000000402a6fac        0x0 libwpa2/eap_tls_common.o
 *fill*         0x00000000402a6fac        0x4 
 .irom.text     0x00000000402a6fb0       0xa1 libwpa2/eap_tls_common.o
 *fill*         0x00000000402a7051        0x3 
 .irom0.literal
                0x00000000402a7054        0x0 libwpa2/eap_tls.o
 *fill*         0x00000000402a7054        0xc 
 .irom.text     0x00000000402a7060        0xa libwpa2/eap_tls.o
 *fill*         0x00000000402a706a        0x2 
 .irom0.literal
                0x00000000402a706c        0x0 libwpa2/eap_ttls.o
 *fill*         0x00000000402a706c        0x4 
 .irom.text     0x00000000402a7070      0x9ad libwpa2/eap_ttls.o
 *fill*         0x00000000402a7a1d        0x3 
 .irom0.literal
                0x00000000402a7a20        0x0 libwpa2/ext_password.o
 *fill*         0x00000000402a7a20        0x0 
 .irom.text     0x00000000402a7a20        0xf libwpa2/ext_password.o
 *fill*         0x00000000402a7a2f        0x1 
 .irom0.literal
                0x00000000402a7a30        0x0 libwpa2/mschapv2.o
 *fill*         0x00000000402a7a30        0x0 
 .irom0.literal
                0x00000000402a7a30        0x0 libwpa2/pkcs1.o
 *fill*         0x00000000402a7a30        0x0 
 .irom0.literal
                0x00000000402a7a30        0x0 libwpa2/pkcs5.o
 *fill*         0x00000000402a7a30        0x0 
 .irom.text     0x00000000402a7a30        0x8 libwpa2/pkcs5.o
 .irom0.literal
                0x00000000402a7a38        0x0 libwpa2/pkcs8.o
 *fill*         0x00000000402a7a38        0x0 
 .irom.text     0x00000000402a7a38        0x8 libwpa2/pkcs8.o
 .irom0.literal
                0x00000000402a7a40        0x0 libwpa2/rsa.o
 *fill*         0x00000000402a7a40        0x0 
 .irom.text     0x00000000402a7a40        0x6 libwpa2/rsa.o
 *fill*         0x00000000402a7a46        0x2 
 .irom0.literal
                0x00000000402a7a48        0x0 libwpa2/tls_internal.o
 *fill*         0x00000000402a7a48        0x8 
 .irom.text     0x00000000402a7a50        0xf libwpa2/tls_internal.o
 *fill*         0x00000000402a7a5f        0x1 
 .irom0.literal
                0x00000000402a7a60        0x0 libwpa2/tlsv1_client.o
 *fill*         0x00000000402a7a60        0x0 
 .irom.text     0x00000000402a7a60        0xf libwpa2/tlsv1_client.o
 *fill*         0x00000000402a7a6f        0x1 
 .irom0.literal
                0x00000000402a7a70        0x0 libwpa2/tlsv1_client_read.o
 *fill*         0x00000000402a7a70        0x0 
 .irom.text     0x00000000402a7a70       0x14 libwpa2/tlsv1_client_read.o
 .irom0.literal
                0x00000000402a7a84        0x0 libwpa2/tlsv1_client_write.o
 *fill*         0x00000000402a7a84        0xc 
 .irom.text     0x00000000402a7a90       0x15 libwpa2/tlsv1_client_write.o
 *fill*         0x00000000402a7aa5        0x3 
 .irom0.literal
                0x00000000402a7aa8        0x0 libwpa2/tlsv1_common.o
 *fill*         0x00000000402a7aa8        0x0 
 .irom0.literal
                0x00000000402a7aa8        0x0 libwpa2/tlsv1_cred.o
 *fill*         0x00000000402a7aa8        0x8 
 .irom.text     0x00000000402a7ab0        0xd libwpa2/tlsv1_cred.o
 *fill*         0x00000000402a7abd        0x3 
 .irom0.literal
                0x00000000402a7ac0        0x0 libwpa2/tlsv1_record.o
 .irom0.literal
                0x00000000402a7ac0        0x0 libwpa2/tlsv1_server.o
 .irom.text     0x00000000402a7ac0        0xf libwpa2/tlsv1_server.o
 *fill*         0x00000000402a7acf        0x1 
 .irom0.literal
                0x00000000402a7ad0        0x0 libwpa2/tlsv1_server_read.o
 *fill*         0x00000000402a7ad0        0x0 
 .irom.text     0x00000000402a7ad0       0x14 libwpa2/tlsv1_server_read.o
 .irom0.literal
                0x00000000402a7ae4        0x0 libwpa2/tlsv1_server_write.o
 *fill*         0x00000000402a7ae4        0xc 
 .irom.text     0x00000000402a7af0       0x15 libwpa2/tlsv1_server_write.o
 *fill*         0x00000000402a7b05        0x3 
 .irom0.literal
                0x00000000402a7b08        0x0 libwpa2/x509v3.o
 *fill*         0x00000000402a7b08        0x8 
 .irom.text     0x00000000402a7b10        0x9 libwpa2/x509v3.o
 *fill*         0x00000000402a7b19        0x3 
 .irom0.literal
                0x00000000402a7b1c        0x0 libwpa/ap_config.o
 *fill*         0x00000000402a7b1c        0x4 
 .irom.text     0x00000000402a7b20        0xc libwpa/ap_config.o
 .irom0.literal
                0x00000000402a7b2c        0x0 libwpa/common.o
 *fill*         0x00000000402a7b2c        0x4 
 .irom.text     0x00000000402a7b30        0x9 libwpa/common.o
 *fill*         0x00000000402a7b39        0x3 
 .irom0.literal
                0x00000000402a7b3c        0x0 libwpa/os_xtensa.o
 *fill*         0x00000000402a7b3c        0x4 
 .irom.text     0x00000000402a7b40        0xc libwpa/os_xtensa.o
 .irom0.literal
                0x00000000402a7b4c        0x0 libwpa/wpa_auth_ie.o
 *fill*         0x00000000402a7b4c        0x4 
 .irom.text     0x00000000402a7b50        0xe libwpa/wpa_auth_ie.o
 *fill*         0x00000000402a7b5e        0x2 
 .irom0.literal
                0x00000000402a7b60        0x0 libwpa/wpa_auth.o
 *fill*         0x00000000402a7b60        0x0 
 .irom.text     0x00000000402a7b60       0x74 libwpa/wpa_auth.o
 .irom0.literal
                0x00000000402a7bd4        0x0 libwpa/wpabuf.o
 *fill*         0x00000000402a7bd4        0xc 
 .irom.text     0x00000000402a7be0        0x9 libwpa/wpabuf.o
 *fill*         0x00000000402a7be9        0x3 
 .irom0.literal
                0x00000000402a7bec        0x0 libwpa/wpa_common.o
 *fill*         0x00000000402a7bec        0x4 
 .irom.text     0x00000000402a7bf0       0x1c libwpa/wpa_common.o
 .irom0.literal
                0x00000000402a7c0c        0x0 libwpa/wpa_debug.o
 .irom0.literal
                0x00000000402a7c0c        0x0 libwpa/wpa_ie.o
 *fill*         0x00000000402a7c0c        0x0 
 .irom0.literal
                0x00000000402a7c0c        0x0 libwpa/wpa_main.o
 *fill*         0x00000000402a7c0c        0x4 
 .irom.text     0x00000000402a7c10       0x67 libwpa/wpa_main.o
 *fill*         0x00000000402a7c77        0x1 
 .irom0.literal
                0x00000000402a7c78        0x0 libwpa/wpa.o
 *fill*         0x00000000402a7c78        0x8 
 .irom.text     0x00000000402a7c80       0x17 libwpa/wpa.o
 *fill*         0x00000000402a7c97        0x1 
 .irom0.literal
                0x00000000402a7c98        0x0 libwpa/wpas_glue.o
 *fill*         0x00000000402a7c98        0x0 
 .irom0.literal
                0x00000000402a7c98        0x0 libwps/uuid.o
 *fill*         0x00000000402a7c98        0x0 
 .irom0.literal
                0x00000000402a7c98        0x0 libwps/wps_attr_build.o
 *fill*         0x00000000402a7c98        0x8 
 .irom.text     0x00000000402a7ca0       0x39 libwps/wps_attr_build.o
 *fill*         0x00000000402a7cd9        0x3 
 .irom0.literal
                0x00000000402a7cdc        0x0 libwps/wps_attr_parse.o
 *fill*         0x00000000402a7cdc        0x0 
 .irom0.literal
                0x00000000402a7cdc        0x0 libwps/wps_attr_process.o
 *fill*         0x00000000402a7cdc        0x0 
 .irom0.literal
                0x00000000402a7cdc        0x0 libwps/wps_common.o
 .irom0.literal
                0x00000000402a7cdc        0x0 libwps/wps_dev_attr.o
 *fill*         0x00000000402a7cdc        0x4 
 .irom.text     0x00000000402a7ce0        0xf libwps/wps_dev_attr.o
 *fill*         0x00000000402a7cef        0x1 
 .irom0.literal
                0x00000000402a7cf0        0x0 libwps/wps_enrollee.o
 *fill*         0x00000000402a7cf0        0x0 
 .irom.text     0x00000000402a7cf0       0x37 libwps/wps_enrollee.o
 *fill*         0x00000000402a7d27        0x1 
 .irom0.literal
                0x00000000402a7d28        0x0 libwps/wps.o
 *fill*         0x00000000402a7d28        0x8 
 .irom.text     0x00000000402a7d30      0x13a libwps/wps.o
 *fill*         0x00000000402a7e6a        0x2 
 .irom0.literal
                0x00000000402a7e6c        0x0 libwps/wps_registrar.o
 *fill*         0x00000000402a7e6c        0x4 
 .irom.text     0x00000000402a7e70       0x10 libwps/wps_registrar.o
 .irom0.literal
                0x00000000402a7e80        0x0 libwps/wps_validate.o
                0x00000000402a7e80                _irom0_text_end = ABSOLUTE (.)

.text           0x0000000040100000     0x75e5
                0x0000000040100000                _stext = .
                0x0000000040100000                _text_start = ABSOLUTE (.)
 *(.UserEnter.text)
 .UserEnter.text
                0x0000000040100000        0xd libmain/vector.o
                                         0x14 (size before relaxing)
                0x0000000040100004                call_user_start
                0x0000000040100010                . = ALIGN (0x10)
 *fill*         0x000000004010000d        0x3 
 *(.DebugExceptionVector.text)
 .DebugExceptionVector.text
                0x0000000040100010        0x6 libmain/debug-vector.o
                0x0000000040100010                _DebugExceptionVector
                0x0000000040100020                . = ALIGN (0x10)
 *fill*         0x0000000040100016        0xa 
 *(.NMIExceptionVector.text)
 .NMIExceptionVector.text
                0x0000000040100020        0x6 libmain/nmi-vector.o
                                          0xd (size before relaxing)
                0x0000000040100020                _NMIExceptionVector
                0x0000000040100030                . = ALIGN (0x10)
 *fill*         0x0000000040100026        0xa 
 *(.KernelExceptionVector.text)
 .KernelExceptionVector.text
                0x0000000040100030        0x6 libmain/kernel-vector.o
                0x0000000040100030                _KernelExceptionVector
                0x0000000040100036        0x4 LONG 0x0
                0x000000004010003a        0x4 LONG 0x0
                0x000000004010003e        0x4 LONG 0x0
                0x0000000040100042        0x4 LONG 0x0
                0x0000000040100050                . = ALIGN (0x10)
 *fill*         0x0000000040100046        0xa 
 *(.UserExceptionVector.text)
 .UserExceptionVector.text
                0x0000000040100050        0x6 libmain/user-vector.o
                                          0xd (size before relaxing)
                0x0000000040100050                _UserExceptionVector
                0x0000000040100056        0x4 LONG 0x0
                0x000000004010005a        0x4 LONG 0x0
                0x000000004010005e        0x4 LONG 0x0
                0x0000000040100062        0x4 LONG 0x0
                0x0000000040100070                . = ALIGN (0x10)
 *fill*         0x0000000040100066        0xa 
 *(.DoubleExceptionVector.text)
 .DoubleExceptionVector.text
                0x0000000040100070        0x6 libmain/double-vector.o
                0x0000000040100070                _DoubleExceptionVector
                0x0000000040100076        0x4 LONG 0x0
                0x000000004010007a        0x4 LONG 0x0
                0x000000004010007e        0x4 LONG 0x0
                0x0000000040100082        0x4 LONG 0x0
                0x0000000040100090                . = ALIGN (0x10)
 *fill*         0x0000000040100086        0xa 
 *(.entry.text)
 *(.init.literal)
 *(.init)
 *(.literal .text .literal.* .text.* .stub .gnu.warning .gnu.linkonce.literal.* .gnu.linkonce.t.*.literal .gnu.linkonce.t.*)
 .text          0x0000000040100090      0x49b liblwip/espconn_buf.o
                                        0x50e (size before relaxing)
                0x0000000040100094                ringbuf_new
                0x00000000401000e4                ringbuf_buffer_size
                0x00000000401000e8                ringbuf_reset
                0x00000000401000f8                ringbuf_free
                0x0000000040100138                ringbuf_capacity
                0x0000000040100168                ringbuf_bytes_free
                0x0000000040100198                ringbuf_bytes_used
                0x00000000401001bc                ringbuf_is_full
                0x00000000401001d4                ringbuf_is_empty
                0x00000000401001fc                ringbuf_tail
                0x0000000040100200                ringbuf_head
                0x0000000040100260                ringbuf_findchr
                0x0000000040100304                ringbuf_memset
                0x00000000401003d0                ringbuf_memcpy_into
                0x0000000040100488                ringbuf_memcpy_from
 *fill*         0x000000004010052b        0x1 
 .text          0x000000004010052c       0x43 liblwip/etharp.o
                                         0x47 (size before relaxing)
 *fill*         0x000000004010056f        0x1 
 .text          0x0000000040100570       0xe4 liblwip/sntp.o
                                         0xf0 (size before relaxing)
                0x0000000040100578                sntp_get_current_timestamp
                0x00000000401005a0                sntp_get_real_time
                0x000000004010064c                sntp_get_timetype
 .text          0x0000000040100654      0x205 liblwip/tcp.o
                                        0x229 (size before relaxing)
 *fill*         0x0000000040100859        0x3 
 .text          0x000000004010085c      0x15d liblwip/tcp_out.o
                                        0x161 (size before relaxing)
 *fill*         0x00000000401009b9        0x3 
 .text          0x00000000401009bc       0xb4 liblwip/timers.o
                                         0xc0 (size before relaxing)
 .text          0x0000000040100a70      0x67a libmain/app_main.o
                                        0x6f6 (size before relaxing)
                0x0000000040100aa8                Cache_Read_Enable_New
                0x0000000040100ae4                NmiTimSetFunc
                0x0000000040100b0c                NMI_Handler
                0x0000000040100b64                call_user_start_local
                0x0000000040100cc4                wdt_feed
 *fill*         0x00000000401010ea        0x2 
 .text          0x00000000401010ec      0x3cc libmain/ets_timer.o
                                        0x450 (size before relaxing)
                0x00000000401011c0                ets_timer_setfn
                0x000000004010129c                ets_timer_disarm
                0x000000004010134c                ets_timer_arm_new
 .text          0x00000000401014b8      0x30b libmain/mem_manager.o
                                        0x367 (size before relaxing)
                0x00000000401014bc                prvInsertBlockIntoUsedList
                0x00000000401014ec                system_show_malloc
                0x00000000401014ec                pvShowMalloc
                0x0000000040101578                prvRemoveBlockFromUsedList
                0x00000000401015a4                xPortWantedSizeAlign
                0x00000000401015cc                pvPortMalloc
                0x0000000040101694                vPortFree
                0x00000000401016e8                pvPortCalloc
                0x0000000040101718                pvPortZalloc
                0x0000000040101734                pvPortRealloc
 *fill*         0x00000000401017c3        0x1 
 .text          0x00000000401017c4       0xc7 libmain/nmi-vector.o
                                         0xcb (size before relaxing)
                0x00000000401017d0                _NMILevelVector
 *fill*         0x000000004010188b        0x1 
 .text          0x000000004010188c      0x9b3 libmain/spi_flash.o
                                        0xb1f (size before relaxing)
                0x0000000040101890                Cache_Read_Disable_2
                0x00000000401018d0                Cache_Read_Enable_2
                0x0000000040101920                spi_flash_get_unique_id
                0x0000000040101a84                spi_flash_get_id
                0x0000000040101ae0                spi_flash_read_status
                0x0000000040101b14                spi_flash_write_status
                0x0000000040101b7c                flash_gd25q32c_read_status
                0x0000000040101d10                flash_gd25q32c_write_status
                0x0000000040101e9c                spi_flash_check_wr_protect
                0x0000000040101f30                spi_flash_erase_sector
                0x0000000040101f60                spi_flash_enable_qmode
                0x0000000040101f90                spi_flash_write
                0x0000000040101fe4                spi_flash_read
                0x0000000040102050                spi_flash_issi_enable_QIO_mode
                0x00000000401021f0                flash_gd25q32c_enable_QIO_mode
 *fill*         0x000000004010223f        0x1 
 .text          0x0000000040102240      0x1c3 libmain/time.o
                                        0x1fb (size before relaxing)
                0x0000000040102258                sntp_get_rtc_time
                0x000000004010230c                sntp_update_rtc
 *fill*         0x0000000040102403        0x1 
 .text          0x0000000040102404      0x332 libmain/user_interface.o
                                        0x39e (size before relaxing)
                0x0000000040102420                os_printf_plus
                0x000000004010254c                system_restart_core
                0x000000004010258c                system_deep_sleep_local_2
                0x0000000040102640                system_get_time
                0x0000000040102658                system_os_post
                0x0000000040102688                system_rtc_mem_write
                0x00000000401026e0                system_rtc_mem_read
 *fill*         0x0000000040102736        0x2 
 .text          0x0000000040102738       0x1e libmain/user-vector.o
                0x000000004010273c                _UserExceptionVector_1
 *fill*         0x0000000040102756        0x2 
 .text          0x0000000040102758       0x2d libmesh/espconn_mesh.o
                                         0x38 (size before relaxing)
                0x0000000040102758                mesh_zalloc
                0x0000000040102774                mesh_free
 *fill*         0x0000000040102785        0x3 
 .text          0x0000000040102788       0x4a libnet80211/ieee80211_output.o
                                         0x4e (size before relaxing)
 *fill*         0x00000000401027d2        0x2 
 .text          0x00000000401027d4        0xb libnet80211/wl_chm.o
                0x00000000401027d8                chm_get_current_channel
 *fill*         0x00000000401027df        0x1 
 .text          0x00000000401027e0      0x25e libphy/phy_chip_v6_ana.o
                                        0x276 (size before relaxing)
                0x00000000401027fc                phy_adc_read_fast
 *fill*         0x0000000040102a3e        0x2 
 .text          0x0000000040102a40      0x20a libphy/phy_chip_v6_cal.o
                                        0x21a (size before relaxing)
                0x0000000040102a4c                tx_pwr_backoff_old
                0x0000000040102b9c                unsign_to_sign
                0x0000000040102bd4                phy_get_bb_freqoffset
                0x0000000040102c3c                phy_get_bb_evm
 *fill*         0x0000000040102c4a        0x2 
 .text          0x0000000040102c4c       0x4d libphy/phy_chip_v6.o
                                         0x55 (size before relaxing)
                0x0000000040102c5c                phy_debug_print
 *fill*         0x0000000040102c99        0x3 
 .text          0x0000000040102c9c       0x53 libphy/phy.o
                                         0x5f (size before relaxing)
                0x0000000040102ca4                register_phy_ops
                0x0000000040102cc4                register_get_phy_addr
                0x0000000040102ccc                phy_change_channel
                0x0000000040102ce4                phy_get_mactime
 *fill*         0x0000000040102cef        0x1 
 .text          0x0000000040102cf0      0x257 libphy/phy_sleep.o
                                        0x287 (size before relaxing)
                0x0000000040102cf8                pm_rtc_clock_cali
                0x0000000040102dcc                pm_goto_sleep
                0x0000000040102f1c                clockgate_watchdog
 *fill*         0x0000000040102f47        0x1 
 .text          0x0000000040102f48       0x4c libpp/esf_buf.o
                                         0x5c (size before relaxing)
                0x0000000040102f4c                esf_rx_buf_alloc
 .text          0x0000000040102f94     0x161e libpp/lmac.o
                                       0x1982 (size before relaxing)
                0x0000000040102f98                lmacIsActive
                0x0000000040102fac                lmacIsIdle
                0x000000004010342c                lmacSetAcParam
                0x0000000040103480                lmacProcessTXStartData
                0x000000004010362c                lmacProcessTxSuccess
                0x0000000040103770                GetAccess
                0x000000004010377c                lmacDiscardAgedMSDU
                0x0000000040103790                lmacRecycleMPDU
                0x0000000040103d58                lmacProcessTxTimeout
                0x0000000040103dc0                lmacProcessAllTxTimeout
                0x0000000040103dd4                lmacProcessCollisions
                0x0000000040103e34                lmacProcessCollision
                0x0000000040103ea4                lmacMSDUAged
                0x0000000040104234                lmacProcessCtsTimeout
                0x000000004010426c                lmacProcessAckTimeout
                0x00000000401042c4                lmacProcessRtsStart
                0x00000000401042d0                lmacProcessTxRtsError
                0x0000000040104370                lmacProcessTxError
                0x0000000040104400                lmacTxFrame
                0x000000004010459c                lmacRxDone
 *fill*         0x00000000401045b2        0x2 
 .text          0x00000000401045b4      0x8e1 libpp/pp.o
                                        0x9fd (size before relaxing)
                0x00000000401045e8                pp_soft_wdt_feed_local
                0x000000004010467c                ppProcessTxQ
                0x00000000401046f0                ppFetchTxQFirstAvail
                0x0000000040104730                ppDequeueTxQ
                0x0000000040104758                ppRollBackTxQ
                0x000000004010477c                ppRecordBarRRC
                0x000000004010478c                ppTxqUpdateBitmap
                0x00000000401047b4                ppEnqueueTxDone
                0x00000000401047e8                ppEnqueueRxq
                0x0000000040104cd0                ppDiscardMPDU
                0x0000000040104cf4                pp_post
                0x0000000040104d80                pp_post2
                0x0000000040104da8                ppCalTxop
                0x0000000040104e28                ppCalFrameTimes
 *fill*         0x0000000040104e95        0x3 
 .text          0x0000000040104e98       0xf5 libpp/rate_control.o
                                        0x109 (size before relaxing)
                0x0000000040104eb8                RC_GetAckRate
                0x0000000040104ec4                RC_GetRtsRate
                0x0000000040104ed4                RC_GetAckTime
                0x0000000040104ee8                RC_GetCtsTime
                0x0000000040104f20                RC_GetBlockAckTime
 *fill*         0x0000000040104f8d        0x3 
 .text          0x0000000040104f90      0x99d libpp/trc.o
                                        0xa05 (size before relaxing)
                0x0000000040105160                rcUpdateTxDone
                0x00000000401051f4                rcUpdateRxDone
                0x0000000040105250                rcUpdateDataRxDone
                0x000000004010526c                rcGetSched
                0x0000000040105350                rcGetRate
                0x0000000040105860                rcReachRetryLimit
                0x0000000040105878                trc_NeedRTS
 *fill*         0x000000004010592d        0x3 
 .text          0x0000000040105930     0x1057 libpp/wdev.o
                                       0x1347 (size before relaxing)
                0x0000000040105cd0                wDev_MacTim1SetFunc
                0x0000000040105cf0                wDev_MacTim1Arm
                0x0000000040105d84                wDev_ProcessFiq
                0x00000000401060c8                wDev_EnableTransmit
                0x0000000040106100                wDev_DisableTransmit
                0x0000000040106120                Tx_Copy2Queue
                0x0000000040106168                wDev_ProcessCollision
                0x000000004010618c                wDev_GetTxqCollisions
                0x000000004010619c                wDev_ClearTxqCollisions
                0x00000000401061b8                wDev_SetWaitingQueue
                0x0000000040106200                wDev_ClearWaitingQueue
                0x0000000040106224                wDev_SetFrameAckType
                0x0000000040106284                wDev_AppendRxBlocks
                0x00000000401063c8                wDev_AppendRxAmpduLensBlocks
                0x000000004010649c                wDev_GetBAInfo
                0x00000000401064d0                wDevDisableRx
 *fill*         0x0000000040106987        0x1 
 .text          0x0000000040106988      0x53b libpwm/pwm.o
                                        0x56f (size before relaxing)
                0x0000000040106d38                pwm_tim1_intr_handler
 *fill*         0x0000000040106ec3        0x1 
 .text          0x0000000040106ec4       0x56 libwpa/wpabuf.o
                                         0x5a (size before relaxing)
 *fill*         0x0000000040106f1a        0x2 
 .text          0x0000000040106f1c       0x9a libwps/wps_attr_build.o
                                         0xaa (size before relaxing)
 *fill*         0x0000000040106fb6        0x2 
 .text          0x0000000040106fb8       0x76 libwps/wps_dev_attr.o
                                         0x82 (size before relaxing)
 *fill*         0x000000004010702e        0x2 
 .text          0x0000000040107030       0x5c libwps/wps_enrollee.o
                                         0x68 (size before relaxing)
 .text          0x000000004010708c       0x84 libwps/wps.o
                                         0x94 (size before relaxing)
 .text          0x0000000040107110       0x9a libwps/wps_registrar.o
                                         0xaa (size before relaxing)
 *fill*         0x00000000401071aa        0x2 
 .literal       0x00000000401071ac        0x0 /mnt/hdd/projects-3rdparty/xtensa/esp-open-sdk/xtensa-lx106-elf/bin/../lib/gcc/xtensa-lx106-elf/4.8.5/../../../../xtensa-lx106-elf/lib/libc.a(lib_a-atoi.o)
                                          0x8 (size before relaxing)
 .literal       0x00000000401071ac        0x4 /mnt/hdd/projects-3rdparty/xtensa/esp-open-sdk/xtensa-lx106-elf/bin/../lib/gcc/xtensa-lx106-elf/4.8.5/../../../../xtensa-lx106-elf/lib/libc.a(lib_a-strcasecmp.o)
 .literal       0x00000000401071b0        0x4 /mnt/hdd/projects-3rdparty/xtensa/esp-open-sdk/xtensa-lx106-elf/bin/../lib/gcc/xtensa-lx106-elf/4.8.5/../../../../xtensa-lx106-elf/lib/libc.a(lib_a-strtol.o)
                                         0x18 (size before relaxing)
 .literal       0x00000000401071b4        0x4 /mnt/hdd/projects-3rdparty/xtensa/esp-open-sdk/xtensa-lx106-elf/bin/../lib/gcc/xtensa-lx106-elf/4.8.5/../../../../xtensa-lx106-elf/lib/libc.a(lib_a-sysgettod.o)
                                          0x8 (size before relaxing)
 .text          0x00000000401071b8       0x27 /mnt/hdd/projects-3rdparty/xtensa/esp-open-sdk/xtensa-lx106-elf/bin/../lib/gcc/xtensa-lx106-elf/4.8.5/../../../../xtensa-lx106-elf/lib/libc.a(lib_a-atoi.o)
                                         0x2f (size before relaxing)
                0x00000000401071b8                atoi
                0x00000000401071cc                _atoi_r
 *fill*         0x00000000401071df        0x1 
 .text          0x00000000401071e0       0x42 /mnt/hdd/projects-3rdparty/xtensa/esp-open-sdk/xtensa-lx106-elf/bin/../lib/gcc/xtensa-lx106-elf/4.8.5/../../../../xtensa-lx106-elf/lib/libc.a(lib_a-strcasecmp.o)
                0x00000000401071e0                strcasecmp
 *fill*         0x0000000040107222        0x2 
 .text          0x0000000040107224      0x15f /mnt/hdd/projects-3rdparty/xtensa/esp-open-sdk/xtensa-lx106-elf/bin/../lib/gcc/xtensa-lx106-elf/4.8.5/../../../../xtensa-lx106-elf/lib/libc.a(lib_a-strtol.o)
                0x0000000040107224                _strtol_r
                0x0000000040107364                strtol
 *fill*         0x0000000040107383        0x1 
 .text          0x0000000040107384       0x1d /mnt/hdd/projects-3rdparty/xtensa/esp-open-sdk/xtensa-lx106-elf/bin/../lib/gcc/xtensa-lx106-elf/4.8.5/../../../../xtensa-lx106-elf/lib/libc.a(lib_a-sysgettod.o)
                0x0000000040107384                gettimeofday
 .text          0x00000000401073a1        0x0 libairkiss/airkiss.o
 .text          0x00000000401073a1        0x0 libairkiss/airlink.o
 .text          0x00000000401073a1        0x0 libcrypto/aes-cbc.o
 .text          0x00000000401073a1        0x0 libcrypto/aes-internal-dec.o
 .text          0x00000000401073a1        0x0 libcrypto/aes-internal-enc.o
 .text          0x00000000401073a1        0x0 libcrypto/aes-internal.o
 .text          0x00000000401073a1        0x0 libcrypto/aes-wrap.o
 .text          0x00000000401073a1        0x0 libcrypto/crypto_internal-cipher.o
 .text          0x00000000401073a1        0x0 libcrypto/crypto_internal-modexp.o
 .text          0x00000000401073a1        0x0 libcrypto/crypto_internal.o
 .text          0x00000000401073a1        0x0 libcrypto/crypto_internal-rsa.o
 .text          0x00000000401073a1        0x0 libcrypto/des-internal.o
 .text          0x00000000401073a1        0x0 libcrypto/dh_group5.o
 *fill*         0x00000000401073a1        0x3 
 .literal       0x00000000401073a4        0x0 libcrypto/dh_groups.o
 .text          0x00000000401073a4        0xb libcrypto/dh_groups.o
 .text          0x00000000401073af        0x0 libcrypto/md4-internal.o
 .text          0x00000000401073af        0x0 libcrypto/ms_funcs.o
 .text          0x00000000401073af        0x0 libcrypto/sha256-internal.o
 .text          0x00000000401073af        0x0 libcrypto/sha256.o
 *fill*         0x00000000401073af        0x1 
 .literal       0x00000000401073b0        0x0 libespnow/espnow.o
 .text          0x00000000401073b0        0x5 libespnow/espnow.o
                0x00000000401073b0                esp_now_get_version
 .text          0x00000000401073b5        0x0 libespnow/manatick.o
 .text          0x00000000401073b5        0x0 libespnow/simple_pair.o
 .text          0x00000000401073b5        0x0 liblwip/api_lib.o
 .text          0x00000000401073b5        0x0 liblwip/api_msg.o
 .text          0x00000000401073b5        0x0 liblwip/autoip.o
 .text          0x00000000401073b5        0x0 liblwip/def.o
 .text          0x00000000401073b5        0x0 liblwip/dhcp.o
 .text          0x00000000401073b5        0x0 liblwip/dhcpserver.o
 .text          0x00000000401073b5        0x0 liblwip/dns.o
 .text          0x00000000401073b5        0x0 liblwip/err.o
 *fill*         0x00000000401073b5        0x3 
 .literal       0x00000000401073b8        0x0 liblwip/espconn_buf.o
 .text          0x00000000401073b8        0x0 liblwip/espconn_mdns.o
 .text          0x00000000401073b8        0x0 liblwip/espconn.o
 .text          0x00000000401073b8        0x0 liblwip/espconn_tcp.o
 .text          0x00000000401073b8        0x0 liblwip/espconn_udp.o
 *fill*         0x00000000401073b8        0x0 
 .literal       0x00000000401073b8        0x0 liblwip/etharp.o
 .text          0x00000000401073b8        0x0 liblwip/icmp.o
 .text          0x00000000401073b8        0x0 liblwip/igmp.o
 .text          0x00000000401073b8        0x0 liblwip/inet_chksum.o
 .text          0x00000000401073b8        0x0 liblwip/inet.o
 .text          0x00000000401073b8        0x0 liblwip/init.o
 .text          0x00000000401073b8        0x0 liblwip/ip_addr.o
 .text          0x00000000401073b8        0x0 liblwip/ip_frag.o
 .text          0x00000000401073b8        0x0 liblwip/ip.o
 .text          0x00000000401073b8        0x0 liblwip/mdns.o
 .text          0x00000000401073b8        0x0 liblwip/mem.o
 .text          0x00000000401073b8        0x0 liblwip/memp.o
 .text          0x00000000401073b8        0x0 liblwip/netbuf.o
 .text          0x00000000401073b8        0x0 liblwip/netdb.o
 .text          0x00000000401073b8        0x0 liblwip/netifapi.o
 .text          0x00000000401073b8        0x0 liblwip/netif.o
 .text          0x00000000401073b8        0x0 liblwip/netio.o
 .text          0x00000000401073b8        0x0 liblwip/pbuf.o
 .text          0x00000000401073b8        0x0 liblwip/ping.o
 .text          0x00000000401073b8        0x0 liblwip/raw.o
 *fill*         0x00000000401073b8        0x0 
 .literal       0x00000000401073b8        0x0 liblwip/sntp.o
 .text          0x00000000401073b8        0x0 liblwip/sockets.o
 .text          0x00000000401073b8        0x0 liblwip/stats.o
 .text          0x00000000401073b8        0x0 liblwip/sys_arch.o
 .text          0x00000000401073b8        0x0 liblwip/sys.o
 .text          0x00000000401073b8        0x0 liblwip/tcp_in.o
 .text          0x00000000401073b8        0x0 liblwip/tcpip.o
 .literal       0x00000000401073b8        0x0 liblwip/tcp.o
 *fill*         0x00000000401073b8        0x0 
 .literal       0x00000000401073b8        0x0 liblwip/tcp_out.o
 *fill*         0x00000000401073b8        0x0 
 .literal       0x00000000401073b8        0x0 liblwip/timers.o
 .text          0x00000000401073b8        0x0 liblwip/udp.o
 .literal       0x00000000401073b8        0x0 libmain/app_main.o
 .text          0x00000000401073b8        0x0 libmain/debug-vector.o
 .text          0x00000000401073b8        0x0 libmain/double-vector.o
 .text          0x00000000401073b8        0x0 libmain/eagle_lib.o
 .text          0x00000000401073b8        0x0 libmain/eagle_lwip_if.o
 *fill*         0x00000000401073b8        0x0 
 .literal       0x00000000401073b8        0x0 libmain/ets_timer.o
 .text          0x00000000401073b8        0x0 libmain/kernel-vector.o
 .literal       0x00000000401073b8        0x0 libmain/mem_manager.o
 *fill*         0x00000000401073b8        0x0 
 .literal       0x00000000401073b8        0x0 libmain/nmi-vector.o
 *fill*         0x00000000401073b8        0x0 
 .literal       0x00000000401073b8        0x0 libmain/spi_flash.o
 .text          0x00000000401073b8        0x0 libmain/spi_overlap.o
 *fill*         0x00000000401073b8        0x0 
 .literal       0x00000000401073b8        0x0 libmain/time.o
 *fill*         0x00000000401073b8        0x0 
 .literal       0x00000000401073b8        0x0 libmain/user_interface.o
 *fill*         0x00000000401073b8        0x0 
 .literal       0x00000000401073b8        0x0 libmain/user-vector.o
 .text          0x00000000401073b8        0x0 libmain/vector.o
 .text          0x00000000401073b8        0x0 libmesh/espconn_base64.o
 *fill*         0x00000000401073b8        0x0 
 .literal       0x00000000401073b8        0x0 libmesh/espconn_mesh.o
 .text          0x00000000401073b8        0x0 libnet80211/ieee80211_action.o
 .text          0x00000000401073b8        0x0 libnet80211/ieee80211_action_vendor.o
 .text          0x00000000401073b8        0x0 libnet80211/ieee80211_crypto_ccmp.o
 .text          0x00000000401073b8        0x0 libnet80211/ieee80211_crypto.o
 .text          0x00000000401073b8        0x0 libnet80211/ieee80211_crypto_tkip.o
 .text          0x00000000401073b8        0x0 libnet80211/ieee80211_crypto_wep.o
 .text          0x00000000401073b8        0x0 libnet80211/ieee80211_ets.o
 .literal       0x00000000401073b8        0x0 libnet80211/ieee80211_hostap.o
 .text          0x00000000401073b8       0x25 libnet80211/ieee80211_hostap.o
 .text          0x00000000401073dd        0x0 libnet80211/ieee80211_ht.o
 .text          0x00000000401073dd        0x0 libnet80211/ieee80211_hwmp.o
 .text          0x00000000401073dd        0x0 libnet80211/ieee80211_ie_vendor.o
 .text          0x00000000401073dd        0x0 libnet80211/ieee80211_input.o
 .text          0x00000000401073dd        0x0 libnet80211/ieee80211_mesh.o
 .text          0x00000000401073dd        0x0 libnet80211/ieee80211_mesh_quick.o
 .text          0x00000000401073dd        0x0 libnet80211/ieee80211_node.o
 .text          0x00000000401073dd        0x0 libnet80211/ieee80211.o
 *fill*         0x00000000401073dd        0x3 
 .literal       0x00000000401073e0        0x0 libnet80211/ieee80211_output.o
 .text          0x00000000401073e0        0x0 libnet80211/ieee80211_phy.o
 .text          0x00000000401073e0        0x0 libnet80211/ieee80211_power.o
 .text          0x00000000401073e0        0x0 libnet80211/ieee80211_proto.o
 .text          0x00000000401073e0        0x0 libnet80211/ieee80211_regdomain.o
 .text          0x00000000401073e0        0x0 libnet80211/ieee80211_rfid.o
 .text          0x00000000401073e0        0x0 libnet80211/ieee80211_scan.o
 .text          0x00000000401073e0        0x0 libnet80211/ieee80211_sta.o
 .text          0x00000000401073e0        0x0 libnet80211/if_eagle.o
 *fill*         0x00000000401073e0        0x0 
 .literal       0x00000000401073e0        0x0 libnet80211/wl_chm.o
 .text          0x00000000401073e0        0x0 libnet80211/wl_cnx.o
 .text          0x00000000401073e0        0x0 libphy/ate_test.o
 *fill*         0x00000000401073e0        0x0 
 .literal       0x00000000401073e0        0x0 libphy/phy_chip_v6_ana.o
 *fill*         0x00000000401073e0        0x0 
 .literal       0x00000000401073e0        0x0 libphy/phy_chip_v6_cal.o
 *fill*         0x00000000401073e0        0x0 
 .literal       0x00000000401073e0        0x0 libphy/phy_chip_v6.o
 .text          0x00000000401073e0        0x0 libphy/phy_chip_v6_unused.o
 *fill*         0x00000000401073e0        0x0 
 .literal       0x00000000401073e0        0x0 libphy/phy.o
 *fill*         0x00000000401073e0        0x0 
 .literal       0x00000000401073e0        0x0 libphy/phy_sleep.o
 *fill*         0x00000000401073e0        0x0 
 .literal       0x00000000401073e0        0x0 libpp/esf_buf.o
 .text          0x00000000401073e0        0x0 libpp/if_hwctrl.o
 .literal       0x00000000401073e0        0x0 libpp/lmac.o
 .text          0x00000000401073e0        0x0 libpp/mac_frame.o
 .text          0x00000000401073e0        0x0 libpp/pm_for_bcn_only_mode.o
 .text          0x00000000401073e0        0x0 libpp/pm.o
 *fill*         0x00000000401073e0        0x0 
 .literal       0x00000000401073e0        0x0 libpp/pp.o
 *fill*         0x00000000401073e0        0x0 
 .literal       0x00000000401073e0        0x0 libpp/rate_control.o
 *fill*         0x00000000401073e0        0x0 
 .literal       0x00000000401073e0        0x0 libpp/trc.o
 *fill*         0x00000000401073e0        0x0 
 .literal       0x00000000401073e0        0x0 libpp/wdev.o
 *fill*         0x00000000401073e0        0x0 
 .literal       0x00000000401073e0        0x0 libpwm/pwm.o
 .text          0x00000000401073e0        0x0 libsmartconfig/sc_airkiss.o
 .text          0x00000000401073e0        0x0 libsmartconfig/sc_esptouch.o
 .text          0x00000000401073e0        0x0 libsmartconfig/sc_sniffer.o
 .text          0x00000000401073e0        0x0 libssl/espconn_secure.o
 .text          0x00000000401073e0        0x0 libssl/espconn_ssl.o
 .text          0x00000000401073e0        0x0 libssl/sha256.o
 .text          0x00000000401073e0        0x0 libssl/sha384.o
 .text          0x00000000401073e0        0x0 libssl/sha512.o
 .text          0x00000000401073e0        0x0 libssl/ssl_aes.o
 .text          0x00000000401073e0        0x0 libssl/ssl_asn1.o
 .text          0x00000000401073e0        0x0 libssl/ssl_bigint.o
 .text          0x00000000401073e0        0x0 libssl/ssl_crypto_misc.o
 .text          0x00000000401073e0        0x0 libssl/ssl_gen_cert.o
 .text          0x00000000401073e0        0x0 libssl/ssl_hmac.o
 .text          0x00000000401073e0        0x0 libssl/ssl_loader.o
 .text          0x00000000401073e0        0x0 libssl/ssl_md5.o
 .text          0x00000000401073e0        0x0 libssl/ssl_openssl.o
 .text          0x00000000401073e0        0x0 libssl/ssl_os_port.o
 .text          0x00000000401073e0        0x0 libssl/ssl_p12.o
 .text          0x00000000401073e0        0x0 libssl/ssl_rc4.o
 .text          0x00000000401073e0        0x0 libssl/ssl_rsa.o
 .text          0x00000000401073e0        0x0 libssl/ssl_sha1.o
 .text          0x00000000401073e0        0x0 libssl/ssl_tls1_clnt.o
 .text          0x00000000401073e0        0x0 libssl/ssl_tls1.o
 .text          0x00000000401073e0        0x0 libssl/ssl_tls1_svr.o
 .text          0x00000000401073e0        0x0 libssl/ssl_x509.o
 .text          0x00000000401073e0        0x0 libwpa/ap_config.o
 .text          0x00000000401073e0        0x0 libwpa/common.o
 .text          0x00000000401073e0        0x0 libwpa/os_xtensa.o
 .text          0x00000000401073e0        0x0 libwpa/sta_info.o
 .text          0x00000000401073e0        0x0 libwpa/wpa_auth_ie.o
 *fill*         0x00000000401073e0        0x0 
 .literal       0x00000000401073e0        0x0 libwpa/wpa_auth.o
 .text          0x00000000401073e0       0x11 libwpa/wpa_auth.o
 *fill*         0x00000000401073f1        0x3 
 .literal       0x00000000401073f4        0x0 libwpa/wpabuf.o
 .text          0x00000000401073f4        0x0 libwpa/wpa_common.o
 .text          0x00000000401073f4        0x0 libwpa/wpa_debug.o
 .text          0x00000000401073f4        0x0 libwpa/wpa_ie.o
 .text          0x00000000401073f4        0x0 libwpa/wpa_main.o
 .text          0x00000000401073f4        0x0 libwpa/wpa.o
 .text          0x00000000401073f4        0x0 libwpa/wpas_glue.o
 .text          0x00000000401073f4        0x0 libwps/uuid.o
 *fill*         0x00000000401073f4        0x0 
 .literal       0x00000000401073f4        0x0 libwps/wps_attr_build.o
 .text          0x00000000401073f4        0x0 libwps/wps_attr_parse.o
 .text          0x00000000401073f4        0x0 libwps/wps_attr_process.o
 .text          0x00000000401073f4        0x0 libwps/wps_common.o
 *fill*         0x00000000401073f4        0x0 
 .literal       0x00000000401073f4        0x0 libwps/wps_dev_attr.o
 *fill*         0x00000000401073f4        0x0 
 .literal       0x00000000401073f4        0x0 libwps/wps_enrollee.o
 .literal       0x00000000401073f4        0x0 libwps/wps.o
 .literal       0x00000000401073f4        0x0 libwps/wps_registrar.o
 .text          0x00000000401073f4        0x0 libwps/wps_validate.o
 *fill*         0x00000000401073f4        0x0 
 .text          0x00000000401073f4       0x23 ../empty_user.o
                0x00000000401073f4                user_init
                0x0000000040107404                user_rf_cal_sector_set
 *fill*         0x0000000040107417        0x1 
 .text          0x0000000040107418       0x4a ../empty_libgcc.o
                0x0000000040107418                __modsi3
                0x0000000040107428                __divsf3
                0x0000000040107438                __fixsfsi
                0x000000004010744c                __ashrdi3
 *fill*         0x0000000040107462        0x0 
 *fill*         0x0000000040107462        0x2 
 .text          0x0000000040107464       0x17 /mnt/hdd/projects-3rdparty/xtensa/esp-open-sdk/xtensa-lx106-elf/bin/../lib/gcc/xtensa-lx106-elf/4.8.5/../../../../xtensa-lx106-elf/lib/libc.a(lib_a-memchr.o)
                0x0000000040107464                memchr
 *fill*         0x000000004010747b        0x1 
 .text          0x000000004010747c       0x23 /mnt/hdd/projects-3rdparty/xtensa/esp-open-sdk/xtensa-lx106-elf/bin/../lib/gcc/xtensa-lx106-elf/4.8.5/../../../../xtensa-lx106-elf/lib/libc.a(lib_a-memcmp.o)
                0x000000004010747c                memcmp
 *fill*         0x000000004010749f        0x1 
 .text          0x00000000401074a0      0x145 /mnt/hdd/projects-3rdparty/xtensa/esp-open-sdk/xtensa-lx106-elf/bin/../lib/gcc/xtensa-lx106-elf/4.8.5/../../../../xtensa-lx106-elf/lib/libc.a(lib_a-memcpy.o)
                0x00000000401074e4                memcpy
 *fill*         0x00000000401075e5        0x0 
 *fill*         0x00000000401075e5        0x0 
 *fill*         0x00000000401075e5        0x0 
 .text          0x00000000401075e5        0x0 /mnt/hdd/projects-3rdparty/xtensa/esp-open-sdk/xtensa-lx106-elf/bin/../lib/gcc/xtensa-lx106-elf/4.8.5/../../../../xtensa-lx106-elf/lib/libc.a(lib_a-ctype_.o)
 .text          0x00000000401075e5        0x0 /mnt/hdd/projects-3rdparty/xtensa/esp-open-sdk/xtensa-lx106-elf/bin/../lib/gcc/xtensa-lx106-elf/4.8.5/../../../../xtensa-lx106-elf/lib/libc.a(lib_a-impure.o)
 *(.fini.literal)
 *(.fini)
 *(.gnu.version)
                0x00000000401075e5                _text_end = ABSOLUTE (.)
                0x00000000401075e5                _etext = .

.NMIExceptionVector.literal
                0x00000000401075e8        0x0
 .NMIExceptionVector.literal
                0x00000000401075e8        0x0 libmain/nmi-vector.o

.UserExceptionVector.literal
                0x00000000401075e8        0x0
 .UserExceptionVector.literal
                0x00000000401075e8        0x0 libmain/user-vector.o

.UserEnter.literal
                0x00000000401075e8        0x0
 .UserEnter.literal
                0x00000000401075e8        0x0 libmain/vector.o

.lit4           0x00000000401075e8        0x0
                0x00000000401075e8                _lit4_start = ABSOLUTE (.)
 *(*.lit4)
 *(.lit4.*)
 *(.gnu.linkonce.lit4.*)
                0x00000000401075e8                _lit4_end = ABSOLUTE (.)
                0x00000000400047f0                PROVIDE (Cache_Read_Disable, 0x400047f0)
                0x0000000040004678                PROVIDE (Cache_Read_Enable, 0x40004678)
                [!provide]                        PROVIDE (FilePacketSendReqMsgProc, 0x400035a0)
                [!provide]                        PROVIDE (FlashDwnLdParamCfgMsgProc, 0x4000368c)
                [!provide]                        PROVIDE (FlashDwnLdStartMsgProc, 0x40003538)
                [!provide]                        PROVIDE (FlashDwnLdStopReqMsgProc, 0x40003658)
                [!provide]                        PROVIDE (GetUartDevice, 0x40003f4c)
                0x0000000040009900                PROVIDE (MD5Final, 0x40009900)
                0x0000000040009818                PROVIDE (MD5Init, 0x40009818)
                0x0000000040009834                PROVIDE (MD5Update, 0x40009834)
                [!provide]                        PROVIDE (MemDwnLdStartMsgProc, 0x400036c4)
                [!provide]                        PROVIDE (MemDwnLdStopReqMsgProc, 0x4000377c)
                [!provide]                        PROVIDE (MemPacketSendReqMsgProc, 0x400036f0)
                [!provide]                        PROVIDE (RcvMsg, 0x40003eac)
                0x000000004000b648                PROVIDE (SHA1Final, 0x4000b648)
                0x000000004000b584                PROVIDE (SHA1Init, 0x4000b584)
                [!provide]                        PROVIDE (SHA1Transform, 0x4000a364)
                0x000000004000b5a8                PROVIDE (SHA1Update, 0x4000b5a8)
                0x00000000400043c8                PROVIDE (SPI_read_status, 0x400043c8)
                0x0000000040004400                PROVIDE (SPI_write_status, 0x40004400)
                0x000000004000443c                PROVIDE (SPI_write_enable, 0x4000443c)
                0x000000004000448c                PROVIDE (Wait_SPI_Idle, 0x4000448c)
                0x00000000400044c0                PROVIDE (Enable_QMode, 0x400044c0)
                [!provide]                        PROVIDE (SPIEraseArea, 0x40004b44)
                [!provide]                        PROVIDE (SPIEraseBlock, 0x400049b4)
                [!provide]                        PROVIDE (SPIEraseChip, 0x40004984)
                0x0000000040004a00                PROVIDE (SPIEraseSector, 0x40004a00)
                [!provide]                        PROVIDE (SPILock, 0x400048a8)
                [!provide]                        PROVIDE (SPIParamCfg, 0x40004c2c)
                0x0000000040004b1c                PROVIDE (SPIRead, 0x40004b1c)
                [!provide]                        PROVIDE (SPIReadModeCnfig, 0x400048ec)
                [!provide]                        PROVIDE (SPIUnlock, 0x40004878)
                0x0000000040004a4c                PROVIDE (SPIWrite, 0x40004a4c)
                [!provide]                        PROVIDE (SelectSpiFunction, 0x40003f58)
                [!provide]                        PROVIDE (SendMsg, 0x40003cf4)
                [!provide]                        PROVIDE (UartConnCheck, 0x40003230)
                [!provide]                        PROVIDE (UartConnectProc, 0x400037a0)
                [!provide]                        PROVIDE (UartDwnLdProc, 0x40003368)
                [!provide]                        PROVIDE (UartGetCmdLn, 0x40003ef4)
                [!provide]                        PROVIDE (UartRegReadProc, 0x4000381c)
                [!provide]                        PROVIDE (UartRegWriteProc, 0x400037ac)
                [!provide]                        PROVIDE (UartRxString, 0x40003c30)
                0x0000000040003a14                PROVIDE (Uart_Init, 0x40003a14)
                [!provide]                        PROVIDE (_DebugExceptionVector, 0x40000010)
                [!provide]                        PROVIDE (_DoubleExceptionVector, 0x40000070)
                [!provide]                        PROVIDE (_KernelExceptionVector, 0x40000030)
                [!provide]                        PROVIDE (_NMIExceptionVector, 0x40000020)
                [!provide]                        PROVIDE (_ResetHandler, 0x400000a4)
                [!provide]                        PROVIDE (_ResetVector, 0x40000080)
                [!provide]                        PROVIDE (_UserExceptionVector, 0x40000050)
                [!provide]                        PROVIDE (__adddf3, 0x4000c538)
                0x000000004000c180                PROVIDE (__addsf3, 0x4000c180)
                0x000000004000cb94                PROVIDE (__divdf3, 0x4000cb94)
                0x000000004000ce60                PROVIDE (__divdi3, 0x4000ce60)
                0x000000004000dc88                PROVIDE (__divsi3, 0x4000dc88)
                [!provide]                        PROVIDE (__extendsfdf2, 0x4000cdfc)
                0x000000004000ccb8                PROVIDE (__fixdfsi, 0x4000ccb8)
                [!provide]                        PROVIDE (__fixunsdfsi, 0x4000cd00)
                0x000000004000c4c4                PROVIDE (__fixunssfsi, 0x4000c4c4)
                0x000000004000e2f0                PROVIDE (__floatsidf, 0x4000e2f0)
                0x000000004000e2ac                PROVIDE (__floatsisf, 0x4000e2ac)
                0x000000004000e2e8                PROVIDE (__floatunsidf, 0x4000e2e8)
                0x000000004000e2a4                PROVIDE (__floatunsisf, 0x4000e2a4)
                0x000000004000c8f0                PROVIDE (__muldf3, 0x4000c8f0)
                0x0000000040000650                PROVIDE (__muldi3, 0x40000650)
                0x000000004000c3dc                PROVIDE (__mulsf3, 0x4000c3dc)
                [!provide]                        PROVIDE (__subdf3, 0x4000c688)
                0x000000004000c268                PROVIDE (__subsf3, 0x4000c268)
                0x000000004000cd5c                PROVIDE (__truncdfsf2, 0x4000cd5c)
                0x000000004000d310                PROVIDE (__udivdi3, 0x4000d310)
                0x000000004000e21c                PROVIDE (__udivsi3, 0x4000e21c)
                0x000000004000d770                PROVIDE (__umoddi3, 0x4000d770)
                0x000000004000e268                PROVIDE (__umodsi3, 0x4000e268)
                0x000000004000dcf0                PROVIDE (__umulsidi3, 0x4000dcf0)
                [!provide]                        PROVIDE (_rom_store, 0x4000e388)
                [!provide]                        PROVIDE (_rom_store_table, 0x4000e328)
                [!provide]                        PROVIDE (_start, 0x4000042c)
                [!provide]                        PROVIDE (_xtos_alloca_handler, 0x4000dbe0)
                [!provide]                        PROVIDE (_xtos_c_wrapper_handler, 0x40000598)
                [!provide]                        PROVIDE (_xtos_cause3_handler, 0x40000590)
                [!provide]                        PROVIDE (_xtos_ints_off, 0x4000bda4)
                [!provide]                        PROVIDE (_xtos_ints_on, 0x4000bd84)
                [!provide]                        PROVIDE (_xtos_l1int_handler, 0x4000048c)
                [!provide]                        PROVIDE (_xtos_p_none, 0x4000dbf8)
                [!provide]                        PROVIDE (_xtos_restore_intlevel, 0x4000056c)
                [!provide]                        PROVIDE (_xtos_return_from_exc, 0x4000dc54)
                0x0000000040000454                PROVIDE (_xtos_set_exception_handler, 0x40000454)
                [!provide]                        PROVIDE (_xtos_set_interrupt_handler, 0x4000bd70)
                [!provide]                        PROVIDE (_xtos_set_interrupt_handler_arg, 0x4000bd28)
                [!provide]                        PROVIDE (_xtos_set_intlevel, 0x4000dbfc)
                [!provide]                        PROVIDE (_xtos_set_min_intlevel, 0x4000dc18)
                [!provide]                        PROVIDE (_xtos_set_vpri, 0x40000574)
                [!provide]                        PROVIDE (_xtos_syscall_handler, 0x4000dbe4)
                [!provide]                        PROVIDE (_xtos_unhandled_exception, 0x4000dc44)
                [!provide]                        PROVIDE (_xtos_unhandled_interrupt, 0x4000dc3c)
                [!provide]                        PROVIDE (aes_decrypt, 0x400092d4)
                [!provide]                        PROVIDE (aes_decrypt_deinit, 0x400092e4)
                [!provide]                        PROVIDE (aes_decrypt_init, 0x40008ea4)
                0x0000000040009410                PROVIDE (aes_unwrap, 0x40009410)
                [!provide]                        PROVIDE (base64_decode, 0x40009648)
                0x00000000400094fc                PROVIDE (base64_encode, 0x400094fc)
                [!provide]                        PROVIDE (bzero, 0x4000de84)
                [!provide]                        PROVIDE (cmd_parse, 0x40000814)
                [!provide]                        PROVIDE (conv_str_decimal, 0x40000b24)
                [!provide]                        PROVIDE (conv_str_hex, 0x40000cb8)
                [!provide]                        PROVIDE (convert_para_str, 0x40000a60)
                [!provide]                        PROVIDE (dtm_get_intr_mask, 0x400026d0)
                [!provide]                        PROVIDE (dtm_params_init, 0x4000269c)
                [!provide]                        PROVIDE (dtm_set_intr_mask, 0x400026c8)
                [!provide]                        PROVIDE (dtm_set_params, 0x400026dc)
                [!provide]                        PROVIDE (eprintf, 0x40001d14)
                [!provide]                        PROVIDE (eprintf_init_buf, 0x40001cb8)
                [!provide]                        PROVIDE (eprintf_to_host, 0x40001d48)
                [!provide]                        PROVIDE (est_get_printf_buf_remain_len, 0x40002494)
                [!provide]                        PROVIDE (est_reset_printf_buf_len, 0x4000249c)
                0x0000000040002ae8                PROVIDE (ets_bzero, 0x40002ae8)
                [!provide]                        PROVIDE (ets_char2xdigit, 0x40002b74)
                0x0000000040002ecc                PROVIDE (ets_delay_us, 0x40002ecc)
                [!provide]                        PROVIDE (ets_enter_sleep, 0x400027b8)
                [!provide]                        PROVIDE (ets_external_printf, 0x40002578)
                0x0000000040002f0c                PROVIDE (ets_get_cpu_frequency, 0x40002f0c)
                [!provide]                        PROVIDE (ets_getc, 0x40002bcc)
                [!provide]                        PROVIDE (ets_install_external_printf, 0x40002450)
                0x000000004000242c                PROVIDE (ets_install_putc1, 0x4000242c)
                [!provide]                        PROVIDE (ets_install_putc2, 0x4000248c)
                [!provide]                        PROVIDE (ets_install_uart_printf, 0x40002438)
                0x0000000040000f74                PROVIDE (ets_intr_lock, 0x40000f74)
                0x0000000040000f80                PROVIDE (ets_intr_unlock, 0x40000f80)
                0x0000000040000f88                PROVIDE (ets_isr_attach, 0x40000f88)
                0x0000000040000f98                PROVIDE (ets_isr_mask, 0x40000f98)
                0x0000000040000fa8                PROVIDE (ets_isr_unmask, 0x40000fa8)
                0x00000000400018d4                PROVIDE (ets_memcmp, 0x400018d4)
                0x00000000400018b4                PROVIDE (ets_memcpy, 0x400018b4)
                0x00000000400018c4                PROVIDE (ets_memmove, 0x400018c4)
                0x00000000400018a4                PROVIDE (ets_memset, 0x400018a4)
                0x0000000040000e24                PROVIDE (ets_post, 0x40000e24)
                0x00000000400024cc                PROVIDE (ets_printf, 0x400024cc)
                0x0000000040002be8                PROVIDE (ets_putc, 0x40002be8)
                [!provide]                        PROVIDE (ets_rtc_int_register, 0x40002a40)
                0x0000000040000e04                PROVIDE (ets_run, 0x40000e04)
                0x0000000040000dc0                PROVIDE (ets_set_idle_cb, 0x40000dc0)
                [!provide]                        PROVIDE (ets_set_user_start, 0x40000fbc)
                [!provide]                        PROVIDE (ets_str2macaddr, 0x40002af8)
                0x0000000040002aa8                PROVIDE (ets_strcmp, 0x40002aa8)
                0x0000000040002a88                PROVIDE (ets_strcpy, 0x40002a88)
                0x0000000040002ac8                PROVIDE (ets_strlen, 0x40002ac8)
                0x0000000040002ab8                PROVIDE (ets_strncmp, 0x40002ab8)
                0x0000000040002a98                PROVIDE (ets_strncpy, 0x40002a98)
                0x0000000040002ad8                PROVIDE (ets_strstr, 0x40002ad8)
                0x0000000040000dd0                PROVIDE (ets_task, 0x40000dd0)
                [!provide]                        PROVIDE (ets_timer_arm, 0x40002cc4)
                [!provide]                        PROVIDE (ets_timer_disarm, 0x40002d40)
                [!provide]                        PROVIDE (ets_timer_done, 0x40002d80)
                [!provide]                        PROVIDE (ets_timer_handler_isr, 0x40002da8)
                [!provide]                        PROVIDE (ets_timer_init, 0x40002e68)
                [!provide]                        PROVIDE (ets_timer_setfn, 0x40002c48)
                [!provide]                        PROVIDE (ets_uart_printf, 0x40002544)
                0x0000000040002f04                PROVIDE (ets_update_cpu_frequency, 0x40002f04)
                0x0000000040001f00                PROVIDE (ets_vprintf, 0x40001f00)
                [!provide]                        PROVIDE (ets_wdt_disable, 0x400030f0)
                [!provide]                        PROVIDE (ets_wdt_enable, 0x40002fa0)
                [!provide]                        PROVIDE (ets_wdt_get_mode, 0x40002f34)
                [!provide]                        PROVIDE (ets_wdt_init, 0x40003170)
                [!provide]                        PROVIDE (ets_wdt_restore, 0x40003158)
                0x0000000040001da0                PROVIDE (ets_write_char, 0x40001da0)
                [!provide]                        PROVIDE (get_first_seg, 0x4000091c)
                [!provide]                        PROVIDE (gpio_init, 0x40004c50)
                0x0000000040004cf0                PROVIDE (gpio_input_get, 0x40004cf0)
                [!provide]                        PROVIDE (gpio_intr_ack, 0x40004dcc)
                [!provide]                        PROVIDE (gpio_intr_handler_register, 0x40004e28)
                [!provide]                        PROVIDE (gpio_intr_pending, 0x40004d88)
                [!provide]                        PROVIDE (gpio_intr_test, 0x40004efc)
                0x0000000040004cd0                PROVIDE (gpio_output_set, 0x40004cd0)
                [!provide]                        PROVIDE (gpio_pin_intr_state_set, 0x40004d90)
                0x0000000040004ed4                PROVIDE (gpio_pin_wakeup_disable, 0x40004ed4)
                0x0000000040004e90                PROVIDE (gpio_pin_wakeup_enable, 0x40004e90)
                [!provide]                        PROVIDE (gpio_register_get, 0x40004d5c)
                [!provide]                        PROVIDE (gpio_register_set, 0x40004d04)
                0x000000004000a2cc                PROVIDE (hmac_md5, 0x4000a2cc)
                0x000000004000a160                PROVIDE (hmac_md5_vector, 0x4000a160)
                0x000000004000ba28                PROVIDE (hmac_sha1, 0x4000ba28)
                0x000000004000b8b4                PROVIDE (hmac_sha1_vector, 0x4000b8b4)
                0x0000000040004f40                PROVIDE (lldesc_build_chain, 0x40004f40)
                0x0000000040005050                PROVIDE (lldesc_num2link, 0x40005050)
                [!provide]                        PROVIDE (lldesc_set_owner, 0x4000507c)
                [!provide]                        PROVIDE (main, 0x40000fec)
                0x00000000400097ac                PROVIDE (md5_vector, 0x400097ac)
                [!provide]                        PROVIDE (mem_calloc, 0x40001c2c)
                [!provide]                        PROVIDE (mem_free, 0x400019e0)
                [!provide]                        PROVIDE (mem_init, 0x40001998)
                [!provide]                        PROVIDE (mem_malloc, 0x40001b40)
                [!provide]                        PROVIDE (mem_realloc, 0x40001c6c)
                [!provide]                        PROVIDE (mem_trim, 0x40001a14)
                [!provide]                        PROVIDE (mem_zalloc, 0x40001c58)
                [!provide]                        PROVIDE (memcmp, 0x4000dea8)
                [!provide]                        PROVIDE (memcpy, 0x4000df48)
                [!provide]                        PROVIDE (memmove, 0x4000e04c)
                [!provide]                        PROVIDE (memset, 0x4000e190)
                [!provide]                        PROVIDE (multofup, 0x400031c0)
                0x000000004000b840                PROVIDE (pbkdf2_sha1, 0x4000b840)
                0x0000000040006b08                PROVIDE (phy_get_romfuncs, 0x40006b08)
                [!provide]                        PROVIDE (rand, 0x40000600)
                0x000000004000dd68                PROVIDE (rc4_skip, 0x4000dd68)
                [!provide]                        PROVIDE (recv_packet, 0x40003d08)
                [!provide]                        PROVIDE (remove_head_space, 0x40000a04)
                [!provide]                        PROVIDE (rijndaelKeySetupDec, 0x40008dd0)
                [!provide]                        PROVIDE (rijndaelKeySetupEnc, 0x40009300)
                [!provide]                        PROVIDE (rom_abs_temp, 0x400060c0)
                [!provide]                        PROVIDE (rom_ana_inf_gating_en, 0x40006b10)
                [!provide]                        PROVIDE (rom_cal_tos_v50, 0x40007a28)
                [!provide]                        PROVIDE (rom_chip_50_set_channel, 0x40006f84)
                0x00000000400060d0                PROVIDE (rom_chip_v5_disable_cca, 0x400060d0)
                0x00000000400060ec                PROVIDE (rom_chip_v5_enable_cca, 0x400060ec)
                [!provide]                        PROVIDE (rom_chip_v5_rx_init, 0x4000711c)
                [!provide]                        PROVIDE (rom_chip_v5_sense_backoff, 0x4000610c)
                [!provide]                        PROVIDE (rom_chip_v5_tx_init, 0x4000718c)
                [!provide]                        PROVIDE (rom_dc_iq_est, 0x4000615c)
                [!provide]                        PROVIDE (rom_en_pwdet, 0x400061b8)
                [!provide]                        PROVIDE (rom_get_bb_atten, 0x40006238)
                [!provide]                        PROVIDE (rom_get_corr_power, 0x40006260)
                [!provide]                        PROVIDE (rom_get_fm_sar_dout, 0x400062dc)
                [!provide]                        PROVIDE (rom_get_noisefloor, 0x40006394)
                [!provide]                        PROVIDE (rom_get_power_db, 0x400063b0)
                [!provide]                        PROVIDE (rom_i2c_readReg, 0x40007268)
                [!provide]                        PROVIDE (rom_i2c_readReg_Mask, 0x4000729c)
                [!provide]                        PROVIDE (rom_i2c_writeReg, 0x400072d8)
                [!provide]                        PROVIDE (rom_i2c_writeReg_Mask, 0x4000730c)
                [!provide]                        PROVIDE (rom_iq_est_disable, 0x40006400)
                [!provide]                        PROVIDE (rom_iq_est_enable, 0x40006430)
                [!provide]                        PROVIDE (rom_linear_to_db, 0x40006484)
                [!provide]                        PROVIDE (rom_mhz2ieee, 0x400065a4)
                [!provide]                        PROVIDE (rom_pbus_dco___SA2, 0x40007bf0)
                [!provide]                        PROVIDE (rom_pbus_debugmode, 0x4000737c)
                [!provide]                        PROVIDE (rom_pbus_enter_debugmode, 0x40007410)
                [!provide]                        PROVIDE (rom_pbus_exit_debugmode, 0x40007448)
                [!provide]                        PROVIDE (rom_pbus_force_test, 0x4000747c)
                [!provide]                        PROVIDE (rom_pbus_rd, 0x400074d8)
                [!provide]                        PROVIDE (rom_pbus_set_rxgain, 0x4000754c)
                [!provide]                        PROVIDE (rom_pbus_set_txgain, 0x40007610)
                [!provide]                        PROVIDE (rom_pbus_workmode, 0x40007648)
                [!provide]                        PROVIDE (rom_pbus_xpd_rx_off, 0x40007688)
                [!provide]                        PROVIDE (rom_pbus_xpd_rx_on, 0x400076cc)
                [!provide]                        PROVIDE (rom_pbus_xpd_tx_off, 0x400076fc)
                [!provide]                        PROVIDE (rom_pbus_xpd_tx_on, 0x40007740)
                [!provide]                        PROVIDE (rom_pbus_xpd_tx_on__low_gain, 0x400077a0)
                [!provide]                        PROVIDE (rom_phy_reset_req, 0x40007804)
                [!provide]                        PROVIDE (rom_restart_cal, 0x4000781c)
                [!provide]                        PROVIDE (rom_rfcal_pwrctrl, 0x40007eb4)
                [!provide]                        PROVIDE (rom_rfcal_rxiq, 0x4000804c)
                [!provide]                        PROVIDE (rom_rfcal_rxiq_set_reg, 0x40008264)
                [!provide]                        PROVIDE (rom_rfcal_txcap, 0x40008388)
                [!provide]                        PROVIDE (rom_rfcal_txiq, 0x40008610)
                [!provide]                        PROVIDE (rom_rfcal_txiq_cover, 0x400088b8)
                [!provide]                        PROVIDE (rom_rfcal_txiq_set_reg, 0x40008a70)
                [!provide]                        PROVIDE (rom_rfpll_reset, 0x40007868)
                [!provide]                        PROVIDE (rom_rfpll_set_freq, 0x40007968)
                [!provide]                        PROVIDE (rom_rxiq_cover_mg_mp, 0x40008b6c)
                [!provide]                        PROVIDE (rom_rxiq_get_mis, 0x40006628)
                [!provide]                        PROVIDE (rom_sar_init, 0x40006738)
                [!provide]                        PROVIDE (rom_set_ana_inf_tx_scale, 0x4000678c)
                [!provide]                        PROVIDE (rom_set_channel_freq, 0x40006c50)
                [!provide]                        PROVIDE (rom_set_loopback_gain, 0x400067c8)
                [!provide]                        PROVIDE (rom_set_noise_floor, 0x40006830)
                [!provide]                        PROVIDE (rom_set_rxclk_en, 0x40006550)
                [!provide]                        PROVIDE (rom_set_txbb_atten, 0x40008c6c)
                [!provide]                        PROVIDE (rom_set_txclk_en, 0x4000650c)
                [!provide]                        PROVIDE (rom_set_txiq_cal, 0x40008d34)
                [!provide]                        PROVIDE (rom_start_noisefloor, 0x40006874)
                [!provide]                        PROVIDE (rom_start_tx_tone, 0x400068b4)
                [!provide]                        PROVIDE (rom_stop_tx_tone, 0x4000698c)
                [!provide]                        PROVIDE (rom_tx_mac_disable, 0x40006a98)
                [!provide]                        PROVIDE (rom_tx_mac_enable, 0x40006ad4)
                [!provide]                        PROVIDE (rom_txtone_linear_pwr, 0x40006a1c)
                [!provide]                        PROVIDE (rom_write_rfpll_sdm, 0x400078dc)
                0x00000000400031b4                PROVIDE (roundup2, 0x400031b4)
                [!provide]                        PROVIDE (rtc_enter_sleep, 0x40002870)
                0x00000000400025e0                PROVIDE (rtc_get_reset_reason, 0x400025e0)
                [!provide]                        PROVIDE (rtc_intr_handler, 0x400029ec)
                [!provide]                        PROVIDE (rtc_set_sleep_mode, 0x40002668)
                [!provide]                        PROVIDE (save_rxbcn_mactime, 0x400027a4)
                [!provide]                        PROVIDE (save_tsf_us, 0x400027ac)
                [!provide]                        PROVIDE (send_packet, 0x40003c80)
                0x000000004000ba48                PROVIDE (sha1_prf, 0x4000ba48)
                0x000000004000a2ec                PROVIDE (sha1_vector, 0x4000a2ec)
                [!provide]                        PROVIDE (sip_alloc_to_host_evt, 0x40005180)
                [!provide]                        PROVIDE (sip_get_ptr, 0x400058a8)
                [!provide]                        PROVIDE (sip_get_state, 0x40005668)
                [!provide]                        PROVIDE (sip_init_attach, 0x4000567c)
                [!provide]                        PROVIDE (sip_install_rx_ctrl_cb, 0x4000544c)
                [!provide]                        PROVIDE (sip_install_rx_data_cb, 0x4000545c)
                [!provide]                        PROVIDE (sip_post, 0x400050fc)
                [!provide]                        PROVIDE (sip_post_init, 0x400056c4)
                [!provide]                        PROVIDE (sip_reclaim_from_host_cmd, 0x4000534c)
                [!provide]                        PROVIDE (sip_reclaim_tx_data_pkt, 0x400052c0)
                [!provide]                        PROVIDE (sip_send, 0x40005808)
                [!provide]                        PROVIDE (sip_to_host_chain_append, 0x40005864)
                [!provide]                        PROVIDE (sip_to_host_evt_send_done, 0x40005234)
                [!provide]                        PROVIDE (slc_add_credits, 0x400060ac)
                [!provide]                        PROVIDE (slc_enable, 0x40005d90)
                [!provide]                        PROVIDE (slc_from_host_chain_fetch, 0x40005f24)
                [!provide]                        PROVIDE (slc_from_host_chain_recycle, 0x40005e94)
                [!provide]                        PROVIDE (slc_init_attach, 0x40005c50)
                [!provide]                        PROVIDE (slc_init_credit, 0x4000608c)
                [!provide]                        PROVIDE (slc_pause_from_host, 0x40006014)
                [!provide]                        PROVIDE (slc_reattach, 0x40005c1c)
                [!provide]                        PROVIDE (slc_resume_from_host, 0x4000603c)
                [!provide]                        PROVIDE (slc_select_tohost_gpio, 0x40005dc0)
                [!provide]                        PROVIDE (slc_select_tohost_gpio_mode, 0x40005db8)
                [!provide]                        PROVIDE (slc_send_to_host_chain, 0x40005de4)
                [!provide]                        PROVIDE (slc_set_host_io_max_window, 0x40006068)
                [!provide]                        PROVIDE (slc_to_host_chain_recycle, 0x40005f10)
                [!provide]                        PROVIDE (software_reset, 0x4000264c)
                [!provide]                        PROVIDE (spi_flash_attach, 0x40004644)
                [!provide]                        PROVIDE (srand, 0x400005f0)
                [!provide]                        PROVIDE (strcmp, 0x4000bdc8)
                [!provide]                        PROVIDE (strcpy, 0x4000bec8)
                [!provide]                        PROVIDE (strlen, 0x4000bf4c)
                [!provide]                        PROVIDE (strncmp, 0x4000bfa8)
                [!provide]                        PROVIDE (strncpy, 0x4000c0a0)
                [!provide]                        PROVIDE (strstr, 0x4000e1e0)
                [!provide]                        PROVIDE (timer_insert, 0x40002c64)
                [!provide]                        PROVIDE (uartAttach, 0x4000383c)
                [!provide]                        PROVIDE (uart_baudrate_detect, 0x40003924)
                0x00000000400038a4                PROVIDE (uart_buff_switch, 0x400038a4)
                0x00000000400039d8                PROVIDE (uart_div_modify, 0x400039d8)
                [!provide]                        PROVIDE (uart_rx_intr_handler, 0x40003bbc)
                [!provide]                        PROVIDE (uart_rx_one_char, 0x40003b8c)
                [!provide]                        PROVIDE (uart_rx_one_char_block, 0x40003b64)
                [!provide]                        PROVIDE (uart_rx_readbuff, 0x40003ec8)
                [!provide]                        PROVIDE (uart_tx_one_char, 0x40003b30)
                [!provide]                        PROVIDE (wepkey_128, 0x4000bc40)
                [!provide]                        PROVIDE (wepkey_64, 0x4000bb3c)
                [!provide]                        PROVIDE (xthal_bcopy, 0x40000688)
                [!provide]                        PROVIDE (xthal_copy123, 0x4000074c)
                [!provide]                        PROVIDE (xthal_get_ccompare, 0x4000dd4c)
                [!provide]                        PROVIDE (xthal_get_ccount, 0x4000dd38)
                [!provide]                        PROVIDE (xthal_get_interrupt, 0x4000dd58)
                [!provide]                        PROVIDE (xthal_get_intread, 0x4000dd58)
                [!provide]                        PROVIDE (xthal_memcpy, 0x400006c4)
                [!provide]                        PROVIDE (xthal_set_ccompare, 0x4000dd40)
                0x000000004000dd60                PROVIDE (xthal_set_intclear, 0x4000dd60)
                [!provide]                        PROVIDE (xthal_spill_registers_into_stack_nw, 0x4000e320)
                [!provide]                        PROVIDE (xthal_window_spill, 0x4000e324)
                [!provide]                        PROVIDE (xthal_window_spill_nw, 0x4000e320)
                0x000000003fffccf0                PROVIDE (Te0, 0x3fffccf0)
                0x000000003fffd100                PROVIDE (Td0, 0x3fffd100)
                0x000000003fffd500                PROVIDE (Td4s, 0x3fffd500)
                0x000000003fffd0f0                PROVIDE (rcons, 0x3fffd0f0)
                [!provide]                        PROVIDE (UartDev, 0x3fffde10)
                0x000000003fffc714                PROVIDE (flashchip, 0x3fffc714)
LOAD libairkiss/airkiss.o
LOAD libairkiss/airlink.o
LOAD libcrypto/aes-cbc.o
LOAD libcrypto/aes-internal-dec.o
LOAD libcrypto/aes-internal-enc.o
LOAD libcrypto/aes-internal.o
LOAD libcrypto/aes-wrap.o
LOAD libcrypto/crypto_internal-cipher.o
LOAD libcrypto/crypto_internal-modexp.o
LOAD libcrypto/crypto_internal.o
LOAD libcrypto/crypto_internal-rsa.o
LOAD libcrypto/des-internal.o
LOAD libcrypto/dh_group5.o
LOAD libcrypto/dh_groups.o
LOAD libcrypto/md4-internal.o
LOAD libcrypto/ms_funcs.o
LOAD libcrypto/sha256-internal.o
LOAD libcrypto/sha256.o
LOAD libespnow/espnow.o
LOAD libespnow/manatick.o
LOAD libespnow/simple_pair.o
LOAD liblwip/api_lib.o
LOAD liblwip/api_msg.o
LOAD liblwip/autoip.o
LOAD liblwip/def.o
LOAD liblwip/dhcp.o
LOAD liblwip/dhcpserver.o
LOAD liblwip/dns.o
LOAD liblwip/err.o
LOAD liblwip/espconn_buf.o
LOAD liblwip/espconn_mdns.o
LOAD liblwip/espconn.o
LOAD liblwip/espconn_tcp.o
LOAD liblwip/espconn_udp.o
LOAD liblwip/etharp.o
LOAD liblwip/icmp.o
LOAD liblwip/igmp.o
LOAD liblwip/inet_chksum.o
LOAD liblwip/inet.o
LOAD liblwip/init.o
LOAD liblwip/ip_addr.o
LOAD liblwip/ip_frag.o
LOAD liblwip/ip.o
LOAD liblwip/mdns.o
LOAD liblwip/mem.o
LOAD liblwip/memp.o
LOAD liblwip/netbuf.o
LOAD liblwip/netdb.o
LOAD liblwip/netifapi.o
LOAD liblwip/netif.o
LOAD liblwip/netio.o
LOAD liblwip/pbuf.o
LOAD liblwip/ping.o
LOAD liblwip/raw.o
LOAD liblwip/sntp.o
LOAD liblwip/sockets.o
LOAD liblwip/stats.o
LOAD liblwip/sys_arch.o
LOAD liblwip/sys.o
LOAD liblwip/tcp_in.o
LOAD liblwip/tcpip.o
LOAD liblwip/tcp.o
LOAD liblwip/tcp_out.o
LOAD liblwip/timers.o
LOAD liblwip/udp.o
LOAD libmain/app_main.o
LOAD libmain/debug-vector.o
LOAD libmain/double-vector.o
LOAD libmain/eagle_lib.o
LOAD libmain/eagle_lwip_if.o
LOAD libmain/ets_timer.o
LOAD libmain/kernel-vector.o
LOAD libmain/mem_manager.o
LOAD libmain/nmi-vector.o
LOAD libmain/spi_flash.o
LOAD libmain/spi_overlap.o
LOAD libmain/time.o
LOAD libmain/user_interface.o
LOAD libmain/user-vector.o
LOAD libmain/vector.o
LOAD libmesh/espconn_base64.o
LOAD libmesh/espconn_mesh.o
LOAD libnet80211/ieee80211_action.o
LOAD libnet80211/ieee80211_action_vendor.o
LOAD libnet80211/ieee80211_crypto_ccmp.o
LOAD libnet80211/ieee80211_crypto.o
LOAD libnet80211/ieee80211_crypto_tkip.o
LOAD libnet80211/ieee80211_crypto_wep.o
LOAD libnet80211/ieee80211_ets.o
LOAD libnet80211/ieee80211_hostap.o
LOAD libnet80211/ieee80211_ht.o
LOAD libnet80211/ieee80211_hwmp.o
LOAD libnet80211/ieee80211_ie_vendor.o
LOAD libnet80211/ieee80211_input.o
LOAD libnet80211/ieee80211_mesh.o
LOAD libnet80211/ieee80211_mesh_quick.o
LOAD libnet80211/ieee80211_node.o
LOAD libnet80211/ieee80211.o
LOAD libnet80211/ieee80211_output.o
LOAD libnet80211/ieee80211_phy.o
LOAD libnet80211/ieee80211_power.o
LOAD libnet80211/ieee80211_proto.o
LOAD libnet80211/ieee80211_regdomain.o
LOAD libnet80211/ieee80211_rfid.o
LOAD libnet80211/ieee80211_scan.o
LOAD libnet80211/ieee80211_sta.o
LOAD libnet80211/if_eagle.o
LOAD libnet80211/wl_chm.o
LOAD libnet80211/wl_cnx.o
LOAD libphy/ate_test.o
LOAD libphy/phy_chip_v6_ana.o
LOAD libphy/phy_chip_v6_cal.o
LOAD libphy/phy_chip_v6.o
LOAD libphy/phy_chip_v6_unused.o
LOAD libphy/phy.o
LOAD libphy/phy_sleep.o
LOAD libpp/esf_buf.o
LOAD libpp/if_hwctrl.o
LOAD libpp/lmac.o
LOAD libpp/mac_frame.o
LOAD libpp/pm_for_bcn_only_mode.o
LOAD libpp/pm.o
LOAD libpp/pp.o
LOAD libpp/rate_control.o
LOAD libpp/trc.o
LOAD libpp/wdev.o
LOAD libpwm/pwm.o
LOAD libsmartconfig/sc_airkiss.o
LOAD libsmartconfig/sc_esptouch.o
LOAD libsmartconfig/sc_sniffer.o
LOAD libssl/espconn_secure.o
LOAD libssl/espconn_ssl.o
LOAD libssl/sha256.o
LOAD libssl/sha384.o
LOAD libssl/sha512.o
LOAD libssl/ssl_aes.o
LOAD libssl/ssl_asn1.o
LOAD libssl/ssl_bigint.o
LOAD libssl/ssl_crypto_misc.o
LOAD libssl/ssl_gen_cert.o
LOAD libssl/ssl_hmac.o
LOAD libssl/ssl_loader.o
LOAD libssl/ssl_md5.o
LOAD libssl/ssl_openssl.o
LOAD libssl/ssl_os_port.o
LOAD libssl/ssl_p12.o
LOAD libssl/ssl_rc4.o
LOAD libssl/ssl_rsa.o
LOAD libssl/ssl_sha1.o
LOAD libssl/ssl_tls1_clnt.o
LOAD libssl/ssl_tls1.o
LOAD libssl/ssl_tls1_svr.o
LOAD libssl/ssl_x509.o
LOAD libwpa2/asn1.o
LOAD libwpa2/base64.o
LOAD libwpa2/bignum.o
LOAD libwpa2/chap.o
LOAD libwpa2/eap_common.o
LOAD libwpa2/eap_mschapv2.o
LOAD libwpa2/eap.o
LOAD libwpa2/eap_peap_common.o
LOAD libwpa2/eap_peap.o
LOAD libwpa2/eap_tls_common.o
LOAD libwpa2/eap_tls.o
LOAD libwpa2/eap_ttls.o
LOAD libwpa2/ext_password.o
LOAD libwpa2/mschapv2.o
LOAD libwpa2/pkcs1.o
LOAD libwpa2/pkcs5.o
LOAD libwpa2/pkcs8.o
LOAD libwpa2/rsa.o
LOAD libwpa2/tls_internal.o
LOAD libwpa2/tlsv1_client.o
LOAD libwpa2/tlsv1_client_read.o
LOAD libwpa2/tlsv1_client_write.o
LOAD libwpa2/tlsv1_common.o
LOAD libwpa2/tlsv1_cred.o
LOAD libwpa2/tlsv1_record.o
LOAD libwpa2/tlsv1_server.o
LOAD libwpa2/tlsv1_server_read.o
LOAD libwpa2/tlsv1_server_write.o
LOAD libwpa2/x509v3.o
LOAD libwpa/ap_config.o
LOAD libwpa/common.o
LOAD libwpa/os_xtensa.o
LOAD libwpa/sta_info.o
LOAD libwpa/wpa_auth_ie.o
LOAD libwpa/wpa_auth.o
LOAD libwpa/wpabuf.o
LOAD libwpa/wpa_common.o
LOAD libwpa/wpa_debug.o
LOAD libwpa/wpa_ie.o
LOAD libwpa/wpa_main.o
LOAD libwpa/wpa.o
LOAD libwpa/wpas_glue.o
LOAD libwps/uuid.o
LOAD libwps/wps_attr_build.o
LOAD libwps/wps_attr_parse.o
LOAD libwps/wps_attr_process.o
LOAD libwps/wps_common.o
LOAD libwps/wps_dev_attr.o
LOAD libwps/wps_enrollee.o
LOAD libwps/wps.o
LOAD libwps/wps_registrar.o
LOAD libwps/wps_validate.o
LOAD ../empty_user.o
LOAD ../empty_libgcc.o
LOAD /mnt/hdd/projects-3rdparty/xtensa/esp-open-sdk/xtensa-lx106-elf/bin/../lib/gcc/xtensa-lx106-elf/4.8.5/../../../../xtensa-lx106-elf/lib/libc.a
OUTPUT(esp8266-sdk-2.0.0-p20160809 elf32-xtensa-le)

.comment        0x0000000000000000     0x4234
 .comment       0x0000000000000000       0x21 libairkiss/airkiss.o
                                         0x22 (size before relaxing)
 .comment       0x0000000000000021       0x22 libairkiss/airlink.o
 .comment       0x0000000000000021       0x54 libcrypto/aes-cbc.o
                                         0x55 (size before relaxing)
 .comment       0x0000000000000075       0x5d libcrypto/aes-internal-dec.o
                                         0x5e (size before relaxing)
 .comment       0x00000000000000d2       0x5d libcrypto/aes-internal-enc.o
                                         0x5e (size before relaxing)
 .comment       0x000000000000012f       0x59 libcrypto/aes-internal.o
                                         0x5a (size before relaxing)
 .comment       0x0000000000000188       0x55 libcrypto/aes-wrap.o
                                         0x56 (size before relaxing)
 .comment       0x00000000000001dd       0x63 libcrypto/crypto_internal-cipher.o
                                         0x64 (size before relaxing)
 .comment       0x0000000000000240       0x63 libcrypto/crypto_internal-modexp.o
                                         0x64 (size before relaxing)
 .comment       0x00000000000002a3       0x5c libcrypto/crypto_internal.o
                                         0x5d (size before relaxing)
 .comment       0x00000000000002ff       0x60 libcrypto/crypto_internal-rsa.o
                                         0x61 (size before relaxing)
 .comment       0x000000000000035f       0x59 libcrypto/des-internal.o
                                         0x5a (size before relaxing)
 .comment       0x00000000000003b8       0x56 libcrypto/dh_group5.o
                                         0x57 (size before relaxing)
 .comment       0x000000000000040e       0x56 libcrypto/dh_groups.o
                                         0x57 (size before relaxing)
 .comment       0x0000000000000464       0x59 libcrypto/md4-internal.o
                                         0x5a (size before relaxing)
 .comment       0x00000000000004bd       0x55 libcrypto/ms_funcs.o
                                         0x56 (size before relaxing)
 .comment       0x0000000000000512       0x5c libcrypto/sha256-internal.o
                                         0x5d (size before relaxing)
 .comment       0x000000000000056e       0x53 libcrypto/sha256.o
                                         0x54 (size before relaxing)
 .comment       0x00000000000005c1       0x53 libespnow/espnow.o
                                         0x54 (size before relaxing)
 .comment       0x0000000000000614       0x55 libespnow/manatick.o
                                         0x56 (size before relaxing)
 .comment       0x0000000000000669       0x58 libespnow/simple_pair.o
                                         0x59 (size before relaxing)
 .comment       0x00000000000006c1       0x54 liblwip/api_lib.o
                                         0x55 (size before relaxing)
 .comment       0x0000000000000715       0x54 liblwip/api_msg.o
                                         0x55 (size before relaxing)
 .comment       0x0000000000000769       0x53 liblwip/autoip.o
                                         0x54 (size before relaxing)
 .comment       0x00000000000007bc       0x50 liblwip/def.o
                                         0x51 (size before relaxing)
 .comment       0x000000000000080c       0x51 liblwip/dhcp.o
                                         0x52 (size before relaxing)
 .comment       0x000000000000085d       0x57 liblwip/dhcpserver.o
                                         0x58 (size before relaxing)
 .comment       0x00000000000008b4       0x50 liblwip/dns.o
                                         0x51 (size before relaxing)
 .comment       0x0000000000000904       0x50 liblwip/err.o
                                         0x51 (size before relaxing)
 .comment       0x0000000000000954       0x58 liblwip/espconn_buf.o
                                         0x59 (size before relaxing)
 .comment       0x00000000000009ac       0x59 liblwip/espconn_mdns.o
                                         0x5a (size before relaxing)
 .comment       0x0000000000000a05       0x54 liblwip/espconn.o
                                         0x55 (size before relaxing)
 .comment       0x0000000000000a59       0x58 liblwip/espconn_tcp.o
                                         0x59 (size before relaxing)
 .comment       0x0000000000000ab1       0x58 liblwip/espconn_udp.o
                                         0x59 (size before relaxing)
 .comment       0x0000000000000b09       0x53 liblwip/etharp.o
                                         0x54 (size before relaxing)
 .comment       0x0000000000000b5c       0x51 liblwip/icmp.o
                                         0x52 (size before relaxing)
 .comment       0x0000000000000bad       0x51 liblwip/igmp.o
                                         0x52 (size before relaxing)
 .comment       0x0000000000000bfe       0x58 liblwip/inet_chksum.o
                                         0x59 (size before relaxing)
 .comment       0x0000000000000c56       0x51 liblwip/inet.o
                                         0x52 (size before relaxing)
 .comment       0x0000000000000ca7       0x51 liblwip/init.o
                                         0x52 (size before relaxing)
 .comment       0x0000000000000cf8       0x54 liblwip/ip_addr.o
                                         0x55 (size before relaxing)
 .comment       0x0000000000000d4c       0x54 liblwip/ip_frag.o
                                         0x55 (size before relaxing)
 .comment       0x0000000000000da0       0x4f liblwip/ip.o
                                         0x50 (size before relaxing)
 .comment       0x0000000000000def       0x51 liblwip/mdns.o
                                         0x52 (size before relaxing)
 .comment       0x0000000000000e40       0x50 liblwip/mem.o
                                         0x51 (size before relaxing)
 .comment       0x0000000000000e90       0x51 liblwip/memp.o
                                         0x52 (size before relaxing)
 .comment       0x0000000000000ee1       0x53 liblwip/netbuf.o
                                         0x54 (size before relaxing)
 .comment       0x0000000000000f34       0x52 liblwip/netdb.o
                                         0x53 (size before relaxing)
 .comment       0x0000000000000f86       0x55 liblwip/netifapi.o
                                         0x56 (size before relaxing)
 .comment       0x0000000000000fdb       0x52 liblwip/netif.o
                                         0x53 (size before relaxing)
 .comment       0x000000000000102d       0x52 liblwip/netio.o
                                         0x53 (size before relaxing)
 .comment       0x000000000000107f       0x51 liblwip/pbuf.o
                                         0x52 (size before relaxing)
 .comment       0x00000000000010d0       0x51 liblwip/ping.o
                                         0x52 (size before relaxing)
 .comment       0x0000000000001121       0x50 liblwip/raw.o
                                         0x51 (size before relaxing)
 .comment       0x0000000000001171       0x51 liblwip/sntp.o
                                         0x52 (size before relaxing)
 .comment       0x00000000000011c2       0x54 liblwip/sockets.o
                                         0x55 (size before relaxing)
 .comment       0x0000000000001216       0x52 liblwip/stats.o
                                         0x53 (size before relaxing)
 .comment       0x0000000000001268       0x55 liblwip/sys_arch.o
                                         0x56 (size before relaxing)
 .comment       0x00000000000012bd       0x50 liblwip/sys.o
                                         0x51 (size before relaxing)
 .comment       0x000000000000130d       0x53 liblwip/tcp_in.o
                                         0x54 (size before relaxing)
 .comment       0x0000000000001360       0x52 liblwip/tcpip.o
                                         0x53 (size before relaxing)
 .comment       0x00000000000013b2       0x50 liblwip/tcp.o
                                         0x51 (size before relaxing)
 .comment       0x0000000000001402       0x54 liblwip/tcp_out.o
                                         0x55 (size before relaxing)
 .comment       0x0000000000001456       0x53 liblwip/timers.o
                                         0x54 (size before relaxing)
 .comment       0x00000000000014a9       0x50 liblwip/udp.o
                                         0x51 (size before relaxing)
 .comment       0x00000000000014f9       0x55 libmain/app_main.o
                                         0x56 (size before relaxing)
 .comment       0x000000000000154e       0x56 libmain/eagle_lib.o
                                         0x57 (size before relaxing)
 .comment       0x00000000000015a4       0x5a libmain/eagle_lwip_if.o
                                         0x5b (size before relaxing)
 .comment       0x00000000000015fe       0x56 libmain/ets_timer.o
                                         0x57 (size before relaxing)
 .comment       0x0000000000001654       0x58 libmain/mem_manager.o
                                         0x59 (size before relaxing)
 .comment       0x00000000000016ac       0x56 libmain/spi_flash.o
                                         0x57 (size before relaxing)
 .comment       0x0000000000001702       0x58 libmain/spi_overlap.o
                                         0x59 (size before relaxing)
 .comment       0x000000000000175a       0x51 libmain/time.o
                                         0x52 (size before relaxing)
 .comment       0x00000000000017ab       0x5b libmain/user_interface.o
                                         0x5c (size before relaxing)
 .comment       0x0000000000001806       0x5b libmesh/espconn_base64.o
                                         0x5c (size before relaxing)
 .comment       0x0000000000001861       0x59 libmesh/espconn_mesh.o
                                         0x5a (size before relaxing)
 .comment       0x00000000000018ba       0x5d libnet80211/ieee80211_action.o
                                         0x5e (size before relaxing)
 .comment       0x0000000000001917       0x64 libnet80211/ieee80211_action_vendor.o
                                         0x65 (size before relaxing)
 .comment       0x000000000000197b       0x62 libnet80211/ieee80211_crypto_ccmp.o
                                         0x63 (size before relaxing)
 .comment       0x00000000000019dd       0x5d libnet80211/ieee80211_crypto.o
                                         0x5e (size before relaxing)
 .comment       0x0000000000001a3a       0x62 libnet80211/ieee80211_crypto_tkip.o
                                         0x63 (size before relaxing)
 .comment       0x0000000000001a9c       0x61 libnet80211/ieee80211_crypto_wep.o
                                         0x62 (size before relaxing)
 .comment       0x0000000000001afd       0x5a libnet80211/ieee80211_ets.o
                                         0x5b (size before relaxing)
 .comment       0x0000000000001b57       0x5d libnet80211/ieee80211_hostap.o
                                         0x5e (size before relaxing)
 .comment       0x0000000000001bb4       0x59 libnet80211/ieee80211_ht.o
                                         0x5a (size before relaxing)
 .comment       0x0000000000001c0d       0x5b libnet80211/ieee80211_hwmp.o
                                         0x5c (size before relaxing)
 .comment       0x0000000000001c68       0x60 libnet80211/ieee80211_ie_vendor.o
                                         0x61 (size before relaxing)
 .comment       0x0000000000001cc8       0x5c libnet80211/ieee80211_input.o
                                         0x5d (size before relaxing)
 .comment       0x0000000000001d24       0x5b libnet80211/ieee80211_mesh.o
                                         0x5c (size before relaxing)
 .comment       0x0000000000001d7f       0x61 libnet80211/ieee80211_mesh_quick.o
                                         0x62 (size before relaxing)
 .comment       0x0000000000001de0       0x5b libnet80211/ieee80211_node.o
                                         0x5c (size before relaxing)
 .comment       0x0000000000001e3b       0x56 libnet80211/ieee80211.o
                                         0x57 (size before relaxing)
 .comment       0x0000000000001e91       0x5d libnet80211/ieee80211_output.o
                                         0x5e (size before relaxing)
 .comment       0x0000000000001eee       0x5a libnet80211/ieee80211_phy.o
                                         0x5b (size before relaxing)
 .comment       0x0000000000001f48       0x5c libnet80211/ieee80211_power.o
                                         0x5d (size before relaxing)
 .comment       0x0000000000001fa4       0x5c libnet80211/ieee80211_proto.o
                                         0x5d (size before relaxing)
 .comment       0x0000000000002000       0x60 libnet80211/ieee80211_regdomain.o
                                         0x61 (size before relaxing)
 .comment       0x0000000000002060       0x5b libnet80211/ieee80211_rfid.o
                                         0x5c (size before relaxing)
 .comment       0x00000000000020bb       0x5b libnet80211/ieee80211_scan.o
                                         0x5c (size before relaxing)
 .comment       0x0000000000002116       0x5a libnet80211/ieee80211_sta.o
                                         0x5b (size before relaxing)
 .comment       0x0000000000002170       0x55 libnet80211/if_eagle.o
                                         0x56 (size before relaxing)
 .comment       0x00000000000021c5       0x53 libnet80211/wl_chm.o
                                         0x54 (size before relaxing)
 .comment       0x0000000000002218       0x53 libnet80211/wl_cnx.o
                                         0x54 (size before relaxing)
 .comment       0x000000000000226b       0x46 libphy/ate_test.o
 .comment       0x00000000000022b1       0x4d libphy/phy_chip_v6_ana.o
 .comment       0x00000000000022fe       0x4d libphy/phy_chip_v6_cal.o
 .comment       0x000000000000234b       0x49 libphy/phy_chip_v6.o
 .comment       0x0000000000002394       0x50 libphy/phy_chip_v6_unused.o
 .comment       0x00000000000023e4       0x41 libphy/phy.o
 .comment       0x0000000000002425       0x47 libphy/phy_sleep.o
 .comment       0x000000000000246c       0x54 libpp/esf_buf.o
                                         0x55 (size before relaxing)
 .comment       0x00000000000024c0       0x56 libpp/if_hwctrl.o
                                         0x57 (size before relaxing)
 .comment       0x0000000000002516       0x51 libpp/lmac.o
                                         0x52 (size before relaxing)
 .comment       0x0000000000002567       0x56 libpp/mac_frame.o
                                         0x57 (size before relaxing)
 .comment       0x00000000000025bd       0x61 libpp/pm_for_bcn_only_mode.o
                                         0x62 (size before relaxing)
 .comment       0x000000000000261e       0x4f libpp/pm.o
                                         0x50 (size before relaxing)
 .comment       0x000000000000266d       0x4f libpp/pp.o
                                         0x50 (size before relaxing)
 .comment       0x00000000000026bc       0x59 libpp/rate_control.o
                                         0x5a (size before relaxing)
 .comment       0x0000000000002715       0x50 libpp/trc.o
                                         0x51 (size before relaxing)
 .comment       0x0000000000002765       0x51 libpp/wdev.o
                                         0x52 (size before relaxing)
 .comment       0x00000000000027b6       0x41 libpwm/pwm.o
 .comment       0x00000000000027f7       0x57 libsmartconfig/sc_airkiss.o
                                         0x58 (size before relaxing)
 .comment       0x000000000000284e       0x58 libsmartconfig/sc_esptouch.o
                                         0x59 (size before relaxing)
 .comment       0x00000000000028a6       0x57 libsmartconfig/sc_sniffer.o
                                         0x58 (size before relaxing)
 .comment       0x00000000000028fd       0x5b libssl/espconn_secure.o
                                         0x5c (size before relaxing)
 .comment       0x0000000000002958       0x58 libssl/espconn_ssl.o
                                         0x59 (size before relaxing)
 .comment       0x00000000000029b0       0x54 libssl/sha256.o
 .comment       0x00000000000029b0       0x53 libssl/sha384.o
                                         0x54 (size before relaxing)
 .comment       0x0000000000002a03       0x53 libssl/sha512.o
                                         0x54 (size before relaxing)
 .comment       0x0000000000002a56       0x54 libssl/ssl_aes.o
                                         0x55 (size before relaxing)
 .comment       0x0000000000002aaa       0x55 libssl/ssl_asn1.o
                                         0x56 (size before relaxing)
 .comment       0x0000000000002aff       0x57 libssl/ssl_bigint.o
                                         0x58 (size before relaxing)
 .comment       0x0000000000002b56       0x5c libssl/ssl_crypto_misc.o
                                         0x5d (size before relaxing)
 .comment       0x0000000000002bb2       0x59 libssl/ssl_gen_cert.o
                                         0x5a (size before relaxing)
 .comment       0x0000000000002c0b       0x55 libssl/ssl_hmac.o
                                         0x56 (size before relaxing)
 .comment       0x0000000000002c60       0x57 libssl/ssl_loader.o
                                         0x58 (size before relaxing)
 .comment       0x0000000000002cb7       0x54 libssl/ssl_md5.o
                                         0x55 (size before relaxing)
 .comment       0x0000000000002d0b       0x58 libssl/ssl_openssl.o
                                         0x59 (size before relaxing)
 .comment       0x0000000000002d63       0x58 libssl/ssl_os_port.o
                                         0x59 (size before relaxing)
 .comment       0x0000000000002dbb       0x54 libssl/ssl_p12.o
                                         0x55 (size before relaxing)
 .comment       0x0000000000002e0f       0x54 libssl/ssl_rc4.o
                                         0x55 (size before relaxing)
 .comment       0x0000000000002e63       0x54 libssl/ssl_rsa.o
                                         0x55 (size before relaxing)
 .comment       0x0000000000002eb7       0x55 libssl/ssl_sha1.o
                                         0x56 (size before relaxing)
 .comment       0x0000000000002f0c       0x5a libssl/ssl_tls1_clnt.o
                                         0x5b (size before relaxing)
 .comment       0x0000000000002f66       0x55 libssl/ssl_tls1.o
                                         0x56 (size before relaxing)
 .comment       0x0000000000002fbb       0x59 libssl/ssl_tls1_svr.o
                                         0x5a (size before relaxing)
 .comment       0x0000000000003014       0x55 libssl/ssl_x509.o
                                         0x56 (size before relaxing)
 .comment       0x0000000000003069       0x51 libwpa2/asn1.o
                                         0x52 (size before relaxing)
 .comment       0x00000000000030ba       0x53 libwpa2/base64.o
                                         0x54 (size before relaxing)
 .comment       0x000000000000310d       0x53 libwpa2/bignum.o
                                         0x54 (size before relaxing)
 .comment       0x0000000000003160       0x51 libwpa2/chap.o
                                         0x52 (size before relaxing)
 .comment       0x00000000000031b1       0x57 libwpa2/eap_common.o
                                         0x58 (size before relaxing)
 .comment       0x0000000000003208       0x59 libwpa2/eap_mschapv2.o
                                         0x5a (size before relaxing)
 .comment       0x0000000000003261       0x50 libwpa2/eap.o
                                         0x51 (size before relaxing)
 .comment       0x00000000000032b1       0x5c libwpa2/eap_peap_common.o
                                         0x5d (size before relaxing)
 .comment       0x000000000000330d       0x55 libwpa2/eap_peap.o
                                         0x56 (size before relaxing)
 .comment       0x0000000000003362       0x5b libwpa2/eap_tls_common.o
                                         0x5c (size before relaxing)
 .comment       0x00000000000033bd       0x54 libwpa2/eap_tls.o
                                         0x55 (size before relaxing)
 .comment       0x0000000000003411       0x55 libwpa2/eap_ttls.o
                                         0x56 (size before relaxing)
 .comment       0x0000000000003466       0x59 libwpa2/ext_password.o
                                         0x5a (size before relaxing)
 .comment       0x00000000000034bf       0x55 libwpa2/mschapv2.o
                                         0x56 (size before relaxing)
 .comment       0x0000000000003514       0x52 libwpa2/pkcs1.o
                                         0x53 (size before relaxing)
 .comment       0x0000000000003566       0x52 libwpa2/pkcs5.o
                                         0x53 (size before relaxing)
 .comment       0x00000000000035b8       0x52 libwpa2/pkcs8.o
                                         0x53 (size before relaxing)
 .comment       0x000000000000360a       0x50 libwpa2/rsa.o
                                         0x51 (size before relaxing)
 .comment       0x000000000000365a       0x59 libwpa2/tls_internal.o
                                         0x5a (size before relaxing)
 .comment       0x00000000000036b3       0x59 libwpa2/tlsv1_client.o
                                         0x5a (size before relaxing)
 .comment       0x000000000000370c       0x5e libwpa2/tlsv1_client_read.o
                                         0x5f (size before relaxing)
 .comment       0x000000000000376a       0x5f libwpa2/tlsv1_client_write.o
                                         0x60 (size before relaxing)
 .comment       0x00000000000037c9       0x59 libwpa2/tlsv1_common.o
                                         0x5a (size before relaxing)
 .comment       0x0000000000003822       0x57 libwpa2/tlsv1_cred.o
                                         0x58 (size before relaxing)
 .comment       0x0000000000003879       0x59 libwpa2/tlsv1_record.o
                                         0x5a (size before relaxing)
 .comment       0x00000000000038d2       0x59 libwpa2/tlsv1_server.o
                                         0x5a (size before relaxing)
 .comment       0x000000000000392b       0x5e libwpa2/tlsv1_server_read.o
                                         0x5f (size before relaxing)
 .comment       0x0000000000003989       0x5f libwpa2/tlsv1_server_write.o
                                         0x60 (size before relaxing)
 .comment       0x00000000000039e8       0x53 libwpa2/x509v3.o
                                         0x54 (size before relaxing)
 .comment       0x0000000000003a3b       0x56 libwpa/ap_config.o
                                         0x57 (size before relaxing)
 .comment       0x0000000000003a91       0x53 libwpa/common.o
                                         0x54 (size before relaxing)
 .comment       0x0000000000003ae4       0x56 libwpa/os_xtensa.o
                                         0x57 (size before relaxing)
 .comment       0x0000000000003b3a       0x55 libwpa/sta_info.o
                                         0x56 (size before relaxing)
 .comment       0x0000000000003b8f       0x58 libwpa/wpa_auth_ie.o
                                         0x59 (size before relaxing)
 .comment       0x0000000000003be7       0x55 libwpa/wpa_auth.o
                                         0x56 (size before relaxing)
 .comment       0x0000000000003c3c       0x53 libwpa/wpabuf.o
                                         0x54 (size before relaxing)
 .comment       0x0000000000003c8f       0x57 libwpa/wpa_common.o
                                         0x58 (size before relaxing)
 .comment       0x0000000000003ce6       0x56 libwpa/wpa_debug.o
                                         0x57 (size before relaxing)
 .comment       0x0000000000003d3c       0x53 libwpa/wpa_ie.o
                                         0x54 (size before relaxing)
 .comment       0x0000000000003d8f       0x55 libwpa/wpa_main.o
                                         0x56 (size before relaxing)
 .comment       0x0000000000003de4       0x50 libwpa/wpa.o
                                         0x51 (size before relaxing)
 .comment       0x0000000000003e34       0x56 libwpa/wpas_glue.o
                                         0x57 (size before relaxing)
 .comment       0x0000000000003e8a       0x51 libwps/uuid.o
                                         0x52 (size before relaxing)
 .comment       0x0000000000003edb       0x5b libwps/wps_attr_build.o
                                         0x5c (size before relaxing)
 .comment       0x0000000000003f36       0x5b libwps/wps_attr_parse.o
                                         0x5c (size before relaxing)
 .comment       0x0000000000003f91       0x5d libwps/wps_attr_process.o
                                         0x5e (size before relaxing)
 .comment       0x0000000000003fee       0x57 libwps/wps_common.o
                                         0x58 (size before relaxing)
 .comment       0x0000000000004045       0x59 libwps/wps_dev_attr.o
                                         0x5a (size before relaxing)
 .comment       0x000000000000409e       0x59 libwps/wps_enrollee.o
                                         0x5a (size before relaxing)
 .comment       0x00000000000040f7       0x50 libwps/wps.o
                                         0x51 (size before relaxing)
 .comment       0x0000000000004147       0x5a libwps/wps_registrar.o
                                         0x5b (size before relaxing)
 .comment       0x00000000000041a1       0x59 libwps/wps_validate.o
                                         0x5a (size before relaxing)
 .comment       0x00000000000041fa       0x3a ../empty_user.o
                                         0x3b (size before relaxing)
 .comment       0x0000000000004234       0x3b ../empty_libgcc.o
 .comment       0x0000000000004234       0x3b /mnt/hdd/projects-3rdparty/xtensa/esp-open-sdk/xtensa-lx106-elf/bin/../lib/gcc/xtensa-lx106-elf/4.8.5/../../../../xtensa-lx106-elf/lib/libc.a(lib_a-atoi.o)
 .comment       0x0000000000004234       0x3b /mnt/hdd/projects-3rdparty/xtensa/esp-open-sdk/xtensa-lx106-elf/bin/../lib/gcc/xtensa-lx106-elf/4.8.5/../../../../xtensa-lx106-elf/lib/libc.a(lib_a-memchr.o)
 .comment       0x0000000000004234       0x3b /mnt/hdd/projects-3rdparty/xtensa/esp-open-sdk/xtensa-lx106-elf/bin/../lib/gcc/xtensa-lx106-elf/4.8.5/../../../../xtensa-lx106-elf/lib/libc.a(lib_a-memcmp.o)
 .comment       0x0000000000004234       0x3b /mnt/hdd/projects-3rdparty/xtensa/esp-open-sdk/xtensa-lx106-elf/bin/../lib/gcc/xtensa-lx106-elf/4.8.5/../../../../xtensa-lx106-elf/lib/libc.a(lib_a-strcasecmp.o)
 .comment       0x0000000000004234       0x3b /mnt/hdd/projects-3rdparty/xtensa/esp-open-sdk/xtensa-lx106-elf/bin/../lib/gcc/xtensa-lx106-elf/4.8.5/../../../../xtensa-lx106-elf/lib/libc.a(lib_a-strtol.o)
 .comment       0x0000000000004234       0x3b /mnt/hdd/projects-3rdparty/xtensa/esp-open-sdk/xtensa-lx106-elf/bin/../lib/gcc/xtensa-lx106-elf/4.8.5/../../../../xtensa-lx106-elf/lib/libc.a(lib_a-sysgettod.o)
 .comment       0x0000000000004234       0x3b /mnt/hdd/projects-3rdparty/xtensa/esp-open-sdk/xtensa-lx106-elf/bin/../lib/gcc/xtensa-lx106-elf/4.8.5/../../../../xtensa-lx106-elf/lib/libc.a(lib_a-ctype_.o)
 .comment       0x0000000000004234       0x3b /mnt/hdd/projects-3rdparty/xtensa/esp-open-sdk/xtensa-lx106-elf/bin/../lib/gcc/xtensa-lx106-elf/4.8.5/../../../../xtensa-lx106-elf/lib/libc.a(lib_a-impure.o)

.xtensa.info    0x0000000000000000       0x38
 .xtensa.info   0x0000000000000000       0x38 libairkiss/airkiss.o
 .xtensa.info   0x0000000000000038        0x0 libairkiss/airlink.o
 .xtensa.info   0x0000000000000038        0x0 libcrypto/aes-cbc.o
 .xtensa.info   0x0000000000000038        0x0 libcrypto/aes-internal-dec.o
 .xtensa.info   0x0000000000000038        0x0 libcrypto/aes-internal-enc.o
 .xtensa.info   0x0000000000000038        0x0 libcrypto/aes-internal.o
 .xtensa.info   0x0000000000000038        0x0 libcrypto/aes-wrap.o
 .xtensa.info   0x0000000000000038        0x0 libcrypto/crypto_internal-cipher.o
 .xtensa.info   0x0000000000000038        0x0 libcrypto/crypto_internal-modexp.o
 .xtensa.info   0x0000000000000038        0x0 libcrypto/crypto_internal.o
 .xtensa.info   0x0000000000000038        0x0 libcrypto/crypto_internal-rsa.o
 .xtensa.info   0x0000000000000038        0x0 libcrypto/des-internal.o
 .xtensa.info   0x0000000000000038        0x0 libcrypto/dh_group5.o
 .xtensa.info   0x0000000000000038        0x0 libcrypto/dh_groups.o
 .xtensa.info   0x0000000000000038        0x0 libcrypto/md4-internal.o
 .xtensa.info   0x0000000000000038        0x0 libcrypto/ms_funcs.o
 .xtensa.info   0x0000000000000038        0x0 libcrypto/sha256-internal.o
 .xtensa.info   0x0000000000000038        0x0 libcrypto/sha256.o
 .xtensa.info   0x0000000000000038        0x0 libespnow/espnow.o
 .xtensa.info   0x0000000000000038        0x0 libespnow/manatick.o
 .xtensa.info   0x0000000000000038        0x0 libespnow/simple_pair.o
 .xtensa.info   0x0000000000000038        0x0 liblwip/api_lib.o
 .xtensa.info   0x0000000000000038        0x0 liblwip/api_msg.o
 .xtensa.info   0x0000000000000038        0x0 liblwip/autoip.o
 .xtensa.info   0x0000000000000038        0x0 liblwip/def.o
 .xtensa.info   0x0000000000000038        0x0 liblwip/dhcp.o
 .xtensa.info   0x0000000000000038        0x0 liblwip/dhcpserver.o
 .xtensa.info   0x0000000000000038        0x0 liblwip/dns.o
 .xtensa.info   0x0000000000000038        0x0 liblwip/err.o
 .xtensa.info   0x0000000000000038        0x0 liblwip/espconn_buf.o
 .xtensa.info   0x0000000000000038        0x0 liblwip/espconn_mdns.o
 .xtensa.info   0x0000000000000038        0x0 liblwip/espconn.o
 .xtensa.info   0x0000000000000038        0x0 liblwip/espconn_tcp.o
 .xtensa.info   0x0000000000000038        0x0 liblwip/espconn_udp.o
 .xtensa.info   0x0000000000000038        0x0 liblwip/etharp.o
 .xtensa.info   0x0000000000000038        0x0 liblwip/icmp.o
 .xtensa.info   0x0000000000000038        0x0 liblwip/igmp.o
 .xtensa.info   0x0000000000000038        0x0 liblwip/inet_chksum.o
 .xtensa.info   0x0000000000000038        0x0 liblwip/inet.o
 .xtensa.info   0x0000000000000038        0x0 liblwip/init.o
 .xtensa.info   0x0000000000000038        0x0 liblwip/ip_addr.o
 .xtensa.info   0x0000000000000038        0x0 liblwip/ip_frag.o
 .xtensa.info   0x0000000000000038        0x0 liblwip/ip.o
 .xtensa.info   0x0000000000000038        0x0 liblwip/mdns.o
 .xtensa.info   0x0000000000000038        0x0 liblwip/mem.o
 .xtensa.info   0x0000000000000038        0x0 liblwip/memp.o
 .xtensa.info   0x0000000000000038        0x0 liblwip/netbuf.o
 .xtensa.info   0x0000000000000038        0x0 liblwip/netdb.o
 .xtensa.info   0x0000000000000038        0x0 liblwip/netifapi.o
 .xtensa.info   0x0000000000000038        0x0 liblwip/netif.o
 .xtensa.info   0x0000000000000038        0x0 liblwip/netio.o
 .xtensa.info   0x0000000000000038        0x0 liblwip/pbuf.o
 .xtensa.info   0x0000000000000038        0x0 liblwip/ping.o
 .xtensa.info   0x0000000000000038        0x0 liblwip/raw.o
 .xtensa.info   0x0000000000000038        0x0 liblwip/sntp.o
 .xtensa.info   0x0000000000000038        0x0 liblwip/sockets.o
 .xtensa.info   0x0000000000000038        0x0 liblwip/stats.o
 .xtensa.info   0x0000000000000038        0x0 liblwip/sys_arch.o
 .xtensa.info   0x0000000000000038        0x0 liblwip/sys.o
 .xtensa.info   0x0000000000000038        0x0 liblwip/tcp_in.o
 .xtensa.info   0x0000000000000038        0x0 liblwip/tcpip.o
 .xtensa.info   0x0000000000000038        0x0 liblwip/tcp.o
 .xtensa.info   0x0000000000000038        0x0 liblwip/tcp_out.o
 .xtensa.info   0x0000000000000038        0x0 liblwip/timers.o
 .xtensa.info   0x0000000000000038        0x0 liblwip/udp.o
 .xtensa.info   0x0000000000000038        0x0 libmain/app_main.o
 .xtensa.info   0x0000000000000038        0x0 libmain/debug-vector.o
 .xtensa.info   0x0000000000000038        0x0 libmain/double-vector.o
 .xtensa.info   0x0000000000000038        0x0 libmain/eagle_lib.o
 .xtensa.info   0x0000000000000038        0x0 libmain/eagle_lwip_if.o
 .xtensa.info   0x0000000000000038        0x0 libmain/ets_timer.o
 .xtensa.info   0x0000000000000038        0x0 libmain/kernel-vector.o
 .xtensa.info   0x0000000000000038        0x0 libmain/mem_manager.o
 .xtensa.info   0x0000000000000038        0x0 libmain/nmi-vector.o
 .xtensa.info   0x0000000000000038        0x0 libmain/spi_flash.o
 .xtensa.info   0x0000000000000038        0x0 libmain/spi_overlap.o
 .xtensa.info   0x0000000000000038        0x0 libmain/time.o
 .xtensa.info   0x0000000000000038        0x0 libmain/user_interface.o
 .xtensa.info   0x0000000000000038        0x0 libmain/user-vector.o
 .xtensa.info   0x0000000000000038        0x0 libmain/vector.o
 .xtensa.info   0x0000000000000038        0x0 libmesh/espconn_base64.o
 .xtensa.info   0x0000000000000038        0x0 libmesh/espconn_mesh.o
 .xtensa.info   0x0000000000000038        0x0 libnet80211/ieee80211_action.o
 .xtensa.info   0x0000000000000038        0x0 libnet80211/ieee80211_action_vendor.o
 .xtensa.info   0x0000000000000038        0x0 libnet80211/ieee80211_crypto_ccmp.o
 .xtensa.info   0x0000000000000038        0x0 libnet80211/ieee80211_crypto.o
 .xtensa.info   0x0000000000000038        0x0 libnet80211/ieee80211_crypto_tkip.o
 .xtensa.info   0x0000000000000038        0x0 libnet80211/ieee80211_crypto_wep.o
 .xtensa.info   0x0000000000000038        0x0 libnet80211/ieee80211_ets.o
 .xtensa.info   0x0000000000000038        0x0 libnet80211/ieee80211_hostap.o
 .xtensa.info   0x0000000000000038        0x0 libnet80211/ieee80211_ht.o
 .xtensa.info   0x0000000000000038        0x0 libnet80211/ieee80211_hwmp.o
 .xtensa.info   0x0000000000000038        0x0 libnet80211/ieee80211_ie_vendor.o
 .xtensa.info   0x0000000000000038        0x0 libnet80211/ieee80211_input.o
 .xtensa.info   0x0000000000000038        0x0 libnet80211/ieee80211_mesh.o
 .xtensa.info   0x0000000000000038        0x0 libnet80211/ieee80211_mesh_quick.o
 .xtensa.info   0x0000000000000038        0x0 libnet80211/ieee80211_node.o
 .xtensa.info   0x0000000000000038        0x0 libnet80211/ieee80211.o
 .xtensa.info   0x0000000000000038        0x0 libnet80211/ieee80211_output.o
 .xtensa.info   0x0000000000000038        0x0 libnet80211/ieee80211_phy.o
 .xtensa.info   0x0000000000000038        0x0 libnet80211/ieee80211_power.o
 .xtensa.info   0x0000000000000038        0x0 libnet80211/ieee80211_proto.o
 .xtensa.info   0x0000000000000038        0x0 libnet80211/ieee80211_regdomain.o
 .xtensa.info   0x0000000000000038        0x0 libnet80211/ieee80211_rfid.o
 .xtensa.info   0x0000000000000038        0x0 libnet80211/ieee80211_scan.o
 .xtensa.info   0x0000000000000038        0x0 libnet80211/ieee80211_sta.o
 .xtensa.info   0x0000000000000038        0x0 libnet80211/if_eagle.o
 .xtensa.info   0x0000000000000038        0x0 libnet80211/wl_chm.o
 .xtensa.info   0x0000000000000038        0x0 libnet80211/wl_cnx.o
 .xtensa.info   0x0000000000000038        0x0 libphy/ate_test.o
 .xtensa.info   0x0000000000000038        0x0 libphy/phy_chip_v6_ana.o
 .xtensa.info   0x0000000000000038        0x0 libphy/phy_chip_v6_cal.o
 .xtensa.info   0x0000000000000038        0x0 libphy/phy_chip_v6.o
 .xtensa.info   0x0000000000000038        0x0 libphy/phy_chip_v6_unused.o
 .xtensa.info   0x0000000000000038        0x0 libphy/phy.o
 .xtensa.info   0x0000000000000038        0x0 libphy/phy_sleep.o
 .xtensa.info   0x0000000000000038        0x0 libpp/esf_buf.o
 .xtensa.info   0x0000000000000038        0x0 libpp/if_hwctrl.o
 .xtensa.info   0x0000000000000038        0x0 libpp/lmac.o
 .xtensa.info   0x0000000000000038        0x0 libpp/mac_frame.o
 .xtensa.info   0x0000000000000038        0x0 libpp/pm_for_bcn_only_mode.o
 .xtensa.info   0x0000000000000038        0x0 libpp/pm.o
 .xtensa.info   0x0000000000000038        0x0 libpp/pp.o
 .xtensa.info   0x0000000000000038        0x0 libpp/rate_control.o
 .xtensa.info   0x0000000000000038        0x0 libpp/trc.o
 .xtensa.info   0x0000000000000038        0x0 libpp/wdev.o
 .xtensa.info   0x0000000000000038        0x0 libpwm/pwm.o
 .xtensa.info   0x0000000000000038        0x0 libsmartconfig/sc_airkiss.o
 .xtensa.info   0x0000000000000038        0x0 libsmartconfig/sc_esptouch.o
 .xtensa.info   0x0000000000000038        0x0 libsmartconfig/sc_sniffer.o
 .xtensa.info   0x0000000000000038        0x0 libssl/espconn_secure.o
 .xtensa.info   0x0000000000000038        0x0 libssl/espconn_ssl.o
 .xtensa.info   0x0000000000000038        0x0 libssl/sha256.o
 .xtensa.info   0x0000000000000038        0x0 libssl/sha384.o
 .xtensa.info   0x0000000000000038        0x0 libssl/sha512.o
 .xtensa.info   0x0000000000000038        0x0 libssl/ssl_aes.o
 .xtensa.info   0x0000000000000038        0x0 libssl/ssl_asn1.o
 .xtensa.info   0x0000000000000038        0x0 libssl/ssl_bigint.o
 .xtensa.info   0x0000000000000038        0x0 libssl/ssl_crypto_misc.o
 .xtensa.info   0x0000000000000038        0x0 libssl/ssl_gen_cert.o
 .xtensa.info   0x0000000000000038        0x0 libssl/ssl_hmac.o
 .xtensa.info   0x0000000000000038        0x0 libssl/ssl_loader.o
 .xtensa.info   0x0000000000000038        0x0 libssl/ssl_md5.o
 .xtensa.info   0x0000000000000038        0x0 libssl/ssl_openssl.o
 .xtensa.info   0x0000000000000038        0x0 libssl/ssl_os_port.o
 .xtensa.info   0x0000000000000038        0x0 libssl/ssl_p12.o
 .xtensa.info   0x0000000000000038        0x0 libssl/ssl_rc4.o
 .xtensa.info   0x0000000000000038        0x0 libssl/ssl_rsa.o
 .xtensa.info   0x0000000000000038        0x0 libssl/ssl_sha1.o
 .xtensa.info   0x0000000000000038        0x0 libssl/ssl_tls1_clnt.o
 .xtensa.info   0x0000000000000038        0x0 libssl/ssl_tls1.o
 .xtensa.info   0x0000000000000038        0x0 libssl/ssl_tls1_svr.o
 .xtensa.info   0x0000000000000038        0x0 libssl/ssl_x509.o
 .xtensa.info   0x0000000000000038        0x0 libwpa2/asn1.o
 .xtensa.info   0x0000000000000038        0x0 libwpa2/base64.o
 .xtensa.info   0x0000000000000038        0x0 libwpa2/bignum.o
 .xtensa.info   0x0000000000000038        0x0 libwpa2/chap.o
 .xtensa.info   0x0000000000000038        0x0 libwpa2/eap_common.o
 .xtensa.info   0x0000000000000038        0x0 libwpa2/eap_mschapv2.o
 .xtensa.info   0x0000000000000038        0x0 libwpa2/eap.o
 .xtensa.info   0x0000000000000038        0x0 libwpa2/eap_peap_common.o
 .xtensa.info   0x0000000000000038        0x0 libwpa2/eap_peap.o
 .xtensa.info   0x0000000000000038        0x0 libwpa2/eap_tls_common.o
 .xtensa.info   0x0000000000000038        0x0 libwpa2/eap_tls.o
 .xtensa.info   0x0000000000000038        0x0 libwpa2/eap_ttls.o
 .xtensa.info   0x0000000000000038        0x0 libwpa2/ext_password.o
 .xtensa.info   0x0000000000000038        0x0 libwpa2/mschapv2.o
 .xtensa.info   0x0000000000000038        0x0 libwpa2/pkcs1.o
 .xtensa.info   0x0000000000000038        0x0 libwpa2/pkcs5.o
 .xtensa.info   0x0000000000000038        0x0 libwpa2/pkcs8.o
 .xtensa.info   0x0000000000000038        0x0 libwpa2/rsa.o
 .xtensa.info   0x0000000000000038        0x0 libwpa2/tls_internal.o
 .xtensa.info   0x0000000000000038        0x0 libwpa2/tlsv1_client.o
 .xtensa.info   0x0000000000000038        0x0 libwpa2/tlsv1_client_read.o
 .xtensa.info   0x0000000000000038        0x0 libwpa2/tlsv1_client_write.o
 .xtensa.info   0x0000000000000038        0x0 libwpa2/tlsv1_common.o
 .xtensa.info   0x0000000000000038        0x0 libwpa2/tlsv1_cred.o
 .xtensa.info   0x0000000000000038        0x0 libwpa2/tlsv1_record.o
 .xtensa.info   0x0000000000000038        0x0 libwpa2/tlsv1_server.o
 .xtensa.info   0x0000000000000038        0x0 libwpa2/tlsv1_server_read.o
 .xtensa.info   0x0000000000000038        0x0 libwpa2/tlsv1_server_write.o
 .xtensa.info   0x0000000000000038        0x0 libwpa2/x509v3.o
 .xtensa.info   0x0000000000000038        0x0 libwpa/ap_config.o
 .xtensa.info   0x0000000000000038        0x0 libwpa/common.o
 .xtensa.info   0x0000000000000038        0x0 libwpa/os_xtensa.o
 .xtensa.info   0x0000000000000038        0x0 libwpa/sta_info.o
 .xtensa.info   0x0000000000000038        0x0 libwpa/wpa_auth_ie.o
 .xtensa.info   0x0000000000000038        0x0 libwpa/wpa_auth.o
 .xtensa.info   0x0000000000000038        0x0 libwpa/wpabuf.o
 .xtensa.info   0x0000000000000038        0x0 libwpa/wpa_common.o
 .xtensa.info   0x0000000000000038        0x0 libwpa/wpa_debug.o
 .xtensa.info   0x0000000000000038        0x0 libwpa/wpa_ie.o
 .xtensa.info   0x0000000000000038        0x0 libwpa/wpa_main.o
 .xtensa.info   0x0000000000000038        0x0 libwpa/wpa.o
 .xtensa.info   0x0000000000000038        0x0 libwpa/wpas_glue.o
 .xtensa.info   0x0000000000000038        0x0 libwps/uuid.o
 .xtensa.info   0x0000000000000038        0x0 libwps/wps_attr_build.o
 .xtensa.info   0x0000000000000038        0x0 libwps/wps_attr_parse.o
 .xtensa.info   0x0000000000000038        0x0 libwps/wps_attr_process.o
 .xtensa.info   0x0000000000000038        0x0 libwps/wps_common.o
 .xtensa.info   0x0000000000000038        0x0 libwps/wps_dev_attr.o
 .xtensa.info   0x0000000000000038        0x0 libwps/wps_enrollee.o
 .xtensa.info   0x0000000000000038        0x0 libwps/wps.o
 .xtensa.info   0x0000000000000038        0x0 libwps/wps_registrar.o
 .xtensa.info   0x0000000000000038        0x0 libwps/wps_validate.o
 .xtensa.info   0x0000000000000038        0x0 ../empty_user.o
 .xtensa.info   0x0000000000000038        0x0 ../empty_libgcc.o
 .xtensa.info   0x0000000000000038        0x0 /mnt/hdd/projects-3rdparty/xtensa/esp-open-sdk/xtensa-lx106-elf/bin/../lib/gcc/xtensa-lx106-elf/4.8.5/../../../../xtensa-lx106-elf/lib/libc.a(lib_a-atoi.o)
 .xtensa.info   0x0000000000000038        0x0 /mnt/hdd/projects-3rdparty/xtensa/esp-open-sdk/xtensa-lx106-elf/bin/../lib/gcc/xtensa-lx106-elf/4.8.5/../../../../xtensa-lx106-elf/lib/libc.a(lib_a-memchr.o)
 .xtensa.info   0x0000000000000038        0x0 /mnt/hdd/projects-3rdparty/xtensa/esp-open-sdk/xtensa-lx106-elf/bin/../lib/gcc/xtensa-lx106-elf/4.8.5/../../../../xtensa-lx106-elf/lib/libc.a(lib_a-memcmp.o)
 .xtensa.info   0x0000000000000038        0x0 /mnt/hdd/projects-3rdparty/xtensa/esp-open-sdk/xtensa-lx106-elf/bin/../lib/gcc/xtensa-lx106-elf/4.8.5/../../../../xtensa-lx106-elf/lib/libc.a(lib_a-memcpy.o)
 .xtensa.info   0x0000000000000038        0x0 /mnt/hdd/projects-3rdparty/xtensa/esp-open-sdk/xtensa-lx106-elf/bin/../lib/gcc/xtensa-lx106-elf/4.8.5/../../../../xtensa-lx106-elf/lib/libc.a(lib_a-strcasecmp.o)
 .xtensa.info   0x0000000000000038        0x0 /mnt/hdd/projects-3rdparty/xtensa/esp-open-sdk/xtensa-lx106-elf/bin/../lib/gcc/xtensa-lx106-elf/4.8.5/../../../../xtensa-lx106-elf/lib/libc.a(lib_a-strtol.o)
 .xtensa.info   0x0000000000000038        0x0 /mnt/hdd/projects-3rdparty/xtensa/esp-open-sdk/xtensa-lx106-elf/bin/../lib/gcc/xtensa-lx106-elf/4.8.5/../../../../xtensa-lx106-elf/lib/libc.a(lib_a-sysgettod.o)
 .xtensa.info   0x0000000000000038        0x0 /mnt/hdd/projects-3rdparty/xtensa/esp-open-sdk/xtensa-lx106-elf/bin/../lib/gcc/xtensa-lx106-elf/4.8.5/../../../../xtensa-lx106-elf/lib/libc.a(lib_a-ctype_.o)
 .xtensa.info   0x0000000000000038        0x0 /mnt/hdd/projects-3rdparty/xtensa/esp-open-sdk/xtensa-lx106-elf/bin/../lib/gcc/xtensa-lx106-elf/4.8.5/../../../../xtensa-lx106-elf/lib/libc.a(lib_a-impure.o)

.xt.lit         0x0000000000000000     0x22a0
 .xt.lit        0x0000000000000000        0x8 libairkiss/airkiss.o
 .xt.lit        0x0000000000000008        0x8 libairkiss/airlink.o
 .xt.lit        0x0000000000000010        0x8 libcrypto/aes-cbc.o
                                         0x10 (size before relaxing)
 .xt.lit        0x0000000000000018       0x20 libcrypto/aes-internal-dec.o
 .xt.lit        0x0000000000000038       0x10 libcrypto/aes-internal-enc.o
                                         0x18 (size before relaxing)
 .xt.lit        0x0000000000000048        0x8 libcrypto/aes-internal.o
 .xt.lit        0x0000000000000050        0x0 libcrypto/aes-wrap.o
                                          0x8 (size before relaxing)
 .xt.lit        0x0000000000000050       0x10 libcrypto/crypto_internal-cipher.o
                                         0x20 (size before relaxing)
 .xt.lit        0x0000000000000060        0x0 libcrypto/crypto_internal-modexp.o
                                          0x8 (size before relaxing)
 .xt.lit        0x0000000000000060        0x8 libcrypto/crypto_internal.o
                                         0x18 (size before relaxing)
 .xt.lit        0x0000000000000068        0x0 libcrypto/crypto_internal-rsa.o
                                         0x40 (size before relaxing)
 .xt.lit        0x0000000000000068       0x18 libcrypto/des-internal.o
                                         0x20 (size before relaxing)
 .xt.lit        0x0000000000000080        0x0 libcrypto/dh_group5.o
                                         0x10 (size before relaxing)
 .xt.lit        0x0000000000000080       0x10 libcrypto/dh_groups.o
                                         0x18 (size before relaxing)
 .xt.lit        0x0000000000000090       0x18 libcrypto/md4-internal.o
                                         0x28 (size before relaxing)
 .xt.lit        0x00000000000000a8       0x28 libcrypto/ms_funcs.o
                                         0x48 (size before relaxing)
 .xt.lit        0x00000000000000d0       0x10 libcrypto/sha256-internal.o
                                         0x18 (size before relaxing)
 .xt.lit        0x00000000000000e0        0x8 libcrypto/sha256.o
                                         0x10 (size before relaxing)
 .xt.lit        0x00000000000000e8        0x8 libespnow/espnow.o
                                         0xb0 (size before relaxing)
 .xt.lit        0x00000000000000f0       0x38 libespnow/manatick.o
                                         0xd8 (size before relaxing)
 .xt.lit        0x0000000000000128       0x30 libespnow/simple_pair.o
                                         0xa0 (size before relaxing)
 .xt.lit        0x0000000000000158       0x50 liblwip/dhcp.o
                                         0xc0 (size before relaxing)
 .xt.lit        0x00000000000001a8       0x30 liblwip/dhcpserver.o
                                         0xa8 (size before relaxing)
 .xt.lit        0x00000000000001d8       0x20 liblwip/dns.o
                                         0x48 (size before relaxing)
 .xt.lit        0x00000000000001f8       0x38 liblwip/espconn_buf.o
 .xt.lit        0x0000000000000230        0x0 liblwip/espconn_mdns.o
                                         0x50 (size before relaxing)
 .xt.lit        0x0000000000000230       0x30 liblwip/espconn.o
                                         0xf0 (size before relaxing)
 .xt.lit        0x0000000000000260       0x88 liblwip/espconn_tcp.o
                                         0xd0 (size before relaxing)
 .xt.lit        0x00000000000002e8       0x18 liblwip/espconn_udp.o
                                         0x38 (size before relaxing)
 .xt.lit        0x0000000000000300       0x30 liblwip/etharp.o
                                         0x78 (size before relaxing)
 .xt.lit        0x0000000000000330        0x8 liblwip/icmp.o
                                         0x10 (size before relaxing)
 .xt.lit        0x0000000000000338       0x18 liblwip/igmp.o
                                         0x70 (size before relaxing)
 .xt.lit        0x0000000000000350        0x8 liblwip/init.o
 .xt.lit        0x0000000000000358       0x10 liblwip/ip_addr.o
                                         0x20 (size before relaxing)
 .xt.lit        0x0000000000000368       0x20 liblwip/ip.o
 .xt.lit        0x0000000000000388       0x58 liblwip/mdns.o
                                         0x80 (size before relaxing)
 .xt.lit        0x00000000000003e0       0x10 liblwip/netif.o
                                         0x40 (size before relaxing)
 .xt.lit        0x00000000000003f0       0x28 liblwip/netio.o
 .xt.lit        0x0000000000000418       0x10 liblwip/pbuf.o
                                         0x48 (size before relaxing)
 .xt.lit        0x0000000000000428       0x28 liblwip/ping.o
                                         0x38 (size before relaxing)
 .xt.lit        0x0000000000000450       0x10 liblwip/raw.o
                                         0x20 (size before relaxing)
 .xt.lit        0x0000000000000460       0x88 liblwip/sntp.o
                                         0xe8 (size before relaxing)
 .xt.lit        0x00000000000004e8       0x18 liblwip/tcp_in.o
                                         0x38 (size before relaxing)
 .xt.lit        0x0000000000000500       0x50 liblwip/tcp.o
                                         0xb8 (size before relaxing)
 .xt.lit        0x0000000000000550       0x30 liblwip/tcp_out.o
                                         0x68 (size before relaxing)
 .xt.lit        0x0000000000000580       0x50 liblwip/timers.o
                                         0x68 (size before relaxing)
 .xt.lit        0x00000000000005d0       0x10 liblwip/udp.o
                                         0x38 (size before relaxing)
 .xt.lit        0x00000000000005e0       0xa8 libmain/app_main.o
                                         0xb0 (size before relaxing)
 .xt.lit        0x0000000000000688       0x10 libmain/eagle_lib.o
                                         0x18 (size before relaxing)
 .xt.lit        0x0000000000000698        0x8 libmain/eagle_lwip_if.o
                                         0x28 (size before relaxing)
 .xt.lit        0x00000000000006a0       0x48 libmain/ets_timer.o
 .xt.lit        0x00000000000006e8       0x38 libmain/mem_manager.o
                                         0x60 (size before relaxing)
 .xt.lit        0x0000000000000720        0x8 libmain/nmi-vector.o
                                         0x10 (size before relaxing)
 .xt.lit        0x0000000000000728       0x80 libmain/spi_flash.o
 .xt.lit        0x00000000000007a8       0x10 libmain/spi_overlap.o
                                         0x18 (size before relaxing)
 .xt.lit        0x00000000000007b8       0x40 libmain/time.o
                                         0x60 (size before relaxing)
 .xt.lit        0x00000000000007f8      0x210 libmain/user_interface.o
                                        0x4e8 (size before relaxing)
 .xt.lit        0x0000000000000a08        0x8 libmain/user-vector.o
                                         0x10 (size before relaxing)
 .xt.lit        0x0000000000000a10        0x8 libmain/vector.o
 .xt.lit        0x0000000000000a18       0x18 libmesh/espconn_base64.o
                                         0x20 (size before relaxing)
 .xt.lit        0x0000000000000a30      0x290 libmesh/espconn_mesh.o
                                        0x3d8 (size before relaxing)
 .xt.lit        0x0000000000000cc0       0x20 libnet80211/ieee80211_action.o
                                         0x30 (size before relaxing)
 .xt.lit        0x0000000000000ce0       0x28 libnet80211/ieee80211_action_vendor.o
                                         0x60 (size before relaxing)
 .xt.lit        0x0000000000000d08        0x0 libnet80211/ieee80211_crypto_ccmp.o
                                         0x10 (size before relaxing)
 .xt.lit        0x0000000000000d08        0x0 libnet80211/ieee80211_crypto.o
                                         0x10 (size before relaxing)
 .xt.lit        0x0000000000000d08       0x10 libnet80211/ieee80211_crypto_tkip.o
 .xt.lit        0x0000000000000d18        0x8 libnet80211/ieee80211_crypto_wep.o
 .xt.lit        0x0000000000000d20        0x8 libnet80211/ieee80211_ets.o
 .xt.lit        0x0000000000000d28       0x68 libnet80211/ieee80211_hostap.o
                                         0x78 (size before relaxing)
 .xt.lit        0x0000000000000d90       0x48 libnet80211/ieee80211_ht.o
                                         0x70 (size before relaxing)
 .xt.lit        0x0000000000000dd8        0x8 libnet80211/ieee80211_ie_vendor.o
                                         0x38 (size before relaxing)
 .xt.lit        0x0000000000000de0       0x30 libnet80211/ieee80211_input.o
                                         0x60 (size before relaxing)
 .xt.lit        0x0000000000000e10       0x18 libnet80211/ieee80211_mesh_quick.o
                                         0x28 (size before relaxing)
 .xt.lit        0x0000000000000e28       0x38 libnet80211/ieee80211.o
                                         0x50 (size before relaxing)
 .xt.lit        0x0000000000000e60       0x60 libnet80211/ieee80211_output.o
                                         0xb8 (size before relaxing)
 .xt.lit        0x0000000000000ec0        0x8 libnet80211/ieee80211_phy.o
                                         0x18 (size before relaxing)
 .xt.lit        0x0000000000000ec8        0x8 libnet80211/ieee80211_power.o
                                         0x20 (size before relaxing)
 .xt.lit        0x0000000000000ed0       0x18 libnet80211/ieee80211_proto.o
 .xt.lit        0x0000000000000ee8       0x10 libnet80211/ieee80211_regdomain.o
                                         0x20 (size before relaxing)
 .xt.lit        0x0000000000000ef8       0x10 libnet80211/ieee80211_rfid.o
                                         0x30 (size before relaxing)
 .xt.lit        0x0000000000000f08       0x48 libnet80211/ieee80211_scan.o
                                         0xd8 (size before relaxing)
 .xt.lit        0x0000000000000f50       0x40 libnet80211/ieee80211_sta.o
                                         0x68 (size before relaxing)
 .xt.lit        0x0000000000000f90       0x20 libnet80211/wl_chm.o
                                         0x60 (size before relaxing)
 .xt.lit        0x0000000000000fb0       0x98 libnet80211/wl_cnx.o
                                        0x140 (size before relaxing)
 .xt.lit        0x0000000000001048       0x98 libphy/phy_chip_v6_ana.o
                                         0xc8 (size before relaxing)
 .xt.lit        0x00000000000010e0       0x78 libphy/phy_chip_v6_cal.o
                                         0xf0 (size before relaxing)
 .xt.lit        0x0000000000001158      0x158 libphy/phy_chip_v6.o
                                        0x248 (size before relaxing)
 .xt.lit        0x00000000000012b0       0x10 libphy/phy.o
                                         0x68 (size before relaxing)
 .xt.lit        0x00000000000012c0       0x78 libphy/phy_sleep.o
                                         0xd0 (size before relaxing)
 .xt.lit        0x0000000000001338       0x18 libpp/esf_buf.o
                                         0x20 (size before relaxing)
 .xt.lit        0x0000000000001350       0x30 libpp/if_hwctrl.o
                                         0xa0 (size before relaxing)
 .xt.lit        0x0000000000001380       0x70 libpp/lmac.o
                                        0x130 (size before relaxing)
 .xt.lit        0x00000000000013f0       0x58 libpp/pm_for_bcn_only_mode.o
                                         0xa8 (size before relaxing)
 .xt.lit        0x0000000000001448       0xd8 libpp/pm.o
                                        0x1a8 (size before relaxing)
 .xt.lit        0x0000000000001520       0xc8 libpp/pp.o
                                        0x1b0 (size before relaxing)
 .xt.lit        0x00000000000015e8       0x18 libpp/rate_control.o
                                         0x38 (size before relaxing)
 .xt.lit        0x0000000000001600       0x68 libpp/trc.o
                                         0xa8 (size before relaxing)
 .xt.lit        0x0000000000001668       0xe0 libpp/wdev.o
                                        0x1b0 (size before relaxing)
 .xt.lit        0x0000000000001748       0x30 libpwm/pwm.o
                                         0x60 (size before relaxing)
 .xt.lit        0x0000000000001778       0x68 libsmartconfig/sc_airkiss.o
                                         0x90 (size before relaxing)
 .xt.lit        0x00000000000017e0       0x58 libsmartconfig/sc_esptouch.o
                                         0x68 (size before relaxing)
 .xt.lit        0x0000000000001838       0x58 libsmartconfig/sc_sniffer.o
                                         0x68 (size before relaxing)
 .xt.lit        0x0000000000001890       0x10 libssl/espconn_secure.o
                                         0x68 (size before relaxing)
 .xt.lit        0x00000000000018a0       0x70 libssl/espconn_ssl.o
                                         0xf8 (size before relaxing)
 .xt.lit        0x0000000000001910       0x18 libssl/sha256.o
                                         0x20 (size before relaxing)
 .xt.lit        0x0000000000001928        0x8 libssl/sha384.o
                                         0x18 (size before relaxing)
 .xt.lit        0x0000000000001930       0x18 libssl/sha512.o
                                         0x20 (size before relaxing)
 .xt.lit        0x0000000000001948       0x18 libssl/ssl_aes.o
                                         0x30 (size before relaxing)
 .xt.lit        0x0000000000001960       0x40 libssl/ssl_asn1.o
                                         0x70 (size before relaxing)
 .xt.lit        0x00000000000019a0       0x40 libssl/ssl_bigint.o
                                         0xc8 (size before relaxing)
 .xt.lit        0x00000000000019e0       0x10 libssl/ssl_crypto_misc.o
                                         0x20 (size before relaxing)
 .xt.lit        0x00000000000019f0        0x0 libssl/ssl_hmac.o
                                         0x10 (size before relaxing)
 .xt.lit        0x00000000000019f0       0x20 libssl/ssl_loader.o
                                         0x40 (size before relaxing)
 .xt.lit        0x0000000000001a10       0x18 libssl/ssl_md5.o
                                         0x20 (size before relaxing)
 .xt.lit        0x0000000000001a28       0x10 libssl/ssl_rsa.o
                                         0x40 (size before relaxing)
 .xt.lit        0x0000000000001a38       0x10 libssl/ssl_sha1.o
                                         0x18 (size before relaxing)
 .xt.lit        0x0000000000001a48        0x8 libssl/ssl_tls1_clnt.o
                                         0x30 (size before relaxing)
 .xt.lit        0x0000000000001a50       0x68 libssl/ssl_tls1.o
                                        0x130 (size before relaxing)
 .xt.lit        0x0000000000001ab8       0x18 libssl/ssl_tls1_svr.o
                                         0x48 (size before relaxing)
 .xt.lit        0x0000000000001ad0       0x18 libssl/ssl_x509.o
                                         0x30 (size before relaxing)
 .xt.lit        0x0000000000001ae8       0x10 libwpa2/asn1.o
                                         0x18 (size before relaxing)
 .xt.lit        0x0000000000001af8        0x8 libwpa2/base64.o
                                         0x10 (size before relaxing)
 .xt.lit        0x0000000000001b00       0x30 libwpa2/bignum.o
                                         0xa0 (size before relaxing)
 .xt.lit        0x0000000000001b30        0x8 libwpa2/eap_common.o
                                         0x10 (size before relaxing)
 .xt.lit        0x0000000000001b38       0x38 libwpa2/eap_mschapv2.o
                                         0x78 (size before relaxing)
 .xt.lit        0x0000000000001b70       0x68 libwpa2/eap.o
                                        0x168 (size before relaxing)
 .xt.lit        0x0000000000001bd8        0x8 libwpa2/eap_peap_common.o
 .xt.lit        0x0000000000001be0       0x58 libwpa2/eap_peap.o
                                         0xc0 (size before relaxing)
 .xt.lit        0x0000000000001c38       0x40 libwpa2/eap_tls_common.o
                                         0xd0 (size before relaxing)
 .xt.lit        0x0000000000001c78       0x18 libwpa2/eap_tls.o
                                         0x38 (size before relaxing)
 .xt.lit        0x0000000000001c90       0x98 libwpa2/eap_ttls.o
                                         0xe0 (size before relaxing)
 .xt.lit        0x0000000000001d28        0x8 libwpa2/ext_password.o
                                         0x20 (size before relaxing)
 .xt.lit        0x0000000000001d30        0x0 libwpa2/mschapv2.o
                                         0x10 (size before relaxing)
 .xt.lit        0x0000000000001d30        0x8 libwpa2/pkcs1.o
                                         0x20 (size before relaxing)
 .xt.lit        0x0000000000001d38       0x18 libwpa2/pkcs5.o
                                         0x20 (size before relaxing)
 .xt.lit        0x0000000000001d50        0x8 libwpa2/pkcs8.o
                                         0x10 (size before relaxing)
 .xt.lit        0x0000000000001d58       0x10 libwpa2/rsa.o
                                         0x30 (size before relaxing)
 .xt.lit        0x0000000000001d68       0x10 libwpa2/tls_internal.o
                                         0x98 (size before relaxing)
 .xt.lit        0x0000000000001d78       0x20 libwpa2/tlsv1_client.o
                                         0x90 (size before relaxing)
 .xt.lit        0x0000000000001d98       0x18 libwpa2/tlsv1_client_read.o
                                         0x50 (size before relaxing)
 .xt.lit        0x0000000000001db0       0x10 libwpa2/tlsv1_client_write.o
                                         0x68 (size before relaxing)
 .xt.lit        0x0000000000001dc0       0x18 libwpa2/tlsv1_common.o
                                         0x40 (size before relaxing)
 .xt.lit        0x0000000000001dd8       0x18 libwpa2/tlsv1_cred.o
                                         0x68 (size before relaxing)
 .xt.lit        0x0000000000001df0        0x8 libwpa2/tlsv1_record.o
                                         0x28 (size before relaxing)
 .xt.lit        0x0000000000001df8       0x18 libwpa2/tlsv1_server.o
                                         0x68 (size before relaxing)
 .xt.lit        0x0000000000001e10       0x18 libwpa2/tlsv1_server_read.o
                                         0x48 (size before relaxing)
 .xt.lit        0x0000000000001e28       0x10 libwpa2/tlsv1_server_write.o
                                         0x58 (size before relaxing)
 .xt.lit        0x0000000000001e38       0x30 libwpa2/x509v3.o
                                         0xd0 (size before relaxing)
 .xt.lit        0x0000000000001e68       0x18 libwpa/ap_config.o
                                         0x40 (size before relaxing)
 .xt.lit        0x0000000000001e80       0x10 libwpa/common.o
                                         0x18 (size before relaxing)
 .xt.lit        0x0000000000001e90        0x8 libwpa/os_xtensa.o
                                         0x10 (size before relaxing)
 .xt.lit        0x0000000000001e98       0x10 libwpa/wpa_auth_ie.o
                                         0x38 (size before relaxing)
 .xt.lit        0x0000000000001ea8       0x78 libwpa/wpa_auth.o
                                        0x100 (size before relaxing)
 .xt.lit        0x0000000000001f20       0x30 libwpa/wpabuf.o
                                         0x60 (size before relaxing)
 .xt.lit        0x0000000000001f50       0x20 libwpa/wpa_common.o
                                         0x58 (size before relaxing)
 .xt.lit        0x0000000000001f70        0x8 libwpa/wpa_debug.o
 .xt.lit        0x0000000000001f78        0x0 libwpa/wpa_ie.o
                                         0x18 (size before relaxing)
 .xt.lit        0x0000000000001f78       0x18 libwpa/wpa_main.o
                                         0x48 (size before relaxing)
 .xt.lit        0x0000000000001f90       0x40 libwpa/wpa.o
                                        0x110 (size before relaxing)
 .xt.lit        0x0000000000001fd0        0x0 libwpa/wpas_glue.o
                                         0x10 (size before relaxing)
 .xt.lit        0x0000000000001fd0        0x8 libwps/uuid.o
                                         0x10 (size before relaxing)
 .xt.lit        0x0000000000001fd8       0xa0 libwps/wps_attr_build.o
                                         0xb8 (size before relaxing)
 .xt.lit        0x0000000000002078        0x8 libwps/wps_attr_parse.o
                                         0x18 (size before relaxing)
 .xt.lit        0x0000000000002080        0x0 libwps/wps_attr_process.o
                                         0x30 (size before relaxing)
 .xt.lit        0x0000000000002080       0x30 libwps/wps_common.o
                                         0x78 (size before relaxing)
 .xt.lit        0x00000000000020b0       0x60 libwps/wps_dev_attr.o
                                         0xb0 (size before relaxing)
 .xt.lit        0x0000000000002110       0x58 libwps/wps_enrollee.o
                                        0x130 (size before relaxing)
 .xt.lit        0x0000000000002168       0x88 libwps/wps.o
                                        0x170 (size before relaxing)
 .xt.lit        0x00000000000021f0       0x98 libwps/wps_registrar.o
                                        0x290 (size before relaxing)
 .xt.lit        0x0000000000002288        0x0 libwps/wps_validate.o
                                         0xd0 (size before relaxing)
 .xt.lit        0x0000000000002288        0x0 /mnt/hdd/projects-3rdparty/xtensa/esp-open-sdk/xtensa-lx106-elf/bin/../lib/gcc/xtensa-lx106-elf/4.8.5/../../../../xtensa-lx106-elf/lib/libc.a(lib_a-atoi.o)
                                          0x8 (size before relaxing)
 .xt.lit        0x0000000000002288        0x8 /mnt/hdd/projects-3rdparty/xtensa/esp-open-sdk/xtensa-lx106-elf/bin/../lib/gcc/xtensa-lx106-elf/4.8.5/../../../../xtensa-lx106-elf/lib/libc.a(lib_a-strcasecmp.o)
 .xt.lit        0x0000000000002290        0x8 /mnt/hdd/projects-3rdparty/xtensa/esp-open-sdk/xtensa-lx106-elf/bin/../lib/gcc/xtensa-lx106-elf/4.8.5/../../../../xtensa-lx106-elf/lib/libc.a(lib_a-strtol.o)
 .xt.lit        0x0000000000002298        0x8 /mnt/hdd/projects-3rdparty/xtensa/esp-open-sdk/xtensa-lx106-elf/bin/../lib/gcc/xtensa-lx106-elf/4.8.5/../../../../xtensa-lx106-elf/lib/libc.a(lib_a-sysgettod.o)

.xt.prop        0x0000000000000000    0x50340
 .xt.prop       0x0000000000000000      0x480 libairkiss/airkiss.o
 .xt.prop       0x0000000000000480      0x120 libairkiss/airlink.o
 .xt.prop       0x00000000000005a0       0xd8 libcrypto/aes-cbc.o
 .xt.prop       0x0000000000000678      0x138 libcrypto/aes-internal-dec.o
                                        0x144 (size before relaxing)
 .xt.prop       0x00000000000007b0       0xd8 libcrypto/aes-internal-enc.o
                                         0xe4 (size before relaxing)
 .xt.prop       0x0000000000000888       0xb4 libcrypto/aes-internal.o
 .xt.prop       0x000000000000093c       0x6c libcrypto/aes-wrap.o
 .xt.prop       0x00000000000009a8      0x204 libcrypto/crypto_internal-cipher.o
                                        0x210 (size before relaxing)
 .xt.prop       0x0000000000000bac       0x54 libcrypto/crypto_internal-modexp.o
 .xt.prop       0x0000000000000c00      0x390 libcrypto/crypto_internal.o
                                        0x39c (size before relaxing)
 .xt.prop       0x0000000000000f90      0x144 libcrypto/crypto_internal-rsa.o
 .xt.prop       0x00000000000010d4      0x18c libcrypto/des-internal.o
                                        0x210 (size before relaxing)
 .xt.prop       0x0000000000001260       0x60 libcrypto/dh_group5.o
 .xt.prop       0x00000000000012c0      0x138 libcrypto/dh_groups.o
                                        0x144 (size before relaxing)
 .xt.prop       0x00000000000013f8      0x138 libcrypto/md4-internal.o
                                        0x150 (size before relaxing)
 .xt.prop       0x0000000000001530      0x558 libcrypto/ms_funcs.o
                                        0x570 (size before relaxing)
 .xt.prop       0x0000000000001a88      0x204 libcrypto/sha256-internal.o
                                        0x21c (size before relaxing)
 .xt.prop       0x0000000000001c8c       0xcc libcrypto/sha256.o
 .xt.prop       0x0000000000001d58      0x6c0 libespnow/espnow.o
 .xt.prop       0x0000000000002418      0xcb4 libespnow/manatick.o
                                        0xccc (size before relaxing)
 .xt.prop       0x00000000000030cc      0xd98 libespnow/simple_pair.o
                                        0xda4 (size before relaxing)
 .xt.prop       0x0000000000003e64      0xd98 liblwip/dhcp.o
                                        0xdbc (size before relaxing)
 .xt.prop       0x0000000000004bfc      0xad4 liblwip/dhcpserver.o
                                        0xb34 (size before relaxing)
 .xt.prop       0x00000000000056d0      0x45c liblwip/dns.o
                                        0x4c8 (size before relaxing)
 .xt.prop       0x0000000000005b2c      0x5c4 liblwip/espconn_buf.o
                                        0x5d0 (size before relaxing)
 .xt.prop       0x00000000000060f0      0x168 liblwip/espconn_mdns.o
 .xt.prop       0x0000000000006258      0xf90 liblwip/espconn.o
                                        0xff0 (size before relaxing)
 .xt.prop       0x00000000000071e8      0xee8 liblwip/espconn_tcp.o
                                        0xef4 (size before relaxing)
 .xt.prop       0x00000000000080d0      0x330 liblwip/espconn_udp.o
                                        0x33c (size before relaxing)
 .xt.prop       0x0000000000008400      0x708 liblwip/etharp.o
                                        0x750 (size before relaxing)
 .xt.prop       0x0000000000008b08      0x114 liblwip/icmp.o
 .xt.prop       0x0000000000008c1c      0x63c liblwip/igmp.o
                                        0x66c (size before relaxing)
 .xt.prop       0x0000000000009258      0x168 liblwip/inet_chksum.o
 .xt.prop       0x00000000000093c0       0x24 liblwip/init.o
 .xt.prop       0x00000000000093e4      0x324 liblwip/ip_addr.o
                                        0x330 (size before relaxing)
 .xt.prop       0x0000000000009708      0x438 liblwip/ip.o
                                        0x480 (size before relaxing)
 .xt.prop       0x0000000000009b40      0xa20 liblwip/mdns.o
                                        0xb40 (size before relaxing)
 .xt.prop       0x000000000000a560        0x0 liblwip/memp.o
                                         0x18 (size before relaxing)
 .xt.prop       0x000000000000a560      0x33c liblwip/netif.o
                                        0x360 (size before relaxing)
 .xt.prop       0x000000000000a89c      0x2e8 liblwip/netio.o
                                        0x2f4 (size before relaxing)
 .xt.prop       0x000000000000ab84      0x7a4 liblwip/pbuf.o
                                        0x7b0 (size before relaxing)
 .xt.prop       0x000000000000b328      0x2d0 liblwip/ping.o
                                        0x300 (size before relaxing)
 .xt.prop       0x000000000000b5f8      0x294 liblwip/raw.o
                                        0x2ac (size before relaxing)
 .xt.prop       0x000000000000b88c      0x93c liblwip/sntp.o
                                        0xa08 (size before relaxing)
 .xt.prop       0x000000000000c1c8      0xc6c liblwip/tcp_in.o
                                        0xcfc (size before relaxing)
 .xt.prop       0x000000000000ce34      0xcfc liblwip/tcp.o
                                        0xd68 (size before relaxing)
 .xt.prop       0x000000000000db30      0x960 liblwip/tcp_out.o
                                        0x96c (size before relaxing)
 .xt.prop       0x000000000000e490      0x354 liblwip/timers.o
                                        0x384 (size before relaxing)
 .xt.prop       0x000000000000e7e4      0x5a0 liblwip/udp.o
                                        0x5b8 (size before relaxing)
 .xt.prop       0x000000000000ed84     0x10a4 libmain/app_main.o
                                       0x114c (size before relaxing)
 .xt.prop       0x000000000000fe28       0x18 libmain/debug-vector.o
 .xt.prop       0x000000000000fe40       0x18 libmain/double-vector.o
 .xt.prop       0x000000000000fe58      0x858 libmain/eagle_lib.o
 .xt.prop       0x00000000000106b0      0x270 libmain/eagle_lwip_if.o
                                        0x2a0 (size before relaxing)
 .xt.prop       0x0000000000010920      0x5e8 libmain/ets_timer.o
                                        0x630 (size before relaxing)
 .xt.prop       0x0000000000010f08       0x18 libmain/kernel-vector.o
 .xt.prop       0x0000000000010f20      0x3e4 libmain/mem_manager.o
                                        0x474 (size before relaxing)
 .xt.prop       0x0000000000011304       0x30 libmain/nmi-vector.o
                                         0x3c (size before relaxing)
 .xt.prop       0x0000000000011334      0x5ac libmain/spi_flash.o
                                        0x5c4 (size before relaxing)
 .xt.prop       0x00000000000118e0      0x12c libmain/spi_overlap.o
 .xt.prop       0x0000000000011a0c      0x288 libmain/time.o
                                        0x2ac (size before relaxing)
 .xt.prop       0x0000000000011c94     0x3a68 libmain/user_interface.o
                                       0x3bf4 (size before relaxing)
 .xt.prop       0x00000000000156fc       0x30 libmain/user-vector.o
                                         0x3c (size before relaxing)
 .xt.prop       0x000000000001572c       0x18 libmain/vector.o
 .xt.prop       0x0000000000015744      0x1f8 libmesh/espconn_base64.o
                                        0x228 (size before relaxing)
 .xt.prop       0x000000000001593c     0x4968 libmesh/espconn_mesh.o
                                       0x4c8c (size before relaxing)
 .xt.prop       0x000000000001a2a4      0x33c libnet80211/ieee80211_action.o
 .xt.prop       0x000000000001a5e0      0x480 libnet80211/ieee80211_action_vendor.o
                                        0x4c8 (size before relaxing)
 .xt.prop       0x000000000001aa60       0xcc libnet80211/ieee80211_crypto_ccmp.o
                                         0xd8 (size before relaxing)
 .xt.prop       0x000000000001ab2c      0x15c libnet80211/ieee80211_crypto.o
 .xt.prop       0x000000000001ac88       0xe4 libnet80211/ieee80211_crypto_tkip.o
                                         0xfc (size before relaxing)
 .xt.prop       0x000000000001ad6c       0x6c libnet80211/ieee80211_crypto_wep.o
                                         0x78 (size before relaxing)
 .xt.prop       0x000000000001add8       0x48 libnet80211/ieee80211_ets.o
 .xt.prop       0x000000000001ae20      0xe70 libnet80211/ieee80211_hostap.o
                                        0xf54 (size before relaxing)
 .xt.prop       0x000000000001bc90      0x684 libnet80211/ieee80211_ht.o
                                        0x690 (size before relaxing)
 .xt.prop       0x000000000001c314      0x114 libnet80211/ieee80211_ie_vendor.o
 .xt.prop       0x000000000001c428      0x900 libnet80211/ieee80211_input.o
                                        0x90c (size before relaxing)
 .xt.prop       0x000000000001cd28      0x468 libnet80211/ieee80211_mesh_quick.o
 .xt.prop       0x000000000001d190      0x4a4 libnet80211/ieee80211.o
                                        0x4c8 (size before relaxing)
 .xt.prop       0x000000000001d634     0x1314 libnet80211/ieee80211_output.o
                                       0x1320 (size before relaxing)
 .xt.prop       0x000000000001e948      0x108 libnet80211/ieee80211_phy.o
 .xt.prop       0x000000000001ea50      0x1bc libnet80211/ieee80211_power.o
 .xt.prop       0x000000000001ec0c      0x12c libnet80211/ieee80211_proto.o
                                        0x138 (size before relaxing)
 .xt.prop       0x000000000001ed38      0x234 libnet80211/ieee80211_regdomain.o
 .xt.prop       0x000000000001ef6c      0x12c libnet80211/ieee80211_rfid.o
 .xt.prop       0x000000000001f098      0xc60 libnet80211/ieee80211_scan.o
                                        0xcfc (size before relaxing)
 .xt.prop       0x000000000001fcf8      0xab0 libnet80211/ieee80211_sta.o
                                        0xaec (size before relaxing)
 .xt.prop       0x00000000000207a8      0x2dc libnet80211/wl_chm.o
                                        0x2e8 (size before relaxing)
 .xt.prop       0x0000000000020a84     0x1260 libnet80211/wl_cnx.o
                                       0x12d8 (size before relaxing)
 .xt.prop       0x0000000000021ce4      0xdb0 libphy/phy_chip_v6_ana.o
                                        0xdc8 (size before relaxing)
 .xt.prop       0x0000000000022a94     0x1098 libphy/phy_chip_v6_cal.o
                                       0x10f8 (size before relaxing)
 .xt.prop       0x0000000000023b2c     0x20e8 libphy/phy_chip_v6.o
                                       0x22a4 (size before relaxing)
 .xt.prop       0x0000000000025c14       0x60 libphy/phy_chip_v6_unused.o
                                         0x6c (size before relaxing)
 .xt.prop       0x0000000000025c74      0x1d4 libphy/phy.o
                                        0x1e0 (size before relaxing)
 .xt.prop       0x0000000000025e48      0x87c libphy/phy_sleep.o
                                        0x8d0 (size before relaxing)
 .xt.prop       0x00000000000266c4      0x264 libpp/esf_buf.o
                                        0x2e8 (size before relaxing)
 .xt.prop       0x0000000000026928      0x528 libpp/if_hwctrl.o
                                        0x558 (size before relaxing)
 .xt.prop       0x0000000000026e50     0x1500 libpp/lmac.o
                                       0x1554 (size before relaxing)
 .xt.prop       0x0000000000028350      0x9d8 libpp/pm_for_bcn_only_mode.o
                                        0xa08 (size before relaxing)
 .xt.prop       0x0000000000028d28     0x1728 libpp/pm.o
                                       0x180c (size before relaxing)
 .xt.prop       0x000000000002a450     0x195c libpp/pp.o
                                       0x1b0c (size before relaxing)
 .xt.prop       0x000000000002bdac      0x1bc libpp/rate_control.o
                                        0x1d4 (size before relaxing)
 .xt.prop       0x000000000002bf68     0x1140 libpp/trc.o
                                       0x11a0 (size before relaxing)
 .xt.prop       0x000000000002d0a8     0x1350 libpp/wdev.o
                                       0x1428 (size before relaxing)
 .xt.prop       0x000000000002e3f8      0x900 libpwm/pwm.o
                                        0xa14 (size before relaxing)
 .xt.prop       0x000000000002ecf8     0x1410 libsmartconfig/sc_airkiss.o
                                       0x14a0 (size before relaxing)
 .xt.prop       0x0000000000030108     0x1890 libsmartconfig/sc_esptouch.o
                                       0x1950 (size before relaxing)
 .xt.prop       0x0000000000031998      0x900 libsmartconfig/sc_sniffer.o
                                        0x948 (size before relaxing)
 .xt.prop       0x0000000000032298      0x51c libssl/espconn_secure.o
                                        0x564 (size before relaxing)
 .xt.prop       0x00000000000327b4     0x1140 libssl/espconn_ssl.o
                                       0x11a0 (size before relaxing)
 .xt.prop       0x00000000000338f4       0xe4 libssl/sha256.o
                                         0xf0 (size before relaxing)
 .xt.prop       0x00000000000339d8       0x78 libssl/sha384.o
 .xt.prop       0x0000000000033a50      0x210 libssl/sha512.o
 .xt.prop       0x0000000000033c60      0x300 libssl/ssl_aes.o
                                        0x30c (size before relaxing)
 .xt.prop       0x0000000000033f60      0x804 libssl/ssl_asn1.o
 .xt.prop       0x0000000000034764      0xc0c libssl/ssl_bigint.o
                                        0xc18 (size before relaxing)
 .xt.prop       0x0000000000035370      0x234 libssl/ssl_crypto_misc.o
                                        0x258 (size before relaxing)
 .xt.prop       0x00000000000355a4       0x60 libssl/ssl_hmac.o
 .xt.prop       0x0000000000035604      0x408 libssl/ssl_loader.o
                                        0x420 (size before relaxing)
 .xt.prop       0x0000000000035a0c      0x15c libssl/ssl_md5.o
                                        0x168 (size before relaxing)
 .xt.prop       0x0000000000035b68       0x6c libssl/ssl_rc4.o
 .xt.prop       0x0000000000035bd4      0x24c libssl/ssl_rsa.o
                                        0x258 (size before relaxing)
 .xt.prop       0x0000000000035e20      0x174 libssl/ssl_sha1.o
                                        0x180 (size before relaxing)
 .xt.prop       0x0000000000035f94      0x33c libssl/ssl_tls1_clnt.o
 .xt.prop       0x00000000000362d0     0x1980 libssl/ssl_tls1.o
                                       0x19e0 (size before relaxing)
 .xt.prop       0x0000000000037c50      0x390 libssl/ssl_tls1_svr.o
 .xt.prop       0x0000000000037fe0      0x594 libssl/ssl_x509.o
                                        0x5a0 (size before relaxing)
 .xt.prop       0x0000000000038574      0x270 libwpa2/asn1.o
 .xt.prop       0x00000000000387e4      0x1a4 libwpa2/base64.o
                                        0x1bc (size before relaxing)
 .xt.prop       0x0000000000038988     0x1584 libwpa2/bignum.o
                                       0x1590 (size before relaxing)
 .xt.prop       0x0000000000039f0c      0x1f8 libwpa2/eap_common.o
 .xt.prop       0x000000000003a104      0x7bc libwpa2/eap_mschapv2.o
                                        0x7c8 (size before relaxing)
 .xt.prop       0x000000000003a8c0     0x11ac libwpa2/eap.o
                                       0x1284 (size before relaxing)
 .xt.prop       0x000000000003ba6c       0x90 libwpa2/eap_peap_common.o
 .xt.prop       0x000000000003bafc      0xc78 libwpa2/eap_peap.o
                                        0xc84 (size before relaxing)
 .xt.prop       0x000000000003c774      0xa68 libwpa2/eap_tls_common.o
 .xt.prop       0x000000000003d1dc      0x210 libwpa2/eap_tls.o
                                        0x21c (size before relaxing)
 .xt.prop       0x000000000003d3ec      0xf18 libwpa2/eap_ttls.o
                                        0xf48 (size before relaxing)
 .xt.prop       0x000000000003e304      0x144 libwpa2/ext_password.o
                                        0x15c (size before relaxing)
 .xt.prop       0x000000000003e448      0x114 libwpa2/mschapv2.o
 .xt.prop       0x000000000003e55c      0x228 libwpa2/pkcs1.o
 .xt.prop       0x000000000003e784      0x210 libwpa2/pkcs5.o
                                        0x21c (size before relaxing)
 .xt.prop       0x000000000003e994       0xb4 libwpa2/pkcs8.o
                                         0xc0 (size before relaxing)
 .xt.prop       0x000000000003ea48      0x24c libwpa2/rsa.o
                                        0x258 (size before relaxing)
 .xt.prop       0x000000000003ec94      0x7b0 libwpa2/tls_internal.o
                                        0x7c8 (size before relaxing)
 .xt.prop       0x000000000003f444      0x7ec libwpa2/tlsv1_client.o
                                        0x7f8 (size before relaxing)
 .xt.prop       0x000000000003fc30      0xa38 libwpa2/tlsv1_client_read.o
                                        0xa50 (size before relaxing)
 .xt.prop       0x0000000000040668      0x72c libwpa2/tlsv1_client_write.o
                                        0x738 (size before relaxing)
 .xt.prop       0x0000000000040d94      0x33c libwpa2/tlsv1_common.o
 .xt.prop       0x00000000000410d0      0x528 libwpa2/tlsv1_cred.o
                                        0x594 (size before relaxing)
 .xt.prop       0x00000000000415f8      0x390 libwpa2/tlsv1_record.o
 .xt.prop       0x0000000000041988      0x618 libwpa2/tlsv1_server.o
                                        0x624 (size before relaxing)
 .xt.prop       0x0000000000041fa0      0xa14 libwpa2/tlsv1_server_read.o
                                        0xa2c (size before relaxing)
 .xt.prop       0x00000000000429b4      0x63c libwpa2/tlsv1_server_write.o
                                        0x648 (size before relaxing)
 .xt.prop       0x0000000000042ff0     0x1278 libwpa2/x509v3.o
                                       0x1284 (size before relaxing)
 .xt.prop       0x0000000000044268      0x2e8 libwpa/ap_config.o
                                        0x2f4 (size before relaxing)
 .xt.prop       0x0000000000044550      0x21c libwpa/common.o
                                        0x228 (size before relaxing)
 .xt.prop       0x000000000004476c       0xf0 libwpa/os_xtensa.o
                                         0xfc (size before relaxing)
 .xt.prop       0x000000000004485c      0x480 libwpa/wpa_auth_ie.o
                                        0x48c (size before relaxing)
 .xt.prop       0x0000000000044cdc     0x1668 libwpa/wpa_auth.o
 .xt.prop       0x0000000000046344      0x384 libwpa/wpabuf.o
                                        0x390 (size before relaxing)
 .xt.prop       0x00000000000466c8      0x7a4 libwpa/wpa_common.o
 .xt.prop       0x0000000000046e6c       0xc0 libwpa/wpa_debug.o
 .xt.prop       0x0000000000046f2c      0x378 libwpa/wpa_ie.o
 .xt.prop       0x00000000000472a4      0x330 libwpa/wpa_main.o
                                        0x33c (size before relaxing)
 .xt.prop       0x00000000000475d4      0xd8c libwpa/wpa.o
                                        0xdb0 (size before relaxing)
 .xt.prop       0x0000000000048360      0x12c libwpa/wpas_glue.o
 .xt.prop       0x000000000004848c       0xd8 libwps/uuid.o
 .xt.prop       0x0000000000048564      0x498 libwps/wps_attr_build.o
 .xt.prop       0x00000000000489fc      0x768 libwps/wps_attr_parse.o
 .xt.prop       0x0000000000049164      0x3c0 libwps/wps_attr_process.o
 .xt.prop       0x0000000000049524      0x504 libwps/wps_common.o
                                        0x510 (size before relaxing)
 .xt.prop       0x0000000000049a28      0x66c libwps/wps_dev_attr.o
                                        0x678 (size before relaxing)
 .xt.prop       0x000000000004a094      0xfb4 libwps/wps_enrollee.o
 .xt.prop       0x000000000004b048     0x13f8 libwps/wps.o
                                       0x1428 (size before relaxing)
 .xt.prop       0x000000000004c440     0x23e8 libwps/wps_registrar.o
                                       0x23f4 (size before relaxing)
 .xt.prop       0x000000000004e828     0x162c libwps/wps_validate.o
 .xt.prop       0x000000000004fe54       0x3c ../empty_user.o
 .xt.prop       0x000000000004fe90       0x6c ../empty_libgcc.o
 .xt.prop       0x000000000004fefc       0x3c /mnt/hdd/projects-3rdparty/xtensa/esp-open-sdk/xtensa-lx106-elf/bin/../lib/gcc/xtensa-lx106-elf/4.8.5/../../../../xtensa-lx106-elf/lib/libc.a(lib_a-atoi.o)
                                         0x48 (size before relaxing)
 .xt.prop       0x000000000004ff38       0x48 /mnt/hdd/projects-3rdparty/xtensa/esp-open-sdk/xtensa-lx106-elf/bin/../lib/gcc/xtensa-lx106-elf/4.8.5/../../../../xtensa-lx106-elf/lib/libc.a(lib_a-memchr.o)
 .xt.prop       0x000000000004ff80       0x54 /mnt/hdd/projects-3rdparty/xtensa/esp-open-sdk/xtensa-lx106-elf/bin/../lib/gcc/xtensa-lx106-elf/4.8.5/../../../../xtensa-lx106-elf/lib/libc.a(lib_a-memcmp.o)
 .xt.prop       0x000000000004ffd4      0x174 /mnt/hdd/projects-3rdparty/xtensa/esp-open-sdk/xtensa-lx106-elf/bin/../lib/gcc/xtensa-lx106-elf/4.8.5/../../../../xtensa-lx106-elf/lib/libc.a(lib_a-memcpy.o)
 .xt.prop       0x0000000000050148       0x3c /mnt/hdd/projects-3rdparty/xtensa/esp-open-sdk/xtensa-lx106-elf/bin/../lib/gcc/xtensa-lx106-elf/4.8.5/../../../../xtensa-lx106-elf/lib/libc.a(lib_a-strcasecmp.o)
 .xt.prop       0x0000000000050184      0x15c /mnt/hdd/projects-3rdparty/xtensa/esp-open-sdk/xtensa-lx106-elf/bin/../lib/gcc/xtensa-lx106-elf/4.8.5/../../../../xtensa-lx106-elf/lib/libc.a(lib_a-strtol.o)
 .xt.prop       0x00000000000502e0       0x30 /mnt/hdd/projects-3rdparty/xtensa/esp-open-sdk/xtensa-lx106-elf/bin/../lib/gcc/xtensa-lx106-elf/4.8.5/../../../../xtensa-lx106-elf/lib/libc.a(lib_a-sysgettod.o)
 .xt.prop       0x0000000000050310        0xc /mnt/hdd/projects-3rdparty/xtensa/esp-open-sdk/xtensa-lx106-elf/bin/../lib/gcc/xtensa-lx106-elf/4.8.5/../../../../xtensa-lx106-elf/lib/libc.a(lib_a-ctype_.o)
 .xt.prop       0x000000000005031c       0x24 /mnt/hdd/projects-3rdparty/xtensa/esp-open-sdk/xtensa-lx106-elf/bin/../lib/gcc/xtensa-lx106-elf/4.8.5/../../../../xtensa-lx106-elf/lib/libc.a(lib_a-impure.o)

.debug_info     0x0000000000000000     0x34d1
 .debug_info    0x0000000000000000      0xb78 libpwm/pwm.o
 .debug_info    0x0000000000000b78      0x93d /mnt/hdd/projects-3rdparty/xtensa/esp-open-sdk/xtensa-lx106-elf/bin/../lib/gcc/xtensa-lx106-elf/4.8.5/../../../../xtensa-lx106-elf/lib/libc.a(lib_a-atoi.o)
 .debug_info    0x00000000000014b5       0xf4 /mnt/hdd/projects-3rdparty/xtensa/esp-open-sdk/xtensa-lx106-elf/bin/../lib/gcc/xtensa-lx106-elf/4.8.5/../../../../xtensa-lx106-elf/lib/libc.a(lib_a-memchr.o)
 .debug_info    0x00000000000015a9       0xeb /mnt/hdd/projects-3rdparty/xtensa/esp-open-sdk/xtensa-lx106-elf/bin/../lib/gcc/xtensa-lx106-elf/4.8.5/../../../../xtensa-lx106-elf/lib/libc.a(lib_a-memcmp.o)
 .debug_info    0x0000000000001694      0x131 /mnt/hdd/projects-3rdparty/xtensa/esp-open-sdk/xtensa-lx106-elf/bin/../lib/gcc/xtensa-lx106-elf/4.8.5/../../../../xtensa-lx106-elf/lib/libc.a(lib_a-memcpy.o)
 .debug_info    0x00000000000017c5      0x155 /mnt/hdd/projects-3rdparty/xtensa/esp-open-sdk/xtensa-lx106-elf/bin/../lib/gcc/xtensa-lx106-elf/4.8.5/../../../../xtensa-lx106-elf/lib/libc.a(lib_a-strcasecmp.o)
 .debug_info    0x000000000000191a      0x9a5 /mnt/hdd/projects-3rdparty/xtensa/esp-open-sdk/xtensa-lx106-elf/bin/../lib/gcc/xtensa-lx106-elf/4.8.5/../../../../xtensa-lx106-elf/lib/libc.a(lib_a-strtol.o)
 .debug_info    0x00000000000022bf      0x917 /mnt/hdd/projects-3rdparty/xtensa/esp-open-sdk/xtensa-lx106-elf/bin/../lib/gcc/xtensa-lx106-elf/4.8.5/../../../../xtensa-lx106-elf/lib/libc.a(lib_a-sysgettod.o)
 .debug_info    0x0000000000002bd6       0x6b /mnt/hdd/projects-3rdparty/xtensa/esp-open-sdk/xtensa-lx106-elf/bin/../lib/gcc/xtensa-lx106-elf/4.8.5/../../../../xtensa-lx106-elf/lib/libc.a(lib_a-ctype_.o)
 .debug_info    0x0000000000002c41      0x890 /mnt/hdd/projects-3rdparty/xtensa/esp-open-sdk/xtensa-lx106-elf/bin/../lib/gcc/xtensa-lx106-elf/4.8.5/../../../../xtensa-lx106-elf/lib/libc.a(lib_a-impure.o)

.debug_aranges  0x0000000000000000      0x140
 .debug_aranges
                0x0000000000000000       0x30 libpwm/pwm.o
 .debug_aranges
                0x0000000000000030       0x20 /mnt/hdd/projects-3rdparty/xtensa/esp-open-sdk/xtensa-lx106-elf/bin/../lib/gcc/xtensa-lx106-elf/4.8.5/../../../../xtensa-lx106-elf/lib/libc.a(lib_a-atoi.o)
 .debug_aranges
                0x0000000000000050       0x20 /mnt/hdd/projects-3rdparty/xtensa/esp-open-sdk/xtensa-lx106-elf/bin/../lib/gcc/xtensa-lx106-elf/4.8.5/../../../../xtensa-lx106-elf/lib/libc.a(lib_a-memchr.o)
 .debug_aranges
                0x0000000000000070       0x20 /mnt/hdd/projects-3rdparty/xtensa/esp-open-sdk/xtensa-lx106-elf/bin/../lib/gcc/xtensa-lx106-elf/4.8.5/../../../../xtensa-lx106-elf/lib/libc.a(lib_a-memcmp.o)
 .debug_aranges
                0x0000000000000090       0x20 /mnt/hdd/projects-3rdparty/xtensa/esp-open-sdk/xtensa-lx106-elf/bin/../lib/gcc/xtensa-lx106-elf/4.8.5/../../../../xtensa-lx106-elf/lib/libc.a(lib_a-memcpy.o)
 .debug_aranges
                0x00000000000000b0       0x20 /mnt/hdd/projects-3rdparty/xtensa/esp-open-sdk/xtensa-lx106-elf/bin/../lib/gcc/xtensa-lx106-elf/4.8.5/../../../../xtensa-lx106-elf/lib/libc.a(lib_a-strcasecmp.o)
 .debug_aranges
                0x00000000000000d0       0x20 /mnt/hdd/projects-3rdparty/xtensa/esp-open-sdk/xtensa-lx106-elf/bin/../lib/gcc/xtensa-lx106-elf/4.8.5/../../../../xtensa-lx106-elf/lib/libc.a(lib_a-strtol.o)
 .debug_aranges
                0x00000000000000f0       0x20 /mnt/hdd/projects-3rdparty/xtensa/esp-open-sdk/xtensa-lx106-elf/bin/../lib/gcc/xtensa-lx106-elf/4.8.5/../../../../xtensa-lx106-elf/lib/libc.a(lib_a-sysgettod.o)
 .debug_aranges
                0x0000000000000110       0x18 /mnt/hdd/projects-3rdparty/xtensa/esp-open-sdk/xtensa-lx106-elf/bin/../lib/gcc/xtensa-lx106-elf/4.8.5/../../../../xtensa-lx106-elf/lib/libc.a(lib_a-ctype_.o)
 .debug_aranges
                0x0000000000000128       0x18 /mnt/hdd/projects-3rdparty/xtensa/esp-open-sdk/xtensa-lx106-elf/bin/../lib/gcc/xtensa-lx106-elf/4.8.5/../../../../xtensa-lx106-elf/lib/libc.a(lib_a-impure.o)

.debug_pubnames
                0x0000000000000000       0xe3
 .debug_pubnames
                0x0000000000000000       0xe3 libpwm/pwm.o

.debug_line     0x0000000000000000     0x1b52
 .debug_line    0x0000000000000000      0x7a5 libpwm/pwm.o
 .debug_line    0x00000000000007a5      0x268 /mnt/hdd/projects-3rdparty/xtensa/esp-open-sdk/xtensa-lx106-elf/bin/../lib/gcc/xtensa-lx106-elf/4.8.5/../../../../xtensa-lx106-elf/lib/libc.a(lib_a-atoi.o)
 .debug_line    0x0000000000000a0d      0x1d5 /mnt/hdd/projects-3rdparty/xtensa/esp-open-sdk/xtensa-lx106-elf/bin/../lib/gcc/xtensa-lx106-elf/4.8.5/../../../../xtensa-lx106-elf/lib/libc.a(lib_a-memchr.o)
 .debug_line    0x0000000000000be2      0x1ce /mnt/hdd/projects-3rdparty/xtensa/esp-open-sdk/xtensa-lx106-elf/bin/../lib/gcc/xtensa-lx106-elf/4.8.5/../../../../xtensa-lx106-elf/lib/libc.a(lib_a-memcmp.o)
 .debug_line    0x0000000000000db0      0x397 /mnt/hdd/projects-3rdparty/xtensa/esp-open-sdk/xtensa-lx106-elf/bin/../lib/gcc/xtensa-lx106-elf/4.8.5/../../../../xtensa-lx106-elf/lib/libc.a(lib_a-memcpy.o)
 .debug_line    0x0000000000001147      0x14e /mnt/hdd/projects-3rdparty/xtensa/esp-open-sdk/xtensa-lx106-elf/bin/../lib/gcc/xtensa-lx106-elf/4.8.5/../../../../xtensa-lx106-elf/lib/libc.a(lib_a-strcasecmp.o)
 .debug_line    0x0000000000001295      0x403 /mnt/hdd/projects-3rdparty/xtensa/esp-open-sdk/xtensa-lx106-elf/bin/../lib/gcc/xtensa-lx106-elf/4.8.5/../../../../xtensa-lx106-elf/lib/libc.a(lib_a-strtol.o)
 .debug_line    0x0000000000001698      0x27c /mnt/hdd/projects-3rdparty/xtensa/esp-open-sdk/xtensa-lx106-elf/bin/../lib/gcc/xtensa-lx106-elf/4.8.5/../../../../xtensa-lx106-elf/lib/libc.a(lib_a-sysgettod.o)
 .debug_line    0x0000000000001914       0x90 /mnt/hdd/projects-3rdparty/xtensa/esp-open-sdk/xtensa-lx106-elf/bin/../lib/gcc/xtensa-lx106-elf/4.8.5/../../../../xtensa-lx106-elf/lib/libc.a(lib_a-ctype_.o)
 .debug_line    0x00000000000019a4      0x1ae /mnt/hdd/projects-3rdparty/xtensa/esp-open-sdk/xtensa-lx106-elf/bin/../lib/gcc/xtensa-lx106-elf/4.8.5/../../../../xtensa-lx106-elf/lib/libc.a(lib_a-impure.o)

.debug_abbrev   0x0000000000000000      0xb57
 .debug_abbrev  0x0000000000000000      0x1dd libpwm/pwm.o
 .debug_abbrev  0x00000000000001dd      0x1cc /mnt/hdd/projects-3rdparty/xtensa/esp-open-sdk/xtensa-lx106-elf/bin/../lib/gcc/xtensa-lx106-elf/4.8.5/../../../../xtensa-lx106-elf/lib/libc.a(lib_a-atoi.o)
 .debug_abbrev  0x00000000000003a9       0xa9 /mnt/hdd/projects-3rdparty/xtensa/esp-open-sdk/xtensa-lx106-elf/bin/../lib/gcc/xtensa-lx106-elf/4.8.5/../../../../xtensa-lx106-elf/lib/libc.a(lib_a-memchr.o)
 .debug_abbrev  0x0000000000000452       0x8c /mnt/hdd/projects-3rdparty/xtensa/esp-open-sdk/xtensa-lx106-elf/bin/../lib/gcc/xtensa-lx106-elf/4.8.5/../../../../xtensa-lx106-elf/lib/libc.a(lib_a-memcmp.o)
 .debug_abbrev  0x00000000000004de       0x14 /mnt/hdd/projects-3rdparty/xtensa/esp-open-sdk/xtensa-lx106-elf/bin/../lib/gcc/xtensa-lx106-elf/4.8.5/../../../../xtensa-lx106-elf/lib/libc.a(lib_a-memcpy.o)
 .debug_abbrev  0x00000000000004f2       0xc4 /mnt/hdd/projects-3rdparty/xtensa/esp-open-sdk/xtensa-lx106-elf/bin/../lib/gcc/xtensa-lx106-elf/4.8.5/../../../../xtensa-lx106-elf/lib/libc.a(lib_a-strcasecmp.o)
 .debug_abbrev  0x00000000000005b6      0x20f /mnt/hdd/projects-3rdparty/xtensa/esp-open-sdk/xtensa-lx106-elf/bin/../lib/gcc/xtensa-lx106-elf/4.8.5/../../../../xtensa-lx106-elf/lib/libc.a(lib_a-strtol.o)
 .debug_abbrev  0x00000000000007c5      0x1c8 /mnt/hdd/projects-3rdparty/xtensa/esp-open-sdk/xtensa-lx106-elf/bin/../lib/gcc/xtensa-lx106-elf/4.8.5/../../../../xtensa-lx106-elf/lib/libc.a(lib_a-sysgettod.o)
 .debug_abbrev  0x000000000000098d       0x4c /mnt/hdd/projects-3rdparty/xtensa/esp-open-sdk/xtensa-lx106-elf/bin/../lib/gcc/xtensa-lx106-elf/4.8.5/../../../../xtensa-lx106-elf/lib/libc.a(lib_a-ctype_.o)
 .debug_abbrev  0x00000000000009d9      0x17e /mnt/hdd/projects-3rdparty/xtensa/esp-open-sdk/xtensa-lx106-elf/bin/../lib/gcc/xtensa-lx106-elf/4.8.5/../../../../xtensa-lx106-elf/lib/libc.a(lib_a-impure.o)

.debug_frame    0x0000000000000000      0x13c
 .debug_frame   0x0000000000000000       0x50 /mnt/hdd/projects-3rdparty/xtensa/esp-open-sdk/xtensa-lx106-elf/bin/../lib/gcc/xtensa-lx106-elf/4.8.5/../../../../xtensa-lx106-elf/lib/libc.a(lib_a-atoi.o)
 .debug_frame   0x0000000000000050       0x20 /mnt/hdd/projects-3rdparty/xtensa/esp-open-sdk/xtensa-lx106-elf/bin/../lib/gcc/xtensa-lx106-elf/4.8.5/../../../../xtensa-lx106-elf/lib/libc.a(lib_a-memchr.o)
 .debug_frame   0x0000000000000070       0x20 /mnt/hdd/projects-3rdparty/xtensa/esp-open-sdk/xtensa-lx106-elf/bin/../lib/gcc/xtensa-lx106-elf/4.8.5/../../../../xtensa-lx106-elf/lib/libc.a(lib_a-memcmp.o)
 .debug_frame   0x0000000000000090       0x20 /mnt/hdd/projects-3rdparty/xtensa/esp-open-sdk/xtensa-lx106-elf/bin/../lib/gcc/xtensa-lx106-elf/4.8.5/../../../../xtensa-lx106-elf/lib/libc.a(lib_a-strcasecmp.o)
 .debug_frame   0x00000000000000b0       0x5c /mnt/hdd/projects-3rdparty/xtensa/esp-open-sdk/xtensa-lx106-elf/bin/../lib/gcc/xtensa-lx106-elf/4.8.5/../../../../xtensa-lx106-elf/lib/libc.a(lib_a-strtol.o)
 .debug_frame   0x000000000000010c       0x30 /mnt/hdd/projects-3rdparty/xtensa/esp-open-sdk/xtensa-lx106-elf/bin/../lib/gcc/xtensa-lx106-elf/4.8.5/../../../../xtensa-lx106-elf/lib/libc.a(lib_a-sysgettod.o)

.debug_loc      0x0000000000000000      0x7bb
 .debug_loc     0x0000000000000000       0x63 /mnt/hdd/projects-3rdparty/xtensa/esp-open-sdk/xtensa-lx106-elf/bin/../lib/gcc/xtensa-lx106-elf/4.8.5/../../../../xtensa-lx106-elf/lib/libc.a(lib_a-atoi.o)
 .debug_loc     0x0000000000000063       0x86 /mnt/hdd/projects-3rdparty/xtensa/esp-open-sdk/xtensa-lx106-elf/bin/../lib/gcc/xtensa-lx106-elf/4.8.5/../../../../xtensa-lx106-elf/lib/libc.a(lib_a-memchr.o)
 .debug_loc     0x00000000000000e9      0x12d /mnt/hdd/projects-3rdparty/xtensa/esp-open-sdk/xtensa-lx106-elf/bin/../lib/gcc/xtensa-lx106-elf/4.8.5/../../../../xtensa-lx106-elf/lib/libc.a(lib_a-memcmp.o)
 .debug_loc     0x0000000000000216      0x1c0 /mnt/hdd/projects-3rdparty/xtensa/esp-open-sdk/xtensa-lx106-elf/bin/../lib/gcc/xtensa-lx106-elf/4.8.5/../../../../xtensa-lx106-elf/lib/libc.a(lib_a-strcasecmp.o)
 .debug_loc     0x00000000000003d6      0x38d /mnt/hdd/projects-3rdparty/xtensa/esp-open-sdk/xtensa-lx106-elf/bin/../lib/gcc/xtensa-lx106-elf/4.8.5/../../../../xtensa-lx106-elf/lib/libc.a(lib_a-strtol.o)
 .debug_loc     0x0000000000000763       0x58 /mnt/hdd/projects-3rdparty/xtensa/esp-open-sdk/xtensa-lx106-elf/bin/../lib/gcc/xtensa-lx106-elf/4.8.5/../../../../xtensa-lx106-elf/lib/libc.a(lib_a-sysgettod.o)

.debug_str      0x0000000000000000      0x8af
 .debug_str     0x0000000000000000      0x4b8 /mnt/hdd/projects-3rdparty/xtensa/esp-open-sdk/xtensa-lx106-elf/bin/../lib/gcc/xtensa-lx106-elf/4.8.5/../../../../xtensa-lx106-elf/lib/libc.a(lib_a-atoi.o)
                                        0x504 (size before relaxing)
 .debug_str     0x00000000000004b8       0x8e /mnt/hdd/projects-3rdparty/xtensa/esp-open-sdk/xtensa-lx106-elf/bin/../lib/gcc/xtensa-lx106-elf/4.8.5/../../../../xtensa-lx106-elf/lib/libc.a(lib_a-memchr.o)
                                        0x150 (size before relaxing)
 .debug_str     0x0000000000000546       0x77 /mnt/hdd/projects-3rdparty/xtensa/esp-open-sdk/xtensa-lx106-elf/bin/../lib/gcc/xtensa-lx106-elf/4.8.5/../../../../xtensa-lx106-elf/lib/libc.a(lib_a-memcmp.o)
                                        0x140 (size before relaxing)
 .debug_str     0x00000000000005bd       0x97 /mnt/hdd/projects-3rdparty/xtensa/esp-open-sdk/xtensa-lx106-elf/bin/../lib/gcc/xtensa-lx106-elf/4.8.5/../../../../xtensa-lx106-elf/lib/libc.a(lib_a-strcasecmp.o)
                                        0x159 (size before relaxing)
 .debug_str     0x0000000000000654       0x8f /mnt/hdd/projects-3rdparty/xtensa/esp-open-sdk/xtensa-lx106-elf/bin/../lib/gcc/xtensa-lx106-elf/4.8.5/../../../../xtensa-lx106-elf/lib/libc.a(lib_a-strtol.o)
                                        0x537 (size before relaxing)
 .debug_str     0x00000000000006e3       0xc7 /mnt/hdd/projects-3rdparty/xtensa/esp-open-sdk/xtensa-lx106-elf/bin/../lib/gcc/xtensa-lx106-elf/4.8.5/../../../../xtensa-lx106-elf/lib/libc.a(lib_a-sysgettod.o)
                                        0x553 (size before relaxing)
 .debug_str     0x00000000000007aa       0x77 /mnt/hdd/projects-3rdparty/xtensa/esp-open-sdk/xtensa-lx106-elf/bin/../lib/gcc/xtensa-lx106-elf/4.8.5/../../../../xtensa-lx106-elf/lib/libc.a(lib_a-ctype_.o)
                                         0xc3 (size before relaxing)
 .debug_str     0x0000000000000821       0x8e /mnt/hdd/projects-3rdparty/xtensa/esp-open-sdk/xtensa-lx106-elf/bin/../lib/gcc/xtensa-lx106-elf/4.8.5/../../../../xtensa-lx106-elf/lib/libc.a(lib_a-impure.o)
                                        0x512 (size before relaxing)

Cross Reference Table

Symbol                                            File
AES_cbc_decrypt                                   libssl/ssl_aes.o
                                                  libssl/ssl_tls1.o
                                                  libssl/ssl_loader.o
AES_cbc_encrypt                                   libssl/ssl_aes.o
                                                  libssl/ssl_tls1.o
AES_convert_key                                   libssl/ssl_aes.o
                                                  libssl/ssl_tls1.o
                                                  libssl/ssl_loader.o
AES_set_key                                       libssl/ssl_aes.o
                                                  libssl/ssl_tls1.o
                                                  libssl/ssl_loader.o
AK_Group_bssid                                    libsmartconfig/sc_airkiss.o
APRecvBcnStartTick                                libnet80211/ieee80211_hostap.o
                                                  libpp/pp.o
ApFreqCalTimer                                    libnet80211/ieee80211_hostap.o
BcnEb_update                                      libnet80211/ieee80211_hostap.o
                                                  libnet80211/wl_cnx.o
                                                  libnet80211/wl_chm.o
                                                  libnet80211/ieee80211_mesh_quick.o
                                                  libmain/user_interface.o
                                                  libespnow/simple_pair.o
BcnWithMcastSendCnt                               libnet80211/ieee80211_hostap.o
                                                  libpp/pp.o
BcnWithMcastSendStart                             libnet80211/ieee80211_hostap.o
Cache_Read_Disable                                libmain/user_interface.o
                                                  libmain/spi_flash.o
Cache_Read_Disable_2                              libmain/spi_flash.o
Cache_Read_Enable                                 libmain/app_main.o
Cache_Read_Enable_2                               libmain/spi_flash.o
Cache_Read_Enable_New                             libmain/app_main.o
                                                  libpp/pp.o
                                                  libmain/spi_flash.o
                                                  libmain/mem_manager.o
CanDoFreqCal                                      libpp/pp.o
                                                  libnet80211/ieee80211_hostap.o
DATA_RSSI_BEAR                                    libsmartconfig/sc_airkiss.o
DISPLAY_ALERT                                     libssl/ssl_tls1.o
DISPLAY_BYTES                                     libssl/ssl_tls1.o
DISPLAY_RSA                                       libssl/ssl_tls1.o
DISPLAY_STATE                                     libssl/ssl_tls1.o
DefFreqCalTimer                                   libpp/pp.o
                                                  libnet80211/ieee80211_hostap.o
DefFreqCalTimerCB                                 libpp/pp.o
                                                  libnet80211/ieee80211_hostap.o
ET_Group_bssid                                    libsmartconfig/sc_sniffer.o
                                                  libsmartconfig/sc_esptouch.o
Enable_QMode                                      libmain/spi_flash.o
FreqCalCntForScan                                 libnet80211/ieee80211_scan.o
                                                  libnet80211/ieee80211_sta.o
GetAccess                                         libpp/lmac.o
                                                  libpp/pp.o
HdlAllBuffedEb                                    libpp/pp.o
                                                  libnet80211/ieee80211_hostap.o
HighestFreqOffsetInOneChk                         libpp/pp.o
                                                  libnet80211/ieee80211_hostap.o
KISS_Deal_with                                    libsmartconfig/sc_airkiss.o
                                                  libsmartconfig/sc_sniffer.o
KISS_Find_channel                                 libsmartconfig/sc_airkiss.o
                                                  libsmartconfig/sc_sniffer.o
KISS_Find_channel_direct                          libsmartconfig/sc_airkiss.o
KISS_Find_channel_end                             libsmartconfig/sc_airkiss.o
KISS_Find_channel_trans                           libsmartconfig/sc_airkiss.o
KISS_Free_Glob_Diret                              libsmartconfig/sc_airkiss.o
                                                  libsmartconfig/sc_sniffer.o
KISS_Free_Glob_Trans                              libsmartconfig/sc_airkiss.o
                                                  libsmartconfig/sc_sniffer.o
KISS_Free_guide_glob                              libsmartconfig/sc_airkiss.o
                                                  libsmartconfig/sc_sniffer.o
KISS_Init_Glob_Diret                              libsmartconfig/sc_airkiss.o
KISS_Init_Glob_Trans                              libsmartconfig/sc_airkiss.o
KISS_Init_guide_glob                              libsmartconfig/sc_airkiss.o
                                                  libsmartconfig/sc_sniffer.o
KissRes_ht20_timer                                libsmartconfig/sc_airkiss.o
                                                  libsmartconfig/sc_sniffer.o
LightSleepWakedCbSetFunc                          libpp/pm.o
LowestFreqOffsetInOneChk                          libpp/pp.o
                                                  libnet80211/ieee80211_hostap.o
MD5Final                                          libcrypto/crypto_internal.o
MD5Init                                           libcrypto/crypto_internal.o
MD5Update                                         libcrypto/crypto_internal.o
MD5_Final                                         libssl/ssl_md5.o
                                                  libssl/ssl_x509.o
                                                  libssl/ssl_tls1.o
                                                  libssl/ssl_loader.o
                                                  libssl/ssl_hmac.o
MD5_Init                                          libssl/ssl_md5.o
                                                  libssl/ssl_x509.o
                                                  libssl/ssl_tls1.o
                                                  libssl/ssl_loader.o
                                                  libssl/ssl_hmac.o
MD5_Update                                        libssl/ssl_md5.o
                                                  libssl/ssl_x509.o
                                                  libssl/ssl_tls1.o
                                                  libssl/ssl_loader.o
                                                  libssl/ssl_hmac.o
NMI_Handler                                       libmain/app_main.o
                                                  libmain/nmi-vector.o
NmiTimSetFunc                                     libmain/app_main.o
                                                  libpwm/pwm.o
NoiseTimerInterval                                libpp/pp.o
                                                  libnet80211/ieee80211_hostap.o
OpmodChgIsOnGoing                                 libmain/user_interface.o
PPWdtReset                                        libpp/pp.o
                                                  libpp/wdev.o
PUCK_PORT                                         liblwip/mdns.o
PUCK_SERVICE                                      liblwip/mdns.o
PendFreeBcnEb                                     libnet80211/ieee80211_hostap.o
                                                  libpp/pp.o
PktNumInOneChk                                    libpp/pp.o
                                                  libnet80211/ieee80211_hostap.o
RC4_crypt                                         libssl/ssl_rc4.o
                                                  libssl/ssl_tls1.o
RC4_setup                                         libssl/ssl_rc4.o
                                                  libssl/ssl_tls1.o
RC_GetAckRate                                     libpp/rate_control.o
RC_GetAckTime                                     libpp/rate_control.o
                                                  libpp/pp.o
                                                  libpp/lmac.o
RC_GetBlockAckTime                                libpp/rate_control.o
                                                  libpp/pp.o
RC_GetCtsTime                                     libpp/rate_control.o
                                                  libpp/pp.o
RC_GetRtsRate                                     libpp/rate_control.o
RC_SetBasicRate                                   libpp/rate_control.o
                                                  libpp/lmac.o
RFChannelSel                                      libphy/phy.o
RNG_custom_init                                   libssl/ssl_crypto_misc.o
                                                  libssl/ssl_asn1.o
RNG_initialize                                    libssl/ssl_crypto_misc.o
                                                  libssl/ssl_tls1.o
RNG_terminate                                     libssl/ssl_crypto_misc.o
                                                  libssl/ssl_tls1.o
RSA_decrypt                                       libssl/ssl_rsa.o
                                                  libssl/ssl_tls1_svr.o
RSA_encrypt                                       libssl/ssl_rsa.o
                                                  libssl/ssl_tls1_clnt.o
RSA_free                                          libssl/ssl_rsa.o
                                                  libssl/ssl_x509.o
                                                  libssl/ssl_tls1.o
RSA_print                                         libssl/ssl_rsa.o
                                                  libssl/ssl_tls1.o
RSA_priv_key_new                                  libssl/ssl_rsa.o
                                                  libssl/ssl_asn1.o
RSA_private                                       libssl/ssl_rsa.o
RSA_pub_key_new                                   libssl/ssl_rsa.o
                                                  libssl/ssl_asn1.o
RSA_public                                        libssl/ssl_rsa.o
RSSI_BEAR                                         libsmartconfig/sc_airkiss.o
RSSI_MIN                                          libsmartconfig/sc_airkiss.o
RxNodeNum                                         libpp/pp.o
                                                  libnet80211/ieee80211_hostap.o
                                                  liblwip/tcp_in.o
SC_VERSION                                        libsmartconfig/sc_sniffer.o
SDIO_slp_reject                                   libphy/phy_sleep.o
SDK_VERSION                                       libmain/app_main.o
                                                  libmain/user_interface.o
SHA1Final                                         libcrypto/crypto_internal.o
SHA1Init                                          libcrypto/crypto_internal.o
SHA1Update                                        libcrypto/crypto_internal.o
SHA1_Final                                        libssl/ssl_sha1.o
                                                  libssl/ssl_x509.o
                                                  libssl/ssl_tls1.o
                                                  libssl/ssl_hmac.o
SHA1_Init                                         libssl/ssl_sha1.o
                                                  libssl/ssl_x509.o
                                                  libssl/ssl_tls1.o
                                                  libssl/ssl_hmac.o
SHA1_Update                                       libssl/ssl_sha1.o
                                                  libssl/ssl_x509.o
                                                  libssl/ssl_tls1.o
                                                  libssl/ssl_hmac.o
SHA256_Final                                      libssl/sha256.o
                                                  libssl/ssl_x509.o
SHA256_Init                                       libssl/sha256.o
                                                  libssl/ssl_x509.o
SHA256_Update                                     libssl/sha256.o
                                                  libssl/ssl_x509.o
SHA384_Final                                      libssl/sha384.o
                                                  libssl/ssl_x509.o
SHA384_Init                                       libssl/sha384.o
                                                  libssl/ssl_x509.o
SHA384_Update                                     libssl/sha384.o
                                                  libssl/ssl_x509.o
SHA512_Final                                      libssl/sha512.o
                                                  libssl/ssl_x509.o
                                                  libssl/sha384.o
SHA512_Init                                       libssl/sha512.o
                                                  libssl/ssl_x509.o
SHA512_Update                                     libssl/sha512.o
                                                  libssl/ssl_x509.o
                                                  libssl/sha384.o
SPIEraseSector                                    libmain/spi_flash.o
SPIRead                                           libmain/spi_flash.o
                                                  libmain/app_main.o
SPIWrite                                          libmain/spi_flash.o
SPI_read_status                                   libmain/spi_flash.o
SPI_write_enable                                  libmain/spi_flash.o
SPI_write_status                                  libmain/spi_flash.o
SSLClient_new                                     libssl/ssl_tls1_clnt.o
                                                  libssl/espconn_ssl.o
SnifGlob                                          libsmartconfig/sc_sniffer.o
                                                  libsmartconfig/sc_esptouch.o
                                                  libsmartconfig/sc_airkiss.o
StopLightSleepSetFunc                             libpp/pm.o
TOUCH_Deal_with                                   libsmartconfig/sc_esptouch.o
                                                  libsmartconfig/sc_sniffer.o
TOUCH_Find_sync_ht20                              libsmartconfig/sc_esptouch.o
                                                  libsmartconfig/sc_sniffer.o
TOUCH_Find_sync_ht40                              libsmartconfig/sc_esptouch.o
                                                  libsmartconfig/sc_sniffer.o
TOUCH_Free_glob                                   libsmartconfig/sc_esptouch.o
                                                  libsmartconfig/sc_sniffer.o
TOUCH_Free_guide_glob                             libsmartconfig/sc_esptouch.o
                                                  libsmartconfig/sc_sniffer.o
TOUCH_Init_glob                                   libsmartconfig/sc_esptouch.o
TOUCH_Init_guide_glob                             libsmartconfig/sc_esptouch.o
                                                  libsmartconfig/sc_sniffer.o
Td0                                               libcrypto/aes-internal-dec.o
Td4s                                              libcrypto/aes-internal-dec.o
Te0                                               libcrypto/aes-internal.o
                                                  libcrypto/aes-internal-enc.o
                                                  libcrypto/aes-internal-dec.o
TestInputVal1                                     libpwm/pwm.o
TestStaFreqCalValInput                            libnet80211/ieee80211_scan.o
                                                  libpp/pp.o
                                                  libnet80211/ieee80211_output.o
                                                  libnet80211/ieee80211_hostap.o
                                                  libmain/app_main.o
TmpSTAAPCloseAP                                   libnet80211/ieee80211_hostap.o
                                                  libpp/pp.o
TouchRestart_ht20_timer                           libsmartconfig/sc_esptouch.o
                                                  libsmartconfig/sc_sniffer.o
TouchRestart_ht40_timer                           libsmartconfig/sc_esptouch.o
                                                  libsmartconfig/sc_sniffer.o
TouchUdpTimer                                     libsmartconfig/sc_esptouch.o
                                                  libsmartconfig/sc_sniffer.o
TxNodeNum                                         libpp/pp.o
Tx_Copy2Queue                                     libpp/wdev.o
                                                  libpp/lmac.o
Uart_Init                                         libphy/phy_chip_v6.o
Wait_SPI_Idle                                     libpp/pp.o
                                                  libmain/user_interface.o
                                                  libmain/spi_flash.o
                                                  libmain/mem_manager.o
                                                  libmain/app_main.o
WdevTimOffSet                                     libpp/wdev.o
                                                  libpp/pm.o
                                                  libpp/pm_for_bcn_only_mode.o
                                                  libmain/user_interface.o
_DebugExceptionVector                             libmain/debug-vector.o
_DoubleExceptionVector                            libmain/double-vector.o
_KernelExceptionVector                            libmain/kernel-vector.o
_NMIExceptionVector                               libmain/nmi-vector.o
_NMILevelVector                                   libmain/nmi-vector.o
_Pri_3_HandlerAddress                             libmain/nmi-vector.o
_UserExceptionVector                              libmain/user-vector.o
_UserExceptionVector_1                            libmain/user-vector.o
__addsf3                                          libphy/phy_chip_v6_ana.o
                                                  libmesh/espconn_base64.o
__ashrdi3                                         ../empty_libgcc.o
                                                  libphy/phy_chip_v6.o
__ctype_ptr__                                     /mnt/hdd/projects-3rdparty/xtensa/esp-open-sdk/xtensa-lx106-elf/bin/../lib/gcc/xtensa-lx106-elf/4.8.5/../../../../xtensa-lx106-elf/lib/libc.a(lib_a-ctype_.o)
                                                  /mnt/hdd/projects-3rdparty/xtensa/esp-open-sdk/xtensa-lx106-elf/bin/../lib/gcc/xtensa-lx106-elf/4.8.5/../../../../xtensa-lx106-elf/lib/libc.a(lib_a-strtol.o)
                                                  /mnt/hdd/projects-3rdparty/xtensa/esp-open-sdk/xtensa-lx106-elf/bin/../lib/gcc/xtensa-lx106-elf/4.8.5/../../../../xtensa-lx106-elf/lib/libc.a(lib_a-strcasecmp.o)
__divdf3                                          libphy/phy_chip_v6.o
                                                  libphy/phy_chip_v6_ana.o
__divdi3                                          libphy/phy_chip_v6_cal.o
__divsf3                                          ../empty_libgcc.o
                                                  libphy/phy_chip_v6.o
                                                  libphy/phy_chip_v6_ana.o
__divsi3                                          libwpa/wpa_auth.o
                                                  libwpa2/bignum.o
                                                  libssl/ssl_bigint.o
                                                  libsmartconfig/sc_esptouch.o
                                                  libpwm/pwm.o
                                                  libpp/pp.o
                                                  libpp/pm.o
                                                  libphy/phy_chip_v6.o
                                                  libphy/phy_chip_v6_cal.o
                                                  libphy/phy_chip_v6_ana.o
                                                  libnet80211/ieee80211_regdomain.o
                                                  libnet80211/ieee80211.o
                                                  libmesh/espconn_mesh.o
                                                  libmain/user_interface.o
                                                  liblwip/tcp_in.o
                                                  liblwip/sntp.o
                                                  liblwip/dhcp.o
__fixdfsi                                         libphy/phy_chip_v6.o
__fixsfsi                                         ../empty_libgcc.o
                                                  libphy/phy_chip_v6.o
__fixunssfsi                                      libphy/phy_chip_v6_ana.o
                                                  libmesh/espconn_base64.o
__floatsidf                                       libphy/phy_chip_v6.o
__floatsisf                                       libphy/phy_chip_v6.o
                                                  libphy/phy_chip_v6_ana.o
__floatunsidf                                     libphy/phy_chip_v6_ana.o
__floatunsisf                                     libphy/phy_chip_v6.o
                                                  libmesh/espconn_base64.o
__modsi3                                          ../empty_libgcc.o
                                                  libwpa/wpa_auth.o
                                                  libwpa2/bignum.o
                                                  libssl/ssl_tls1.o
                                                  libssl/ssl_bigint.o
                                                  libssl/ssl_aes.o
                                                  libssl/espconn_ssl.o
                                                  libsmartconfig/sc_airkiss.o
                                                  libphy/phy_chip_v6.o
                                                  libnet80211/ieee80211_ht.o
                                                  libmesh/espconn_mesh.o
                                                  liblwip/sntp.o
__muldf3                                          libphy/phy_chip_v6.o
__muldi3                                          libssl/ssl_bigint.o
                                                  libssl/sha512.o
                                                  libphy/phy_chip_v6.o
                                                  libphy/phy_chip_v6_cal.o
                                                  libmain/user_interface.o
                                                  libmain/time.o
__mulsf3                                          libphy/phy_chip_v6.o
                                                  libphy/phy_chip_v6_ana.o
                                                  libmesh/espconn_base64.o
__subsf3                                          libphy/phy_chip_v6_ana.o
__truncdfsf2                                      libphy/phy_chip_v6_ana.o
__tznorth                                         liblwip/sntp.o
__tzyear                                          liblwip/sntp.o
__udivdi3                                         libssl/ssl_bigint.o
                                                  libmain/time.o
__udivsi3                                         /mnt/hdd/projects-3rdparty/xtensa/esp-open-sdk/xtensa-lx106-elf/bin/../lib/gcc/xtensa-lx106-elf/4.8.5/../../../../xtensa-lx106-elf/lib/libc.a(lib_a-strtol.o)
                                                  libwps/wps.o
                                                  libwps/wps_common.o
                                                  libwpa2/base64.o
                                                  libwpa2/asn1.o
                                                  libpwm/pwm.o
                                                  libpp/wdev.o
                                                  libpp/trc.o
                                                  libpp/pp.o
                                                  libpp/pm.o
                                                  libpp/pm_for_bcn_only_mode.o
                                                  libphy/phy_sleep.o
                                                  libphy/phy_chip_v6.o
                                                  libphy/phy_chip_v6_cal.o
                                                  libnet80211/ieee80211.o
                                                  libnet80211/ieee80211_hostap.o
                                                  libmesh/espconn_mesh.o
                                                  libmesh/espconn_base64.o
                                                  libmain/user_interface.o
                                                  libmain/time.o
                                                  libmain/ets_timer.o
                                                  libmain/eagle_lib.o
                                                  libmain/app_main.o
                                                  liblwip/timers.o
                                                  liblwip/tcp.o
                                                  liblwip/sntp.o
                                                  liblwip/ping.o
                                                  liblwip/netio.o
                                                  liblwip/ip_addr.o
                                                  liblwip/espconn.o
                                                  liblwip/dhcp.o
__umoddi3                                         libssl/ssl_bigint.o
                                                  libpp/pm.o
                                                  libmain/time.o
__umodsi3                                         /mnt/hdd/projects-3rdparty/xtensa/esp-open-sdk/xtensa-lx106-elf/bin/../lib/gcc/xtensa-lx106-elf/4.8.5/../../../../xtensa-lx106-elf/lib/libc.a(lib_a-strtol.o)
                                                  libwps/wps_validate.o
                                                  libwps/wps_common.o
                                                  libwpa2/tlsv1_record.o
                                                  libwpa2/bignum.o
                                                  libpwm/pwm.o
                                                  libmesh/espconn_mesh.o
                                                  libmesh/espconn_base64.o
                                                  libmain/eagle_lib.o
                                                  liblwip/tcp.o
                                                  liblwip/ip_addr.o
                                                  liblwip/igmp.o
                                                  liblwip/espconn.o
                                                  liblwip/espconn_buf.o
__umulsidi3                                       libwpa2/bignum.o
                                                  libssl/ssl_bigint.o
__wpa_send_eapol                                  libwpa/wpa_auth.o
_atoi_r                                           /mnt/hdd/projects-3rdparty/xtensa/esp-open-sdk/xtensa-lx106-elf/bin/../lib/gcc/xtensa-lx106-elf/4.8.5/../../../../xtensa-lx106-elf/lib/libc.a(lib_a-atoi.o)
_base64Decode                                     libmesh/espconn_base64.o
_base64Encode                                     libmesh/espconn_base64.o
_base64_decode                                    libwpa2/base64.o
                                                  libwpa2/tlsv1_cred.o
_base64_encode                                    libwpa2/base64.o
_bss_end                                          libmain/user_interface.o
                                                  libmain/app_main.o
_bss_start                                        libmain/user_interface.o
                                                  libmain/app_main.o
_ctype_                                           /mnt/hdd/projects-3rdparty/xtensa/esp-open-sdk/xtensa-lx106-elf/bin/../lib/gcc/xtensa-lx106-elf/4.8.5/../../../../xtensa-lx106-elf/lib/libc.a(lib_a-ctype_.o)
_data_end                                         libmain/user_interface.o
_data_start                                       libmain/user_interface.o
_gettimeofday_r                                   libmain/time.o
                                                  /mnt/hdd/projects-3rdparty/xtensa/esp-open-sdk/xtensa-lx106-elf/bin/../lib/gcc/xtensa-lx106-elf/4.8.5/../../../../xtensa-lx106-elf/lib/libc.a(lib_a-sysgettod.o)
_global_impure_ptr                                /mnt/hdd/projects-3rdparty/xtensa/esp-open-sdk/xtensa-lx106-elf/bin/../lib/gcc/xtensa-lx106-elf/4.8.5/../../../../xtensa-lx106-elf/lib/libc.a(lib_a-impure.o)
_heap_start                                       libmain/user_interface.o
                                                  libmain/mem_manager.o
_impure_ptr                                       /mnt/hdd/projects-3rdparty/xtensa/esp-open-sdk/xtensa-lx106-elf/bin/../lib/gcc/xtensa-lx106-elf/4.8.5/../../../../xtensa-lx106-elf/lib/libc.a(lib_a-impure.o)
                                                  /mnt/hdd/projects-3rdparty/xtensa/esp-open-sdk/xtensa-lx106-elf/bin/../lib/gcc/xtensa-lx106-elf/4.8.5/../../../../xtensa-lx106-elf/lib/libc.a(lib_a-sysgettod.o)
                                                  /mnt/hdd/projects-3rdparty/xtensa/esp-open-sdk/xtensa-lx106-elf/bin/../lib/gcc/xtensa-lx106-elf/4.8.5/../../../../xtensa-lx106-elf/lib/libc.a(lib_a-strtol.o)
_rodata_end                                       libmain/user_interface.o
_rodata_start                                     libmain/user_interface.o
_strtol_r                                         /mnt/hdd/projects-3rdparty/xtensa/esp-open-sdk/xtensa-lx106-elf/bin/../lib/gcc/xtensa-lx106-elf/4.8.5/../../../../xtensa-lx106-elf/lib/libc.a(lib_a-strtol.o)
                                                  /mnt/hdd/projects-3rdparty/xtensa/esp-open-sdk/xtensa-lx106-elf/bin/../lib/gcc/xtensa-lx106-elf/4.8.5/../../../../xtensa-lx106-elf/lib/libc.a(lib_a-atoi.o)
_xtos_set_exception_handler                       libmain/app_main.o
adc_rand_noise                                    libphy/phy_chip_v6.o
                                                  libphy/phy_sleep.o
add_cert                                          libssl/ssl_tls1.o
                                                  libssl/ssl_loader.o
add_cert_auth                                     libssl/ssl_tls1.o
                                                  libssl/ssl_loader.o
add_packet                                        libssl/ssl_tls1.o
                                                  libssl/ssl_tls1_svr.o
add_private_key                                   libssl/ssl_tls1.o
                                                  libssl/ssl_loader.o
aes_128_cbc_decrypt                               libcrypto/aes-cbc.o
                                                  libwps/wps_common.o
aes_128_cbc_encrypt                               libcrypto/aes-cbc.o
                                                  libwps/wps_attr_build.o
aes_decrypt                                       libcrypto/aes-internal-dec.o
                                                  libespnow/manatick.o
                                                  libcrypto/crypto_internal-cipher.o
                                                  libcrypto/aes-cbc.o
aes_decrypt_deinit                                libcrypto/aes-internal-dec.o
                                                  libespnow/manatick.o
                                                  libcrypto/crypto_internal-cipher.o
                                                  libcrypto/aes-cbc.o
aes_decrypt_init                                  libcrypto/aes-internal-dec.o
                                                  libespnow/manatick.o
                                                  libcrypto/crypto_internal-cipher.o
                                                  libcrypto/aes-cbc.o
aes_encrypt                                       libcrypto/aes-internal-enc.o
                                                  libespnow/manatick.o
                                                  libcrypto/crypto_internal-cipher.o
                                                  libcrypto/aes-wrap.o
                                                  libcrypto/aes-cbc.o
aes_encrypt_deinit                                libcrypto/aes-internal-enc.o
                                                  libespnow/manatick.o
                                                  libcrypto/crypto_internal-cipher.o
                                                  libcrypto/aes-wrap.o
                                                  libcrypto/aes-cbc.o
aes_encrypt_init                                  libcrypto/aes-internal-enc.o
                                                  libespnow/manatick.o
                                                  libcrypto/crypto_internal-cipher.o
                                                  libcrypto/aes-wrap.o
                                                  libcrypto/aes-cbc.o
aes_unwrap                                        libwpa/wpa.o
aes_wrap                                          libcrypto/aes-wrap.o
                                                  libwpa/wpa_auth.o
airkiss_change_channel                            libairkiss/airkiss.o
airkiss_get_result                                libairkiss/airkiss.o
airkiss_init                                      libairkiss/airkiss.o
airkiss_lan_pack                                  libairkiss/airlink.o
airkiss_lan_recv                                  libairkiss/airlink.o
airkiss_recv                                      libairkiss/airkiss.o
airkiss_version                                   libairkiss/airkiss.o
ant_switch_init                                   libphy/phy_chip_v6.o
asn1_bit_string_to_long                           libwpa2/asn1.o
                                                  libwpa2/x509v3.o
asn1_compare_dn                                   libssl/ssl_asn1.o
                                                  libssl/ssl_x509.o
asn1_find_oid                                     libssl/ssl_asn1.o
asn1_find_subjectaltname                          libssl/ssl_asn1.o
                                                  libssl/ssl_x509.o
asn1_get_int                                      libssl/ssl_asn1.o
asn1_get_next                                     libwpa2/asn1.o
                                                  libwpa2/x509v3.o
                                                  libwpa2/tlsv1_cred.o
                                                  libwpa2/rsa.o
                                                  libwpa2/pkcs8.o
                                                  libwpa2/pkcs5.o
asn1_get_oid                                      libwpa2/asn1.o
                                                  libwpa2/x509v3.o
                                                  libwpa2/pkcs8.o
                                                  libwpa2/pkcs5.o
asn1_get_private_key                              libssl/ssl_asn1.o
                                                  libssl/ssl_tls1.o
asn1_name                                         libssl/ssl_asn1.o
                                                  libssl/ssl_x509.o
asn1_next_obj                                     libssl/ssl_asn1.o
                                                  libssl/ssl_x509.o
asn1_oid_to_str                                   libwpa2/asn1.o
                                                  libwpa2/x509v3.o
                                                  libwpa2/pkcs8.o
                                                  libwpa2/pkcs5.o
asn1_parse_oid                                    libwpa2/asn1.o
                                                  libwpa2/x509v3.o
asn1_public_key                                   libssl/ssl_asn1.o
                                                  libssl/ssl_x509.o
asn1_signature                                    libssl/ssl_asn1.o
                                                  libssl/ssl_x509.o
asn1_signature_type                               libssl/ssl_asn1.o
                                                  libssl/ssl_x509.o
asn1_skip_obj                                     libssl/ssl_asn1.o
                                                  libssl/ssl_x509.o
asn1_validity                                     libssl/ssl_asn1.o
                                                  libssl/ssl_x509.o
asn1_version                                      libssl/ssl_asn1.o
                                                  libssl/ssl_x509.o
atoi                                              /mnt/hdd/projects-3rdparty/xtensa/esp-open-sdk/xtensa-lx106-elf/bin/../lib/gcc/xtensa-lx106-elf/4.8.5/../../../../xtensa-lx106-elf/lib/libc.a(lib_a-atoi.o)
                                                  libwps/wps_common.o
                                                  libwpa2/eap_peap.o
                                                  libwpa2/eap_mschapv2.o
                                                  libmesh/espconn_mesh.o
auth_type                                         libnet80211/ieee80211_scan.o
                                                  libnet80211/wl_cnx.o
backup_ni_connect_status                          libnet80211/wl_cnx.o
base64Decode                                      libmesh/espconn_base64.o
base64Encode                                      libmesh/espconn_base64.o
base64_decode                                     libssl/ssl_crypto_misc.o
                                                  libssl/ssl_loader.o
base64_encode                                     libwps/wps_registrar.o
basic_read                                        libssl/ssl_tls1.o
bb_init                                           libphy/phy.o
bbpll_cal                                         libphy/phy_chip_v6.o
                                                  libphy/phy_chip_v6_ana.o
bbpll_cal_flag                                    libphy/phy_chip_v6.o
                                                  libphy/phy_sleep.o
bi_add                                            libssl/ssl_bigint.o
bi_barrett                                        libssl/ssl_bigint.o
bi_clear_cache                                    libssl/ssl_bigint.o
                                                  libssl/ssl_x509.o
                                                  libssl/ssl_rsa.o
bi_clone                                          libssl/ssl_bigint.o
                                                  libssl/ssl_x509.o
bi_compare                                        libssl/ssl_bigint.o
                                                  libssl/ssl_x509.o
bi_copy                                           libssl/ssl_bigint.o
bi_crt                                            libssl/ssl_bigint.o
                                                  libssl/ssl_rsa.o
bi_depermanent                                    libssl/ssl_bigint.o
                                                  libssl/ssl_rsa.o
bi_divide                                         libssl/ssl_bigint.o
bi_export                                         libssl/ssl_bigint.o
                                                  libssl/ssl_x509.o
                                                  libssl/ssl_rsa.o
bi_free                                           libssl/ssl_bigint.o
                                                  libssl/ssl_x509.o
                                                  libssl/ssl_rsa.o
bi_free_mod                                       libssl/ssl_bigint.o
                                                  libssl/ssl_rsa.o
bi_import                                         libssl/ssl_bigint.o
                                                  libssl/ssl_x509.o
                                                  libssl/ssl_rsa.o
bi_initialize                                     libssl/ssl_bigint.o
                                                  libssl/ssl_rsa.o
bi_mod_power                                      libssl/ssl_bigint.o
                                                  libssl/ssl_rsa.o
bi_mod_power2                                     libssl/ssl_bigint.o
                                                  libssl/ssl_x509.o
bi_multiply                                       libssl/ssl_bigint.o
bi_permanent                                      libssl/ssl_bigint.o
                                                  libssl/ssl_rsa.o
bi_print                                          libssl/ssl_bigint.o
                                                  libssl/ssl_rsa.o
bi_set_mod                                        libssl/ssl_bigint.o
                                                  libssl/ssl_rsa.o
bi_square                                         libssl/ssl_bigint.o
bi_str_import                                     libssl/ssl_bigint.o
bi_subtract                                       libssl/ssl_bigint.o
bi_terminate                                      libssl/ssl_bigint.o
                                                  libssl/ssl_rsa.o
bignum_add                                        libwpa2/bignum.o
                                                  libwpa2/rsa.o
bignum_cmp                                        libwpa2/bignum.o
                                                  libwpa2/rsa.o
bignum_cmp_d                                      libwpa2/bignum.o
                                                  libwpa2/rsa.o
                                                  libwpa2/pkcs8.o
bignum_deinit                                     libwpa2/bignum.o
                                                  libwpa2/rsa.o
                                                  libwpa2/pkcs8.o
                                                  libcrypto/crypto_internal-modexp.o
bignum_exptmod                                    libwpa2/bignum.o
                                                  libwpa2/rsa.o
                                                  libcrypto/crypto_internal-modexp.o
bignum_get_unsigned_bin                           libwpa2/bignum.o
                                                  libwpa2/rsa.o
                                                  libcrypto/crypto_internal-modexp.o
bignum_get_unsigned_bin_len                       libwpa2/bignum.o
                                                  libwpa2/rsa.o
bignum_init                                       libwpa2/bignum.o
                                                  libwpa2/rsa.o
                                                  libwpa2/pkcs8.o
                                                  libcrypto/crypto_internal-modexp.o
bignum_mul                                        libwpa2/bignum.o
                                                  libwpa2/rsa.o
bignum_mulmod                                     libwpa2/bignum.o
                                                  libwpa2/rsa.o
bignum_set_unsigned_bin                           libwpa2/bignum.o
                                                  libwpa2/rsa.o
                                                  libwpa2/pkcs8.o
                                                  libcrypto/crypto_internal-modexp.o
bignum_sub                                        libwpa2/bignum.o
                                                  libwpa2/rsa.o
bit_popcount                                      libmain/eagle_lib.o
                                                  libpp/trc.o
                                                  libpp/if_hwctrl.o
buffed_eb_arr                                     libpp/pp.o
cal_rf_ana_gain                                   libphy/phy_chip_v6_cal.o
                                                  libphy/phy_chip_v6.o
call_user_start                                   libmain/vector.o
call_user_start_local                             libmain/app_main.o
                                                  libmain/vector.o
cannel_scan_connect_state                         libnet80211/ieee80211_scan.o
ccmp                                              libnet80211/ieee80211_crypto_ccmp.o
                                                  libwpa/wpa_main.o
                                                  libwpa/wpa_auth.o
                                                  libnet80211/ieee80211_input.o
                                                  libnet80211/ieee80211_action_vendor.o
                                                  libnet80211/ieee80211_action.o
                                                  libespnow/simple_pair.o
                                                  libespnow/manatick.o
challenge_response                                libcrypto/ms_funcs.o
change_bbpll160                                   libphy/phy_chip_v6.o
                                                  libphy/phy_sleep.o
change_bbpll160_sleep                             libphy/phy_chip_v6.o
channel_timer                                     libsmartconfig/sc_sniffer.o
                                                  libsmartconfig/sc_esptouch.o
                                                  libsmartconfig/sc_airkiss.o
check_data_flag                                   libphy/phy_chip_v6_ana.o
check_data_func                                   libphy/phy_chip_v6.o
check_memleak_debug_enable                        libmain/mem_manager.o
check_result                                      libphy/phy_chip_v6.o
                                                  libphy/phy_chip_v6_cal.o
check_timeouts_timer                              libmain/app_main.o
                                                  libpp/pm.o
                                                  libpp/pm_for_bcn_only_mode.o
check_tx_pwr_cal                                  libphy/phy_chip_v6.o
chg_lslp_mem_opt_8266                             libphy/phy_sleep.o
chip6_phy_init_ctrl                               libphy/phy_chip_v6.o
                                                  libpp/pp.o
                                                  libphy/phy_sleep.o
                                                  libphy/phy_chip_v6_cal.o
                                                  libphy/phy_chip_v6_ana.o
chip6_sleep_params                                libphy/phy_chip_v6.o
                                                  libphy/phy_sleep.o
                                                  libphy/phy_chip_v6_cal.o
                                                  libphy/phy_chip_v6_ana.o
chip_60_set_channel                               libphy/phy_chip_v6_ana.o
                                                  libphy/phy_chip_v6.o
chip_v6_get_sense                                 libphy/phy_chip_v6_unused.o
chip_v6_initialize_bb                             libphy/phy_chip_v6.o
chip_v6_rf_init                                   libphy/phy_chip_v6_ana.o
                                                  libphy/phy_chip_v6.o
chip_v6_rxmax_ext                                 libphy/phy_chip_v6.o
                                                  libnet80211/ieee80211_sta.o
chip_v6_rxmax_ext_ana                             libphy/phy_chip_v6_ana.o
                                                  libphy/phy_chip_v6.o
chip_v6_rxmax_ext_dig                             libphy/phy_chip_v6.o
chip_v6_set_chan                                  libphy/phy_chip_v6_ana.o
                                                  libphy/phy_chip_v6.o
chip_v6_set_chan_misc                             libphy/phy_chip_v6.o
                                                  libphy/phy_chip_v6_ana.o
chip_v6_set_chan_offset                           libphy/phy_chip_v6_ana.o
                                                  libpp/pp.o
                                                  libnet80211/ieee80211_scan.o
                                                  libnet80211/ieee80211_hostap.o
                                                  libmain/app_main.o
chip_v6_set_chan_rx_cmp                           libphy/phy_chip_v6.o
chip_v6_set_chan_wakeup                           libphy/phy_chip_v6_ana.o
chip_v6_set_chanfreq                              libphy/phy_chip_v6.o
chip_v6_set_sense                                 libphy/phy_chip_v6_unused.o
                                                  libphy/phy_chip_v6.o
chip_v6_unset_chanfreq                            libphy/phy_chip_v6_unused.o
                                                  libphy/phy_chip_v6.o
chip_version                                      libphy/phy_sleep.o
chm_acquire_lock                                  libnet80211/wl_chm.o
                                                  libnet80211/wl_cnx.o
                                                  libnet80211/ieee80211_scan.o
chm_cancel_op                                     libnet80211/wl_chm.o
                                                  libnet80211/ieee80211_scan.o
chm_check_same_channel                            libnet80211/wl_chm.o
                                                  libnet80211/ieee80211_power.o
                                                  libnet80211/ieee80211_output.o
                                                  libnet80211/ieee80211_hostap.o
chm_end_op                                        libnet80211/wl_chm.o
chm_freq2index                                    libnet80211/wl_chm.o
chm_get_current_channel                           libnet80211/wl_chm.o
                                                  libpp/wdev.o
                                                  libpp/pp.o
                                                  libpp/pm.o
                                                  libnet80211/wl_cnx.o
                                                  libnet80211/ieee80211_scan.o
                                                  libnet80211/ieee80211_hostap.o
                                                  libmain/user_interface.o
chm_init                                          libnet80211/wl_chm.o
                                                  libnet80211/ieee80211.o
chm_release_lock                                  libnet80211/wl_chm.o
                                                  libnet80211/wl_cnx.o
                                                  libnet80211/ieee80211_scan.o
chm_return_home_channel                           libnet80211/wl_chm.o
                                                  libnet80211/wl_cnx.o
                                                  libnet80211/ieee80211_scan.o
chm_set_current_channel                           libnet80211/wl_chm.o
                                                  libnet80211/ieee80211_hostap.o
                                                  libmain/user_interface.o
chm_start_op                                      libnet80211/wl_chm.o
                                                  libnet80211/wl_cnx.o
                                                  libnet80211/ieee80211_scan.o
clockgate_watchdog                                libphy/phy_sleep.o
                                                  libpp/pm.o
                                                  libpp/pm_for_bcn_only_mode.o
                                                  libmain/user_interface.o
cnx_add_rc                                        libnet80211/wl_cnx.o
                                                  libnet80211/ieee80211_scan.o
cnx_assoc_timeout                                 libnet80211/wl_cnx.o
                                                  libnet80211/ieee80211_sta.o
cnx_attach                                        libnet80211/wl_cnx.o
                                                  libmain/app_main.o
cnx_auth_timeout                                  libnet80211/wl_cnx.o
                                                  libnet80211/ieee80211_proto.o
cnx_bss_alloc                                     libnet80211/wl_cnx.o
                                                  libnet80211/ieee80211_scan.o
cnx_connect_timeout                               libnet80211/wl_cnx.o
                                                  libnet80211/ieee80211_sta.o
                                                  libnet80211/ieee80211_scan.o
cnx_csa_fn                                        libnet80211/wl_cnx.o
                                                  libnet80211/ieee80211_sta.o
cnx_handshake_timeout                             libnet80211/wl_cnx.o
cnx_node_alloc                                    libnet80211/wl_cnx.o
                                                  libnet80211/ieee80211_hostap.o
cnx_node_join                                     libnet80211/wl_cnx.o
                                                  libnet80211/ieee80211_hostap.o
cnx_node_leave                                    libnet80211/wl_cnx.o
                                                  libnet80211/ieee80211_hostap.o
                                                  libmain/user_interface.o
cnx_node_remove                                   libnet80211/wl_cnx.o
cnx_node_search                                   libnet80211/wl_cnx.o
                                                  libwpa/wpa_auth.o
                                                  libnet80211/ieee80211_output.o
                                                  libnet80211/ieee80211_hostap.o
cnx_rc_search                                     libnet80211/wl_cnx.o
                                                  libnet80211/ieee80211_scan.o
cnx_rc_update_age                                 libnet80211/wl_cnx.o
                                                  libnet80211/ieee80211_scan.o
cnx_rc_update_rssi                                libnet80211/wl_cnx.o
                                                  libnet80211/ieee80211_scan.o
cnx_rc_update_state_metric                        libnet80211/wl_cnx.o
                                                  libnet80211/ieee80211_scan.o
cnx_remove_all_rc                                 libnet80211/wl_cnx.o
                                                  libnet80211/ieee80211_sta.o
cnx_remove_rc                                     libnet80211/wl_cnx.o
                                                  libnet80211/ieee80211_scan.o
cnx_sta_associated                                libnet80211/wl_cnx.o
                                                  libnet80211/ieee80211_sta.o
cnx_sta_connect_cmd                               libnet80211/wl_cnx.o
                                                  libmain/user_interface.o
cnx_sta_connect_led_timer_cb                      libnet80211/wl_cnx.o
cnx_sta_leave                                     libnet80211/wl_cnx.o
                                                  libnet80211/ieee80211_sta.o
cnx_sta_scan_cmd                                  libnet80211/wl_cnx.o
                                                  libwps/wps.o
                                                  libmain/user_interface.o
cnx_start_handoff_cb                              libnet80211/wl_cnx.o
cnx_update_bss                                    libnet80211/wl_cnx.o
                                                  libnet80211/ieee80211_scan.o
cnx_update_bss_more                               libnet80211/wl_cnx.o
                                                  libnet80211/ieee80211_scan.o
configTime                                        libmain/time.o
connect_scan_flag                                 libnet80211/ieee80211_scan.o
correct_rf_ana_gain                               libphy/phy_chip_v6_cal.o
cpu_overclock                                     libmain/user_interface.o
crypto_cipher_decrypt                             libcrypto/crypto_internal-cipher.o
                                                  libwpa2/tlsv1_record.o
                                                  libwpa2/pkcs5.o
crypto_cipher_deinit                              libcrypto/crypto_internal-cipher.o
                                                  libwpa2/tlsv1_record.o
                                                  libwpa2/pkcs5.o
crypto_cipher_encrypt                             libcrypto/crypto_internal-cipher.o
                                                  libwpa2/tlsv1_record.o
crypto_cipher_init                                libcrypto/crypto_internal-cipher.o
                                                  libwpa2/tlsv1_record.o
                                                  libwpa2/pkcs5.o
crypto_global_deinit                              libcrypto/crypto_internal.o
                                                  libwpa2/tlsv1_server.o
                                                  libwpa2/tlsv1_client.o
crypto_global_init                                libcrypto/crypto_internal.o
                                                  libwpa2/tlsv1_server.o
                                                  libwpa2/tlsv1_client.o
crypto_hash_finish                                libcrypto/crypto_internal.o
                                                  libwpa2/tlsv1_server_write.o
                                                  libwpa2/tlsv1_server_read.o
                                                  libwpa2/tlsv1_record.o
                                                  libwpa2/tlsv1_common.o
                                                  libwpa2/tlsv1_client_write.o
                                                  libwpa2/tlsv1_client_read.o
crypto_hash_init                                  libcrypto/crypto_internal.o
                                                  libwpa2/tlsv1_record.o
                                                  libwpa2/tlsv1_common.o
crypto_hash_update                                libcrypto/crypto_internal.o
                                                  libwpa2/tlsv1_record.o
                                                  libwpa2/tlsv1_common.o
crypto_mod_exp                                    libcrypto/crypto_internal-modexp.o
                                                  libwpa2/tlsv1_server_write.o
                                                  libwpa2/tlsv1_server_read.o
                                                  libwpa2/tlsv1_client_write.o
                                                  libcrypto/dh_groups.o
crypto_private_key_decrypt_pkcs1_v15              libcrypto/crypto_internal-rsa.o
                                                  libwpa2/tlsv1_server_read.o
crypto_private_key_free                           libcrypto/crypto_internal-rsa.o
                                                  libwpa2/tlsv1_cred.o
crypto_private_key_import                         libcrypto/crypto_internal-rsa.o
                                                  libwpa2/tlsv1_cred.o
crypto_private_key_sign_pkcs1                     libcrypto/crypto_internal-rsa.o
                                                  libwpa2/tlsv1_client_write.o
crypto_public_key_decrypt_pkcs1                   libcrypto/crypto_internal-rsa.o
                                                  libwpa2/x509v3.o
                                                  libwpa2/tlsv1_server_read.o
crypto_public_key_encrypt_pkcs1_v15               libcrypto/crypto_internal-rsa.o
                                                  libwpa2/tlsv1_client_write.o
crypto_public_key_free                            libcrypto/crypto_internal-rsa.o
                                                  libwpa2/x509v3.o
                                                  libwpa2/tlsv1_server_read.o
                                                  libwpa2/tlsv1_server.o
                                                  libwpa2/tlsv1_client_read.o
                                                  libwpa2/tlsv1_client.o
crypto_public_key_from_cert                       libcrypto/crypto_internal-rsa.o
                                                  libwpa2/tlsv1_common.o
crypto_public_key_import                          libcrypto/crypto_internal-rsa.o
                                                  libwpa2/x509v3.o
                                                  libwpa2/tlsv1_common.o
crypto_rsa_exptmod                                libwpa2/rsa.o
                                                  libwpa2/pkcs1.o
crypto_rsa_free                                   libwpa2/rsa.o
                                                  libcrypto/crypto_internal-rsa.o
crypto_rsa_get_modulus_len                        libwpa2/rsa.o
                                                  libwpa2/pkcs1.o
crypto_rsa_import_private_key                     libwpa2/rsa.o
                                                  libwpa2/pkcs8.o
                                                  libcrypto/crypto_internal-rsa.o
crypto_rsa_import_public_key                      libwpa2/rsa.o
                                                  libcrypto/crypto_internal-rsa.o
current_header                                    liblwip/ip.o
current_iphdr_dest                                liblwip/ip.o
                                                  liblwip/udp.o
                                                  liblwip/tcp_in.o
                                                  liblwip/raw.o
                                                  liblwip/icmp.o
current_iphdr_src                                 liblwip/ip.o
                                                  liblwip/udp.o
                                                  liblwip/tcp_in.o
                                                  liblwip/raw.o
                                                  liblwip/icmp.o
current_netif                                     liblwip/ip.o
dbg_stop_hw_wdt                                   libpp/pp.o
dbg_stop_sw_wdt                                   libpp/pp.o
dbg_timer_flag                                    libmain/ets_timer.o
dcoindex2txbbgain                                 libphy/phy_chip_v6_cal.o
debug_timer                                       libmain/ets_timer.o
debug_timerfn                                     libmain/ets_timer.o
deep_sleep_flag                                   libmain/user_interface.o
deep_sleep_set_option                             libphy/phy_chip_v6.o
                                                  libmain/user_interface.o
def_certificate                                   libssl/espconn_secure.o
                                                  libssl/ssl_loader.o
def_certificate_len                               libssl/espconn_secure.o
                                                  libssl/ssl_loader.o
def_private_key                                   libssl/espconn_secure.o
                                                  libssl/ssl_loader.o
def_private_key_len                               libssl/espconn_secure.o
                                                  libssl/ssl_loader.o
default_certificate                               ../empty_user.o
default_certificate_len                           ../empty_user.o
default_hostname                                  libmain/eagle_lwip_if.o
                                                  libmain/user_interface.o
default_interface                                 libmain/user_interface.o
                                                  liblwip/espconn_udp.o
default_private_key                               ../empty_user.o
default_private_key_len                           ../empty_user.o
default_ssid                                      libmain/user_interface.o
des_encrypt                                       libcrypto/des-internal.o
                                                  libcrypto/ms_funcs.o
dh5_derive_shared                                 libcrypto/dh_group5.o
                                                  libwps/wps_common.o
dh5_free                                          libcrypto/dh_group5.o
                                                  libwps/wps.o
                                                  libwps/wps_common.o
                                                  libwps/wps_attr_build.o
dh5_init                                          libcrypto/dh_group5.o
                                                  libwps/wps_attr_build.o
dh_derive_shared                                  libcrypto/dh_groups.o
                                                  libcrypto/dh_group5.o
dh_groups_get                                     libcrypto/dh_groups.o
                                                  libcrypto/dh_group5.o
dh_init                                           libcrypto/dh_groups.o
                                                  libcrypto/dh_group5.o
dhcp_arp_reply                                    liblwip/dhcp.o
                                                  liblwip/etharp.o
dhcp_bind_check                                   libwpa/wpa_main.o
dhcp_cleanup                                      liblwip/dhcp.o
                                                  libnet80211/wl_cnx.o
                                                  libmain/user_interface.o
dhcp_coarse_tmr                                   liblwip/dhcp.o
                                                  liblwip/timers.o
dhcp_fine_tmr                                     liblwip/dhcp.o
                                                  liblwip/timers.o
dhcp_inform                                       liblwip/dhcp.o
dhcp_network_changed                              liblwip/dhcp.o
                                                  liblwip/netif.o
dhcp_release                                      liblwip/dhcp.o
                                                  libnet80211/wl_cnx.o
dhcp_renew                                        liblwip/dhcp.o
dhcp_rx_options_given                             liblwip/dhcp.o
dhcp_rx_options_val                               liblwip/dhcp.o
dhcp_set_struct                                   liblwip/dhcp.o
dhcp_start                                        liblwip/dhcp.o
                                                  libwpa/wpa_main.o
                                                  libmain/user_interface.o
dhcp_stop                                         liblwip/dhcp.o
                                                  libnet80211/wl_cnx.o
                                                  libmain/user_interface.o
dhcpc_flag                                        libmain/user_interface.o
                                                  libwpa/wpa_main.o
dhcps_coarse_tmr                                  liblwip/dhcpserver.o
                                                  liblwip/timers.o
dhcps_flag                                        libmain/user_interface.o
                                                  libmain/eagle_lwip_if.o
dhcps_lease_time                                  liblwip/dhcpserver.o
dhcps_start                                       liblwip/dhcpserver.o
                                                  libmain/user_interface.o
                                                  libmain/eagle_lwip_if.o
dhcps_stop                                        liblwip/dhcpserver.o
                                                  libmain/user_interface.o
                                                  libmain/eagle_lwip_if.o
disposable_free                                   libssl/ssl_tls1.o
                                                  libssl/ssl_tls1_svr.o
                                                  libssl/ssl_tls1_clnt.o
disposable_new                                    libssl/ssl_tls1.o
                                                  libssl/ssl_tls1_clnt.o
divide                                            libmain/eagle_lib.o
dns_gethostbyname                                 liblwip/dns.o
                                                  liblwip/sntp.o
                                                  liblwip/espconn.o
dns_getserver                                     liblwip/dns.o
dns_init                                          liblwip/dns.o
                                                  liblwip/init.o
dns_setserver                                     liblwip/dns.o
                                                  liblwip/espconn.o
                                                  liblwip/dhcp.o
dns_tmr                                           liblwip/dns.o
                                                  liblwip/timers.o
do_client_connect                                 libssl/ssl_tls1_clnt.o
                                                  libssl/ssl_tls1.o
do_clnt_handshake                                 libssl/ssl_tls1_clnt.o
                                                  libssl/ssl_tls1.o
do_noisefloor                                     libphy/phy_chip_v6.o
do_noisefloor_lsleep_v50                          libphy/phy_chip_v6.o
do_pwctrl_flag                                    libphy/phy_chip_v6.o
                                                  libphy/phy_sleep.o
do_svr_handshake                                  libssl/ssl_tls1_svr.o
                                                  libssl/ssl_tls1.o
done_cb                                           libmain/user_interface.o
                                                  libmain/app_main.o
dpd_bypass_original                               libphy/phy_chip_v6.o
dpd_mem_write                                     libphy/phy_chip_v6_cal.o
dpd_scale_set                                     libphy/phy_chip_v6_cal.o
                                                  libphy/phy_chip_v6.o
dup_binstr                                        libwpa/common.o
                                                  libwpa2/x509v3.o
                                                  libwpa2/eap_mschapv2.o
eagle_auth_done                                   libwpa/wpa_main.o
                                                  libnet80211/ieee80211_sta.o
eagle_lwip_getif                                  libmain/eagle_lwip_if.o
                                                  libmesh/espconn_mesh.o
                                                  libmain/user_interface.o
                                                  liblwip/mdns.o
                                                  liblwip/ip.o
                                                  liblwip/espconn_udp.o
                                                  liblwip/dhcpserver.o
eagle_lwip_if_alloc                               libmain/eagle_lwip_if.o
                                                  libnet80211/ieee80211_sta.o
                                                  libnet80211/ieee80211_hostap.o
eagle_lwip_if_free                                libmain/eagle_lwip_if.o
                                                  libnet80211/ieee80211_hostap.o
                                                  libmain/user_interface.o
eap_get_config                                    libwpa2/eap.o
                                                  libwpa2/eap_ttls.o
                                                  libwpa2/eap_tls.o
                                                  libwpa2/eap_peap.o
                                                  libwpa2/eap_mschapv2.o
eap_get_config_blob                               libwpa2/eap.o
                                                  libwpa2/eap_tls_common.o
eap_get_config_identity                           libwpa2/eap.o
                                                  libwpa2/eap_ttls.o
                                                  libwpa2/eap_mschapv2.o
eap_get_config_new_password                       libwpa2/eap.o
                                                  libwpa2/eap_mschapv2.o
eap_get_config_password                           libwpa2/eap.o
                                                  libwpa2/eap_ttls.o
                                                  libwpa2/eap_mschapv2.o
eap_get_config_password2                          libwpa2/eap.o
                                                  libwpa2/eap_ttls.o
                                                  libwpa2/eap_mschapv2.o
eap_get_id                                        libwpa2/eap_common.o
                                                  libwpa2/eap_ttls.o
                                                  libwpa2/eap_tls.o
                                                  libwpa2/eap_peap.o
                                                  libwpa2/eap_mschapv2.o
eap_get_phase2_type                               libwpa2/eap.o
                                                  libwpa2/eap_tls_common.o
eap_get_phase2_types                              libwpa2/eap.o
                                                  libwpa2/eap_tls_common.o
eap_get_type                                      libwpa2/eap_common.o
                                                  libwpa2/eap_peap.o
eap_hdr_len_valid                                 libwpa2/eap_common.o
eap_hdr_validate                                  libwpa2/eap_common.o
                                                  libwpa2/eap_tls_common.o
                                                  libwpa2/eap_peap.o
                                                  libwpa2/eap_mschapv2.o
eap_msg_alloc                                     libwpa2/eap_common.o
                                                  libwps/wps.o
                                                  libwpa2/eap_tls_common.o
                                                  libwpa2/eap_peap.o
                                                  libwpa2/eap.o
                                                  libwpa2/eap_mschapv2.o
eap_peer_get_eap_method                           libwpa2/eap.o
                                                  libwpa2/eap_peap.o
eap_peer_get_methods                              libwpa2/eap.o
eap_peer_get_type                                 libwpa2/eap.o
eap_peer_method_alloc                             libwpa2/eap.o
                                                  libwpa2/eap_ttls.o
                                                  libwpa2/eap_tls.o
                                                  libwpa2/eap_peap.o
                                                  libwpa2/eap_mschapv2.o
eap_peer_method_free                              libwpa2/eap.o
                                                  libwpa2/eap_ttls.o
                                                  libwpa2/eap_tls.o
                                                  libwpa2/eap_peap.o
                                                  libwpa2/eap_mschapv2.o
eap_peer_method_register                          libwpa2/eap.o
                                                  libwpa2/eap_ttls.o
                                                  libwpa2/eap_tls.o
                                                  libwpa2/eap_peap.o
                                                  libwpa2/eap_mschapv2.o
eap_peer_mschapv2_register                        libwpa2/eap_mschapv2.o
                                                  libwpa2/eap.o
eap_peer_peap_register                            libwpa2/eap_peap.o
                                                  libwpa2/eap.o
eap_peer_register_methods                         libwpa2/eap.o
eap_peer_select_phase2_methods                    libwpa2/eap_tls_common.o
                                                  libwpa2/eap_peap.o
eap_peer_tls_build_ack                            libwpa2/eap_tls_common.o
                                                  libwpa2/eap_ttls.o
                                                  libwpa2/eap_tls.o
                                                  libwpa2/eap_peap.o
eap_peer_tls_decrypt                              libwpa2/eap_tls_common.o
                                                  libwpa2/eap_ttls.o
                                                  libwpa2/eap_peap.o
eap_peer_tls_derive_key                           libwpa2/eap_tls_common.o
                                                  libwpa2/eap_ttls.o
                                                  libwpa2/eap_tls.o
                                                  libwpa2/eap_peap.o
eap_peer_tls_derive_session_id                    libwpa2/eap_tls_common.o
                                                  libwpa2/eap_ttls.o
                                                  libwpa2/eap_tls.o
                                                  libwpa2/eap_peap.o
eap_peer_tls_encrypt                              libwpa2/eap_tls_common.o
                                                  libwpa2/eap_ttls.o
                                                  libwpa2/eap_peap.o
eap_peer_tls_phase2_nak                           libwpa2/eap_tls_common.o
                                                  libwpa2/eap_peap.o
eap_peer_tls_process_helper                       libwpa2/eap_tls_common.o
                                                  libwpa2/eap_ttls.o
                                                  libwpa2/eap_tls.o
                                                  libwpa2/eap_peap.o
eap_peer_tls_process_init                         libwpa2/eap_tls_common.o
                                                  libwpa2/eap_ttls.o
                                                  libwpa2/eap_tls.o
                                                  libwpa2/eap_peap.o
eap_peer_tls_reauth_init                          libwpa2/eap_tls_common.o
                                                  libwpa2/eap_ttls.o
                                                  libwpa2/eap_peap.o
eap_peer_tls_register                             libwpa2/eap_tls.o
                                                  libwpa2/eap.o
eap_peer_tls_reset_input                          libwpa2/eap_tls_common.o
                                                  libwpa2/eap_ttls.o
                                                  libwpa2/eap_peap.o
eap_peer_tls_reset_output                         libwpa2/eap_tls_common.o
eap_peer_tls_ssl_deinit                           libwpa2/eap_tls_common.o
                                                  libwpa2/eap_ttls.o
                                                  libwpa2/eap_tls.o
                                                  libwpa2/eap_peap.o
eap_peer_tls_ssl_init                             libwpa2/eap_tls_common.o
                                                  libwpa2/eap_ttls.o
                                                  libwpa2/eap_tls.o
                                                  libwpa2/eap_peap.o
eap_peer_tls_status                               libwpa2/eap_tls_common.o
                                                  libwpa2/eap_ttls.o
                                                  libwpa2/eap_peap.o
eap_peer_ttls_register                            libwpa2/eap_ttls.o
                                                  libwpa2/eap.o
eap_peer_unregister_methods                       libwpa2/eap.o
eap_sm_build_identity_resp                        libwpa2/eap.o
                                                  libwpa2/eap_peap.o
eap_sm_process_request                            libwpa2/eap.o
eap_sm_send_eapol                                 libwpa2/eap.o
eap_update_len                                    libwpa2/eap_common.o
                                                  libwpa2/eap_tls_common.o
                                                  libwpa2/eap.o
eapol_txcb                                        libwpa/wpa.o
                                                  libwpa/wpa_main.o
eloop_cancel_timeout                              libwpa/wpa_debug.o
                                                  libwpa/wpa.o
                                                  libwpa/wpa_auth.o
eloop_register_timeout                            libwpa/wpa_debug.o
                                                  libwpa/wpa.o
                                                  libwpa/wpa_auth.o
encrypt_pw_block_with_password_hash               libcrypto/ms_funcs.o
                                                  libwpa2/eap_mschapv2.o
esf_buf_alloc                                     libpp/esf_buf.o
                                                  libnet80211/ieee80211_output.o
                                                  libnet80211/ieee80211_ets.o
esf_buf_recycle                                   libpp/esf_buf.o
                                                  libpp/pp.o
                                                  libnet80211/ieee80211_power.o
                                                  libnet80211/ieee80211_output.o
                                                  libnet80211/ieee80211_hostap.o
esf_buf_setup                                     libpp/esf_buf.o
                                                  libpp/pp.o
esf_rx_buf_alloc                                  libpp/esf_buf.o
                                                  libpp/wdev.o
esp_now_add_peer                                  libespnow/espnow.o
esp_now_deinit                                    libespnow/espnow.o
esp_now_del_peer                                  libespnow/espnow.o
esp_now_encrypt_key                               libespnow/espnow.o
esp_now_fetch_peer                                libespnow/espnow.o
esp_now_get_cnt_info                              libespnow/espnow.o
esp_now_get_peer_channel                          libespnow/espnow.o
esp_now_get_peer_key                              libespnow/espnow.o
esp_now_get_peer_role                             libespnow/espnow.o
esp_now_get_self_role                             libespnow/espnow.o
esp_now_get_version                               libespnow/espnow.o
esp_now_init                                      libespnow/espnow.o
esp_now_is_peer_exist                             libespnow/espnow.o
esp_now_register_recv_cb                          libespnow/espnow.o
esp_now_register_send_cb                          libespnow/espnow.o
esp_now_send                                      libespnow/espnow.o
esp_now_set_kok                                   libespnow/espnow.o
esp_now_set_peer_channel                          libespnow/espnow.o
esp_now_set_peer_key                              libespnow/espnow.o
esp_now_set_peer_role                             libespnow/espnow.o
esp_now_set_self_role                             libespnow/espnow.o
esp_now_unregister_recv_cb                        libespnow/espnow.o
esp_now_unregister_send_cb                        libespnow/espnow.o
espconn_TaskQueue                                 liblwip/espconn_tcp.o
espconn_abort                                     liblwip/espconn.o
espconn_accept                                    liblwip/espconn.o
                                                  libmesh/espconn_mesh.o
espconn_clear_opt                                 liblwip/espconn.o
espconn_connect                                   liblwip/espconn.o
                                                  libmesh/espconn_mesh.o
espconn_copy_partial                              liblwip/espconn.o
                                                  liblwip/espconn_tcp.o
espconn_create                                    liblwip/espconn.o
                                                  libsmartconfig/sc_esptouch.o
                                                  libsmartconfig/sc_airkiss.o
                                                  libmesh/espconn_mesh.o
espconn_delete                                    liblwip/espconn.o
                                                  libsmartconfig/sc_sniffer.o
                                                  libsmartconfig/sc_esptouch.o
                                                  libsmartconfig/sc_airkiss.o
                                                  libmesh/espconn_mesh.o
espconn_disconnect                                liblwip/espconn.o
                                                  libmesh/espconn_mesh.o
espconn_dns_setserver                             liblwip/espconn.o
espconn_find_connection                           liblwip/espconn.o
                                                  libssl/espconn_secure.o
                                                  libmesh/espconn_mesh.o
                                                  liblwip/espconn_tcp.o
espconn_find_current_pcb                          liblwip/espconn_tcp.o
espconn_get_connection_info                       liblwip/espconn.o
                                                  libssl/espconn_ssl.o
                                                  liblwip/espconn_tcp.o
espconn_get_keepalive                             liblwip/espconn.o
espconn_get_packet_info                           liblwip/espconn.o
espconn_gethostbyname                             liblwip/espconn.o
espconn_igmp_join                                 liblwip/espconn_udp.o
espconn_igmp_leave                                liblwip/espconn_udp.o
espconn_init                                      liblwip/espconn_tcp.o
                                                  libmain/app_main.o
espconn_json_find_section                         libmesh/espconn_mesh.o
espconn_kill_oldest_pcb                           liblwip/espconn_tcp.o
                                                  libssl/espconn_ssl.o
espconn_kill_pcb                                  liblwip/espconn_tcp.o
                                                  libssl/espconn_ssl.o
espconn_list_creat                                liblwip/espconn.o
                                                  libssl/espconn_ssl.o
                                                  liblwip/espconn_udp.o
                                                  liblwip/espconn_tcp.o
espconn_list_delete                               liblwip/espconn.o
                                                  libssl/espconn_ssl.o
                                                  liblwip/espconn_udp.o
                                                  liblwip/espconn_tcp.o
espconn_lock_recv                                 liblwip/espconn_tcp.o
espconn_mdns_close                                liblwip/espconn_mdns.o
espconn_mdns_disable                              liblwip/espconn_mdns.o
espconn_mdns_enable                               liblwip/espconn_mdns.o
espconn_mdns_get_hostname                         liblwip/espconn_mdns.o
espconn_mdns_get_servername                       liblwip/espconn_mdns.o
espconn_mdns_init                                 liblwip/espconn_mdns.o
espconn_mdns_server_register                      liblwip/espconn_mdns.o
espconn_mdns_server_unregister                    liblwip/espconn_mdns.o
espconn_mdns_set_hostname                         liblwip/espconn_mdns.o
espconn_mdns_set_servername                       liblwip/espconn_mdns.o
espconn_mesh_connect                              libmesh/espconn_mesh.o
espconn_mesh_disable                              libmesh/espconn_mesh.o
espconn_mesh_disconnect                           libmesh/espconn_mesh.o
espconn_mesh_enable                               libmesh/espconn_mesh.o
espconn_mesh_encrypt_init                         libmesh/espconn_mesh.o
espconn_mesh_get_dev_type                         libmesh/espconn_mesh.o
espconn_mesh_get_max_hops                         libmesh/espconn_mesh.o
espconn_mesh_get_node_info                        libmesh/espconn_mesh.o
espconn_mesh_get_router                           libmesh/espconn_mesh.o
espconn_mesh_get_status                           libmesh/espconn_mesh.o
espconn_mesh_get_version                          libmesh/espconn_mesh.o
espconn_mesh_group_id_init                        libmesh/espconn_mesh.o
espconn_mesh_http_complete                        libmesh/espconn_mesh.o
espconn_mesh_layer                                libmesh/espconn_mesh.o
espconn_mesh_local_addr                           libmesh/espconn_mesh.o
espconn_mesh_print_ver                            libmesh/espconn_mesh.o
espconn_mesh_release_usr_ctx                      libmesh/espconn_mesh.o
espconn_mesh_scan                                 libmesh/espconn_mesh.o
espconn_mesh_scan_done_for_usr                    libmesh/espconn_mesh.o
espconn_mesh_sent                                 libmesh/espconn_mesh.o
espconn_mesh_server_init                          libmesh/espconn_mesh.o
espconn_mesh_set_dev_type                         libmesh/espconn_mesh.o
espconn_mesh_set_max_hops                         libmesh/espconn_mesh.o
espconn_mesh_set_router                           libmesh/espconn_mesh.o
espconn_mesh_set_ssid_prefix                      libmesh/espconn_mesh.o
espconn_mesh_setup_timer                          libmesh/espconn_mesh.o
espconn_pbuf_create                               liblwip/espconn.o
espconn_pbuf_delete                               liblwip/espconn.o
                                                  liblwip/espconn_tcp.o
espconn_port                                      liblwip/espconn.o
                                                  libsmartconfig/sc_esptouch.o
                                                  libsmartconfig/sc_airkiss.o
                                                  libmesh/espconn_mesh.o
espconn_recv                                      liblwip/espconn.o
espconn_recv_hold                                 liblwip/espconn_tcp.o
                                                  libmesh/espconn_mesh.o
espconn_recv_unhold                               liblwip/espconn_tcp.o
                                                  libmesh/espconn_mesh.o
                                                  liblwip/espconn.o
espconn_regist_connectcb                          liblwip/espconn.o
                                                  libmesh/espconn_mesh.o
espconn_regist_disconcb                           liblwip/espconn.o
                                                  libmesh/espconn_mesh.o
espconn_regist_reconcb                            liblwip/espconn.o
                                                  libmesh/espconn_mesh.o
espconn_regist_recvcb                             liblwip/espconn.o
                                                  libsmartconfig/sc_esptouch.o
                                                  libmesh/espconn_mesh.o
espconn_regist_sentcb                             liblwip/espconn.o
                                                  libsmartconfig/sc_esptouch.o
                                                  libsmartconfig/sc_airkiss.o
                                                  libmesh/espconn_mesh.o
espconn_regist_time                               liblwip/espconn.o
                                                  libmesh/espconn_mesh.o
espconn_regist_write_finish                       liblwip/espconn.o
espconn_secure_accept                             libssl/espconn_secure.o
espconn_secure_ca_disable                         libssl/espconn_secure.o
espconn_secure_ca_enable                          libssl/espconn_secure.o
espconn_secure_cert_req_disable                   libssl/espconn_secure.o
espconn_secure_cert_req_enable                    libssl/espconn_secure.o
espconn_secure_connect                            libssl/espconn_secure.o
espconn_secure_delete                             libssl/espconn_secure.o
espconn_secure_disconnect                         libssl/espconn_secure.o
espconn_secure_get_size                           libssl/espconn_secure.o
                                                  libssl/espconn_ssl.o
espconn_secure_send                               libssl/espconn_secure.o
espconn_secure_sent                               libssl/espconn_secure.o
espconn_secure_set_default_certificate            libssl/espconn_secure.o
espconn_secure_set_default_private_key            libssl/espconn_secure.o
espconn_secure_set_size                           libssl/espconn_secure.o
espconn_send                                      liblwip/espconn.o
espconn_sendto                                    liblwip/espconn.o
espconn_sent                                      liblwip/espconn.o
                                                  libsmartconfig/sc_esptouch.o
                                                  libsmartconfig/sc_airkiss.o
                                                  libmesh/espconn_mesh.o
espconn_sent_packet                               libssl/espconn_ssl.o
espconn_set_keepalive                             liblwip/espconn.o
espconn_set_opt                                   liblwip/espconn.o
                                                  libmesh/espconn_mesh.o
espconn_ssl_client                                libssl/espconn_ssl.o
                                                  libssl/espconn_secure.o
espconn_ssl_delete                                libssl/espconn_ssl.o
                                                  libssl/espconn_secure.o
espconn_ssl_disconnect                            libssl/espconn_ssl.o
                                                  libssl/espconn_secure.o
espconn_ssl_read                                  libssl/espconn_ssl.o
                                                  libssl/ssl_tls1.o
espconn_ssl_read_param_from_flash                 libssl/espconn_ssl.o
                                                  libssl/ssl_crypto_misc.o
espconn_ssl_sent                                  libssl/espconn_ssl.o
                                                  libssl/espconn_secure.o
espconn_ssl_server                                libssl/espconn_ssl.o
                                                  libssl/espconn_secure.o
espconn_tcp_client                                liblwip/espconn_tcp.o
                                                  liblwip/espconn.o
espconn_tcp_delete                                liblwip/espconn_tcp.o
                                                  liblwip/espconn.o
espconn_tcp_disconnect                            liblwip/espconn_tcp.o
                                                  liblwip/espconn.o
espconn_tcp_get_max_con                           liblwip/espconn.o
espconn_tcp_get_max_con_allow                     liblwip/espconn.o
                                                  liblwip/espconn_tcp.o
espconn_tcp_get_max_retran                        liblwip/espconn.o
                                                  libmesh/espconn_mesh.o
espconn_tcp_get_max_syn                           liblwip/espconn.o
                                                  libmesh/espconn_mesh.o
espconn_tcp_get_mss                               liblwip/espconn.o
espconn_tcp_get_wnd                               liblwip/espconn.o
                                                  libmesh/espconn_mesh.o
espconn_tcp_memp_free                             liblwip/espconn_tcp.o
espconn_tcp_sent                                  liblwip/espconn_tcp.o
espconn_tcp_server                                liblwip/espconn_tcp.o
                                                  liblwip/espconn.o
espconn_tcp_set_buf_count                         liblwip/espconn.o
                                                  liblwip/espconn_tcp.o
espconn_tcp_set_max_con                           liblwip/espconn.o
                                                  libmesh/espconn_mesh.o
espconn_tcp_set_max_con_allow                     liblwip/espconn.o
espconn_tcp_set_max_retran                        liblwip/espconn.o
                                                  libmesh/espconn_mesh.o
espconn_tcp_set_max_syn                           liblwip/espconn.o
                                                  libmesh/espconn_mesh.o
espconn_tcp_set_wnd                               liblwip/espconn.o
                                                  libmesh/espconn_mesh.o
espconn_tcp_write                                 liblwip/espconn_tcp.o
                                                  liblwip/espconn.o
espconn_udp_disconnect                            liblwip/espconn_udp.o
                                                  liblwip/espconn.o
espconn_udp_sendto                                liblwip/espconn_udp.o
                                                  liblwip/espconn.o
espconn_udp_sent                                  liblwip/espconn_udp.o
                                                  liblwip/espconn.o
espconn_udp_server                                liblwip/espconn_udp.o
                                                  liblwip/espconn.o
espconn_unlock_recv                               liblwip/espconn_tcp.o
esptouch_set_timeout                              libsmartconfig/sc_sniffer.o
etharp_cleanup_netif                              liblwip/etharp.o
                                                  liblwip/netif.o
etharp_find_addr                                  liblwip/etharp.o
                                                  libmesh/espconn_mesh.o
etharp_output                                     liblwip/etharp.o
                                                  libmain/eagle_lwip_if.o
etharp_query                                      liblwip/etharp.o
                                                  liblwip/dhcp.o
etharp_request                                    liblwip/etharp.o
                                                  liblwip/netif.o
etharp_tmr                                        liblwip/etharp.o
                                                  liblwip/timers.o
ethbroadcast                                      liblwip/etharp.o
                                                  libwpa/wpa_auth.o
                                                  libpp/wdev.o
                                                  libnet80211/wl_cnx.o
                                                  libnet80211/ieee80211_scan.o
                                                  libnet80211/ieee80211_output.o
                                                  libnet80211/ieee80211.o
                                                  libnet80211/ieee80211_hostap.o
                                                  libmain/user_interface.o
ethernet_input                                    liblwip/etharp.o
                                                  libmain/eagle_lwip_if.o
ethzero                                           liblwip/etharp.o
ets_bzero                                         libwps/wps.o
                                                  libwpa/wpa.o
                                                  libwpa/wpa_main.o
                                                  libwpa/wpa_auth.o
                                                  libwpa/ap_config.o
                                                  libwpa2/eap.o
                                                  libpp/trc.o
                                                  libpp/pm.o
                                                  libnet80211/wl_cnx.o
                                                  libnet80211/wl_chm.o
                                                  libnet80211/ieee80211_sta.o
                                                  libnet80211/ieee80211_scan.o
                                                  libnet80211/ieee80211_input.o
                                                  libmain/user_interface.o
                                                  libmain/app_main.o
                                                  liblwip/ping.o
                                                  liblwip/espconn_tcp.o
                                                  liblwip/dhcpserver.o
                                                  libespnow/simple_pair.o
                                                  libespnow/manatick.o
ets_delay_us                                      libwpa/wpa.o
                                                  libpp/wdev.o
                                                  libpp/lmac.o
                                                  libphy/phy_sleep.o
                                                  libphy/phy_chip_v6.o
                                                  libphy/phy_chip_v6_cal.o
                                                  libphy/phy_chip_v6_ana.o
                                                  libnet80211/ieee80211_hostap.o
                                                  libmain/user_interface.o
                                                  libmain/mem_manager.o
                                                  libmain/app_main.o
                                                  libespnow/simple_pair.o
ets_get_cpu_frequency                             libmain/user_interface.o
ets_install_putc1                                 libmain/app_main.o
ets_intr_lock                                     libpp/wdev.o
                                                  libpp/pp.o
                                                  libpp/pm.o
                                                  libpp/pm_for_bcn_only_mode.o
                                                  libpp/lmac.o
                                                  libpp/if_hwctrl.o
                                                  libpp/esf_buf.o
                                                  libnet80211/wl_cnx.o
                                                  libnet80211/wl_chm.o
                                                  libnet80211/ieee80211_scan.o
                                                  libnet80211/ieee80211_hostap.o
                                                  libmain/user_interface.o
                                                  libmain/mem_manager.o
                                                  libmain/ets_timer.o
                                                  libmain/app_main.o
ets_intr_unlock                                   libpp/wdev.o
                                                  libpp/pp.o
                                                  libpp/pm.o
                                                  libpp/pm_for_bcn_only_mode.o
                                                  libpp/lmac.o
                                                  libpp/if_hwctrl.o
                                                  libpp/esf_buf.o
                                                  libnet80211/wl_cnx.o
                                                  libnet80211/wl_chm.o
                                                  libnet80211/ieee80211_scan.o
                                                  libnet80211/ieee80211_hostap.o
                                                  libmain/user_interface.o
                                                  libmain/mem_manager.o
                                                  libmain/ets_timer.o
ets_isr_attach                                    libmain/ets_timer.o
                                                  libmain/app_main.o
ets_isr_mask                                      libmain/user_interface.o
ets_isr_unmask                                    libpwm/pwm.o
                                                  libmain/ets_timer.o
                                                  libmain/app_main.o
ets_memcmp                                        libwps/wps_registrar.o
                                                  libwps/wps.o
                                                  libwps/wps_enrollee.o
                                                  libwps/wps_attr_process.o
                                                  libwpa/wpa.o
                                                  libwpa/wpa_common.o
                                                  libwpa/wpa_auth.o
                                                  libwpa/ap_config.o
                                                  libwpa2/x509v3.o
                                                  libwpa2/tlsv1_server_write.o
                                                  libwpa2/tlsv1_server_read.o
                                                  libwpa2/tlsv1_record.o
                                                  libwpa2/tlsv1_cred.o
                                                  libwpa2/tlsv1_client_write.o
                                                  libwpa2/tlsv1_client_read.o
                                                  libwpa2/mschapv2.o
                                                  libwpa2/eap_peap.o
                                                  libssl/ssl_tls1_svr.o
                                                  libssl/ssl_tls1.o
                                                  libssl/ssl_asn1.o
                                                  libsmartconfig/sc_sniffer.o
                                                  libsmartconfig/sc_esptouch.o
                                                  libsmartconfig/sc_airkiss.o
                                                  libpp/wdev.o
                                                  libpp/trc.o
                                                  libpp/pp.o
                                                  libpp/pm.o
                                                  libnet80211/wl_cnx.o
                                                  libnet80211/ieee80211_sta.o
                                                  libnet80211/ieee80211_scan.o
                                                  libnet80211/ieee80211_input.o
                                                  libnet80211/ieee80211_hostap.o
                                                  libnet80211/ieee80211_action_vendor.o
                                                  libmesh/espconn_mesh.o
                                                  libmain/user_interface.o
                                                  liblwip/dhcpserver.o
                                                  libespnow/simple_pair.o
                                                  libespnow/manatick.o
                                                  libcrypto/dh_groups.o
ets_memcpy                                        libwps/wps_registrar.o
                                                  libwps/wps.o
                                                  libwps/wps_enrollee.o
                                                  libwps/wps_dev_attr.o
                                                  libwps/wps_common.o
                                                  libwps/wps_attr_process.o
                                                  libwps/wps_attr_build.o
                                                  libwpa/wpas_glue.o
                                                  libwpa/wpa.o
                                                  libwpa/wpa_main.o
                                                  libwpa/wpa_common.o
                                                  libwpa/wpabuf.o
                                                  libwpa/wpa_auth.o
                                                  libwpa/wpa_auth_ie.o
                                                  libwpa/os_xtensa.o
                                                  libwpa/common.o
                                                  libwpa/ap_config.o
                                                  libwpa2/x509v3.o
                                                  libwpa2/tlsv1_server_write.o
                                                  libwpa2/tlsv1_server_read.o
                                                  libwpa2/tlsv1_server.o
                                                  libwpa2/tlsv1_record.o
                                                  libwpa2/tlsv1_cred.o
                                                  libwpa2/tlsv1_client_write.o
                                                  libwpa2/tlsv1_client_read.o
                                                  libwpa2/tlsv1_client.o
                                                  libwpa2/pkcs5.o
                                                  libwpa2/pkcs1.o
                                                  libwpa2/eap_ttls.o
                                                  libwpa2/eap_tls.o
                                                  libwpa2/eap_tls_common.o
                                                  libwpa2/eap_peap.o
                                                  libwpa2/eap_peap_common.o
                                                  libwpa2/eap.o
                                                  libwpa2/eap_mschapv2.o
                                                  libssl/ssl_x509.o
                                                  libssl/ssl_tls1_svr.o
                                                  libssl/ssl_tls1.o
                                                  libssl/ssl_tls1_clnt.o
                                                  libssl/ssl_rsa.o
                                                  libssl/ssl_md5.o
                                                  libssl/ssl_loader.o
                                                  libssl/ssl_hmac.o
                                                  libssl/ssl_bigint.o
                                                  libssl/ssl_asn1.o
                                                  libssl/ssl_aes.o
                                                  libssl/sha512.o
                                                  libssl/sha384.o
                                                  libssl/sha256.o
                                                  libssl/espconn_ssl.o
                                                  libssl/espconn_secure.o
                                                  libsmartconfig/sc_sniffer.o
                                                  libsmartconfig/sc_esptouch.o
                                                  libsmartconfig/sc_airkiss.o
                                                  libpwm/pwm.o
                                                  libpp/wdev.o
                                                  libpp/trc.o
                                                  libpp/pm.o
                                                  libpp/if_hwctrl.o
                                                  libnet80211/wl_cnx.o
                                                  libnet80211/ieee80211_sta.o
                                                  libnet80211/ieee80211_scan.o
                                                  libnet80211/ieee80211_proto.o
                                                  libnet80211/ieee80211_phy.o
                                                  libnet80211/ieee80211_output.o
                                                  libnet80211/ieee80211.o
                                                  libnet80211/ieee80211_mesh_quick.o
                                                  libnet80211/ieee80211_input.o
                                                  libnet80211/ieee80211_ie_vendor.o
                                                  libnet80211/ieee80211_hostap.o
                                                  libnet80211/ieee80211_action_vendor.o
                                                  libmesh/espconn_mesh.o
                                                  libmain/user_interface.o
                                                  libmain/mem_manager.o
                                                  libmain/eagle_lwip_if.o
                                                  libmain/app_main.o
                                                  liblwip/tcp_out.o
                                                  liblwip/tcp.o
                                                  liblwip/pbuf.o
                                                  liblwip/mdns.o
                                                  liblwip/ip.o
                                                  liblwip/icmp.o
                                                  liblwip/etharp.o
                                                  liblwip/espconn_tcp.o
                                                  liblwip/espconn.o
                                                  liblwip/espconn_buf.o
                                                  liblwip/dns.o
                                                  liblwip/dhcpserver.o
                                                  libespnow/simple_pair.o
                                                  libespnow/manatick.o
                                                  libcrypto/sha256.o
                                                  libcrypto/sha256-internal.o
                                                  libcrypto/ms_funcs.o
                                                  libcrypto/md4-internal.o
                                                  libcrypto/des-internal.o
                                                  libcrypto/crypto_internal.o
                                                  libcrypto/crypto_internal-cipher.o
                                                  libcrypto/aes-wrap.o
                                                  libcrypto/aes-cbc.o
ets_memmove                                       libwpa2/tlsv1_server_write.o
                                                  libwpa2/tlsv1_record.o
                                                  libwpa2/pkcs1.o
                                                  libcrypto/ms_funcs.o
ets_memset                                        libwps/wps_registrar.o
                                                  libwps/wps.o
                                                  libwps/wps_enrollee.o
                                                  libwps/wps_common.o
                                                  libwps/wps_attr_process.o
                                                  libwps/wps_attr_parse.o
                                                  libwps/wps_attr_build.o
                                                  libwpa/wpas_glue.o
                                                  libwpa/wpa.o
                                                  libwpa/wpa_ie.o
                                                  libwpa/wpa_common.o
                                                  libwpa/wpabuf.o
                                                  libwpa/wpa_auth.o
                                                  libwpa/wpa_auth_ie.o
                                                  libwpa2/x509v3.o
                                                  libwpa2/tlsv1_server_read.o
                                                  libwpa2/tlsv1_server.o
                                                  libwpa2/tlsv1_record.o
                                                  libwpa2/tlsv1_client_write.o
                                                  libwpa2/tlsv1_client.o
                                                  libwpa2/rsa.o
                                                  libwpa2/pkcs5.o
                                                  libwpa2/pkcs1.o
                                                  libwpa2/ext_password.o
                                                  libwpa2/eap_ttls.o
                                                  libwpa2/eap_tls_common.o
                                                  libwpa2/eap_peap.o
                                                  libwpa2/eap.o
                                                  libwpa2/eap_mschapv2.o
                                                  libwpa2/base64.o
                                                  libwpa2/asn1.o
                                                  libssl/ssl_tls1.o
                                                  libssl/ssl_tls1_clnt.o
                                                  libssl/ssl_sha1.o
                                                  libssl/ssl_rsa.o
                                                  libssl/ssl_hmac.o
                                                  libssl/ssl_bigint.o
                                                  libssl/ssl_asn1.o
                                                  libsmartconfig/sc_esptouch.o
                                                  libsmartconfig/sc_airkiss.o
                                                  libpwm/pwm.o
                                                  libpp/esf_buf.o
                                                  libnet80211/wl_cnx.o
                                                  libnet80211/ieee80211_power.o
                                                  libnet80211/ieee80211_output.o
                                                  libnet80211/ieee80211_input.o
                                                  libnet80211/ieee80211_ht.o
                                                  libmesh/espconn_mesh.o
                                                  libmain/user_interface.o
                                                  libmain/mem_manager.o
                                                  libmain/app_main.o
                                                  liblwip/udp.o
                                                  liblwip/tcp.o
                                                  liblwip/sntp.o
                                                  liblwip/raw.o
                                                  liblwip/mdns.o
                                                  liblwip/ip.o
                                                  liblwip/espconn.o
                                                  liblwip/espconn_buf.o
                                                  liblwip/dns.o
                                                  liblwip/dhcpserver.o
                                                  liblwip/dhcp.o
                                                  libcrypto/sha256.o
                                                  libcrypto/ms_funcs.o
                                                  libcrypto/md4-internal.o
                                                  libcrypto/des-internal.o
                                                  libcrypto/crypto_internal.o
                                                  libcrypto/aes-wrap.o
                                                  libcrypto/aes-internal-enc.o
                                                  libcrypto/aes-internal-dec.o
ets_post                                          libwpa/wpa_main.o
                                                  libssl/espconn_ssl.o
                                                  libpp/pp.o
                                                  libpp/pm.o
                                                  libpp/lmac.o
                                                  libnet80211/wl_cnx.o
                                                  libnet80211/ieee80211_sta.o
                                                  libnet80211/ieee80211_input.o
                                                  libnet80211/ieee80211_hostap.o
                                                  libmain/user_interface.o
                                                  libmain/ets_timer.o
                                                  liblwip/espconn_tcp.o
ets_printf                                        libwpa/wpabuf.o
                                                  libpp/wdev.o
                                                  libpp/pp.o
                                                  libpp/pm.o
                                                  libpp/pm_for_bcn_only_mode.o
                                                  libpp/lmac.o
                                                  libmain/mem_manager.o
                                                  libmain/ets_timer.o
                                                  libmain/app_main.o
                                                  libespnow/manatick.o
ets_putc                                          libssl/ssl_bigint.o
ets_run                                           libmain/app_main.o
ets_set_idle_cb                                   libpp/pm.o
                                                  libpp/pm_for_bcn_only_mode.o
ets_snprintf                                      libmain/eagle_lib.o
                                                  libmesh/espconn_mesh.o
ets_sprintf                                       libmain/eagle_lib.o
                                                  libwps/wps.o
                                                  libwpa2/x509v3.o
                                                  libwpa2/eap_tls_common.o
                                                  libwpa2/asn1.o
                                                  libmain/user_interface.o
                                                  liblwip/sntp.o
                                                  liblwip/mdns.o
ets_strcat                                        libmain/eagle_lib.o
                                                  liblwip/mdns.o
ets_strchr                                        libmain/eagle_lib.o
                                                  libwps/wps_common.o
                                                  libwpa2/eap_tls_common.o
                                                  libwpa2/eap_mschapv2.o
ets_strcmp                                        libwpa2/ext_password.o
                                                  libwpa2/eap.o
                                                  libssl/ssl_asn1.o
ets_strcpy                                        libssl/ssl_tls1.o
                                                  libmain/user_interface.o
                                                  liblwip/mdns.o
ets_strdup                                        libwpa/os_xtensa.o
                                                  libwps/wps_registrar.o
                                                  libwps/wps_dev_attr.o
                                                  libwpa2/x509v3.o
                                                  libwpa2/eap_tls_common.o
ets_strlen                                        libwps/wps_dev_attr.o
                                                  libwps/wps_common.o
                                                  libwpa/wpa.o
                                                  libwpa/os_xtensa.o
                                                  libwpa/common.o
                                                  libwpa/ap_config.o
                                                  libwpa2/x509v3.o
                                                  libwpa2/tlsv1_cred.o
                                                  libwpa2/tls_internal.o
                                                  libwpa2/pkcs5.o
                                                  libwpa2/eap_tls_common.o
                                                  libwpa2/eap_peap_common.o
                                                  libssl/ssl_tls1.o
                                                  libssl/ssl_loader.o
                                                  libssl/ssl_bigint.o
                                                  libsmartconfig/sc_esptouch.o
                                                  libsmartconfig/sc_airkiss.o
                                                  libnet80211/wl_cnx.o
                                                  libnet80211/ieee80211_scan.o
                                                  libnet80211/ieee80211_hostap.o
                                                  libmesh/espconn_mesh.o
                                                  libmain/user_interface.o
                                                  libmain/mem_manager.o
                                                  libmain/eagle_lib.o
                                                  liblwip/pbuf.o
                                                  liblwip/mdns.o
                                                  liblwip/dns.o
                                                  liblwip/dhcp.o
                                                  libcrypto/sha256.o
ets_strncmp                                       libwpa2/eap.o
                                                  libwpa2/eap_mschapv2.o
                                                  libnet80211/ieee80211_scan.o
                                                  libmain/user_interface.o
ets_strncpy                                       libwps/wps.o
                                                  libwpa2/eap.o
                                                  libnet80211/ieee80211_scan.o
                                                  liblwip/mdns.o
ets_strrchr                                       libmain/eagle_lib.o
                                                  libwpa/common.o
ets_strstr                                        libwps/wps_common.o
                                                  libwpa2/eap_tls_common.o
                                                  libwpa2/eap_peap.o
                                                  libssl/ssl_loader.o
                                                  libssl/ssl_crypto_misc.o
                                                  libssl/espconn_ssl.o
                                                  libmesh/espconn_mesh.o
ets_task                                          libssl/espconn_ssl.o
                                                  libpp/pp.o
                                                  libpp/pm.o
                                                  libmain/user_interface.o
                                                  libmain/ets_timer.o
                                                  libmain/eagle_lwip_if.o
                                                  liblwip/espconn_tcp.o
ets_timer_arm_new                                 libmain/ets_timer.o
                                                  libwps/wps.o
                                                  libwpa/wpa.o
                                                  libwpa/wpa_main.o
                                                  libsmartconfig/sc_sniffer.o
                                                  libsmartconfig/sc_esptouch.o
                                                  libsmartconfig/sc_airkiss.o
                                                  libpp/pp.o
                                                  libpp/pm.o
                                                  libpp/pm_for_bcn_only_mode.o
                                                  libpp/if_hwctrl.o
                                                  libnet80211/wl_cnx.o
                                                  libnet80211/wl_chm.o
                                                  libnet80211/ieee80211_sta.o
                                                  libnet80211/ieee80211_scan.o
                                                  libnet80211/ieee80211_proto.o
                                                  libnet80211/ieee80211_hostap.o
                                                  libmesh/espconn_mesh.o
                                                  libmain/user_interface.o
                                                  libmain/time.o
                                                  libmain/app_main.o
                                                  liblwip/sntp.o
                                                  liblwip/mdns.o
                                                  libespnow/simple_pair.o
ets_timer_disarm                                  libmain/ets_timer.o
                                                  libwps/wps.o
                                                  libwpa/wpa.o
                                                  libwpa/wpa_main.o
                                                  libsmartconfig/sc_sniffer.o
                                                  libsmartconfig/sc_esptouch.o
                                                  libsmartconfig/sc_airkiss.o
                                                  libpp/pp.o
                                                  libpp/pm.o
                                                  libpp/pm_for_bcn_only_mode.o
                                                  libpp/if_hwctrl.o
                                                  libnet80211/wl_cnx.o
                                                  libnet80211/wl_chm.o
                                                  libnet80211/ieee80211_sta.o
                                                  libnet80211/ieee80211_scan.o
                                                  libnet80211/ieee80211_proto.o
                                                  libnet80211/ieee80211_hostap.o
                                                  libmesh/espconn_mesh.o
                                                  libmain/user_interface.o
                                                  libmain/time.o
                                                  libmain/app_main.o
                                                  liblwip/sntp.o
                                                  liblwip/mdns.o
                                                  libespnow/simple_pair.o
ets_timer_done                                    libmain/ets_timer.o
ets_timer_handler_isr                             libmain/ets_timer.o
ets_timer_init                                    libmain/ets_timer.o
                                                  libmain/app_main.o
ets_timer_setfn                                   libmain/ets_timer.o
                                                  libwps/wps.o
                                                  libwpa/wpa.o
                                                  libwpa/wpa_main.o
                                                  libsmartconfig/sc_sniffer.o
                                                  libsmartconfig/sc_esptouch.o
                                                  libsmartconfig/sc_airkiss.o
                                                  libpp/pp.o
                                                  libpp/pm.o
                                                  libpp/pm_for_bcn_only_mode.o
                                                  libpp/if_hwctrl.o
                                                  libnet80211/wl_cnx.o
                                                  libnet80211/wl_chm.o
                                                  libnet80211/ieee80211_sta.o
                                                  libnet80211/ieee80211_scan.o
                                                  libnet80211/ieee80211_proto.o
                                                  libnet80211/ieee80211_hostap.o
                                                  libmesh/espconn_mesh.o
                                                  libmain/user_interface.o
                                                  libmain/time.o
                                                  libmain/app_main.o
                                                  liblwip/sntp.o
                                                  liblwip/mdns.o
                                                  libespnow/simple_pair.o
ets_update_cpu_frequency                          libwps/wps_enrollee.o
                                                  libwps/wps_attr_build.o
                                                  libwpa2/rsa.o
                                                  libpp/pm.o
                                                  libpp/pm_for_bcn_only_mode.o
                                                  libphy/phy_chip_v6.o
                                                  libmain/user_interface.o
ets_vprintf                                       libmain/user_interface.o
ets_vsnprintf                                     libmain/eagle_lib.o
                                                  libwps/wps_registrar.o
                                                  libwps/wps.o
                                                  libwps/wps_common.o
                                                  libwps/uuid.o
                                                  libwpa/wpa_debug.o
                                                  libwpa/wpabuf.o
                                                  libwpa2/eap_ttls.o
                                                  libwpa2/eap_peap.o
ets_vsprintf                                      libmain/eagle_lib.o
ets_write_char                                    libmain/user_interface.o
event_TaskQueue                                   libmain/user_interface.o
event_cb                                          libmain/user_interface.o
                                                  libwpa/wpa_main.o
                                                  libnet80211/wl_cnx.o
                                                  libnet80211/ieee80211_sta.o
                                                  libnet80211/ieee80211_hostap.o
ext_password_alloc                                libwpa2/ext_password.o
ext_password_deinit                               libwpa2/ext_password.o
ext_password_free                                 libwpa2/ext_password.o
ext_password_get                                  libwpa2/ext_password.o
ext_password_init                                 libwpa2/ext_password.o
finished_digest                                   libssl/ssl_tls1.o
                                                  libssl/ssl_tls1_svr.o
                                                  libssl/ssl_tls1_clnt.o
flash_data_check                                  libmain/app_main.o
flash_gd25q32c_enable_QIO_mode                    libmain/spi_flash.o
                                                  libmain/app_main.o
flash_gd25q32c_read_status                        libmain/spi_flash.o
flash_gd25q32c_write_status                       libmain/spi_flash.o
flash_read                                        libmain/spi_flash.o
flashchip                                         libpp/pp.o
                                                  libpp/pm.o
                                                  libpp/pm_for_bcn_only_mode.o
                                                  libmain/user_interface.o
                                                  libmain/spi_flash.o
                                                  libmain/mem_manager.o
                                                  libmain/app_main.o
fpm_allow_tx                                      libpp/pm_for_bcn_only_mode.o
                                                  libpp/pp.o
                                                  libnet80211/ieee80211_scan.o
                                                  libmain/user_interface.o
fpm_attach                                        libpp/pm_for_bcn_only_mode.o
                                                  libmain/app_main.o
fpm_auto_sleep_set_in_null_mode                   libpp/pm_for_bcn_only_mode.o
fpm_close                                         libpp/pm_for_bcn_only_mode.o
                                                  libpp/pm.o
                                                  libnet80211/ieee80211_hostap.o
fpm_do_sleep                                      libpp/pm_for_bcn_only_mode.o
                                                  libnet80211/ieee80211_hostap.o
fpm_do_wakeup                                     libpp/pm_for_bcn_only_mode.o
                                                  libpp/pp.o
                                                  libnet80211/ieee80211_scan.o
                                                  libmain/user_interface.o
fpm_get_slp_type                                  libpp/pm_for_bcn_only_mode.o
fpm_is_open                                       libpp/pm_for_bcn_only_mode.o
                                                  libpp/pm.o
                                                  libnet80211/ieee80211_hostap.o
fpm_open                                          libpp/pm_for_bcn_only_mode.o
                                                  libnet80211/ieee80211_hostap.o
fpm_rf_is_closed                                  libpp/pm_for_bcn_only_mode.o
                                                  libpp/pp.o
fpm_set_type_from_upper                           libpp/pm_for_bcn_only_mode.o
fpm_set_wakeup_cb                                 libpp/pm_for_bcn_only_mode.o
freq_trace_enable                                 libmain/app_main.o
gScanStruct                                       libnet80211/ieee80211_scan.o
                                                  libpp/pp.o
                                                  libnet80211/wl_cnx.o
                                                  libnet80211/ieee80211_sta.o
                                                  libnet80211/ieee80211_hostap.o
g_ET_TimeOut                                      libsmartconfig/sc_esptouch.o
                                                  libsmartconfig/sc_sniffer.o
g_SC_Select                                       libsmartconfig/sc_sniffer.o
g_cnx_probe_rc_list_cb                            libnet80211/wl_cnx.o
g_ic                                              libnet80211/ieee80211.o
                                                  libwps/wps.o
                                                  libwpa/wpa.o
                                                  libwpa/wpa_main.o
                                                  libwpa/wpa_auth.o
                                                  libwpa/ap_config.o
                                                  libwpa2/eap.o
                                                  libpp/wdev.o
                                                  libpp/trc.o
                                                  libpp/pp.o
                                                  libpp/pm.o
                                                  libpp/if_hwctrl.o
                                                  libnet80211/wl_cnx.o
                                                  libnet80211/wl_chm.o
                                                  libnet80211/ieee80211_sta.o
                                                  libnet80211/ieee80211_scan.o
                                                  libnet80211/ieee80211_rfid.o
                                                  libnet80211/ieee80211_regdomain.o
                                                  libnet80211/ieee80211_proto.o
                                                  libnet80211/ieee80211_power.o
                                                  libnet80211/ieee80211_phy.o
                                                  libnet80211/ieee80211_output.o
                                                  libnet80211/ieee80211_mesh_quick.o
                                                  libnet80211/ieee80211_input.o
                                                  libnet80211/ieee80211_ht.o
                                                  libnet80211/ieee80211_hostap.o
                                                  libnet80211/ieee80211_crypto_tkip.o
                                                  libnet80211/ieee80211_crypto.o
                                                  libnet80211/ieee80211_action_vendor.o
                                                  libmesh/espconn_mesh.o
                                                  libmain/user_interface.o
                                                  libmain/eagle_lwip_if.o
                                                  libmain/app_main.o
                                                  libespnow/simple_pair.o
                                                  libespnow/manatick.o
                                                  libespnow/espnow.o
g_phyFuns                                         libphy/phy_chip_v6.o
                                                  libpp/pm.o
                                                  libphy/phy_sleep.o
                                                  libphy/phy_chip_v6_cal.o
                                                  libphy/phy_chip_v6_ana.o
gen_rx_gain_table                                 libphy/phy_chip_v6.o
generate_authenticator_response                   libcrypto/ms_funcs.o
                                                  libwpa2/mschapv2.o
                                                  libwpa2/eap_mschapv2.o
generate_authenticator_response_pwhash            libcrypto/ms_funcs.o
                                                  libwpa2/mschapv2.o
generate_master_secret                            libssl/ssl_tls1.o
                                                  libssl/ssl_tls1_svr.o
                                                  libssl/ssl_tls1_clnt.o
generate_nt_response                              libcrypto/ms_funcs.o
                                                  libwpa2/mschapv2.o
                                                  libwpa2/eap_mschapv2.o
generate_nt_response_pwhash                       libcrypto/ms_funcs.o
                                                  libwpa2/mschapv2.o
getPcb                                            liblwip/mdns.o
get_adc_rand                                      libphy/phy_chip_v6.o
                                                  libphy/phy_sleep.o
get_asn1_length                                   libssl/ssl_asn1.o
                                                  libssl/ssl_x509.o
get_asymetric_start_key                           libcrypto/ms_funcs.o
                                                  libwpa2/eap_mschapv2.o
get_chip_version                                  libphy/phy_sleep.o
                                                  libphy/phy_chip_v6.o
get_data_from_rtc                                 libphy/phy_chip_v6.o
                                                  libmain/app_main.o
get_fcc_1m2m_pwr_offset                           libphy/phy_chip_v6_cal.o
get_file                                          libssl/ssl_crypto_misc.o
                                                  libssl/ssl_loader.o
get_fpm_auto_sleep_flag                           libpp/pm_for_bcn_only_mode.o
                                                  libmain/user_interface.o
get_iav_key                                       libnet80211/ieee80211_action_vendor.o
get_master_key                                    libcrypto/ms_funcs.o
                                                  libwpa2/mschapv2.o
                                                  libwpa2/eap_mschapv2.o
get_noisefloor_sat                                libphy/phy_chip_v6.o
get_phy_target_power                              libphy/phy_chip_v6.o
                                                  libphy/phy_chip_v6_cal.o
get_pwctrl_correct                                libphy/phy_chip_v6_cal.o
get_pwm_date                                      libpwm/pwm.o
get_pwm_version                                   libpwm/pwm.o
get_random                                        libssl/ssl_crypto_misc.o
                                                  libssl/ssl_tls1_svr.o
                                                  libssl/ssl_tls1.o
                                                  libssl/ssl_tls1_clnt.o
get_random_NZ                                     libssl/ssl_crypto_misc.o
                                                  libssl/ssl_rsa.o
get_rf_gain_qdb                                   libphy/phy_chip_v6_cal.o
                                                  libphy/phy_chip_v6.o
get_sar_dout                                      libphy/phy_chip_v6_cal.o
get_target_power_offset                           libphy/phy_chip_v6_cal.o
get_vdd33_offset                                  libphy/phy_chip_v6.o
getrealtimeofday                                  libmain/time.o
gettimeofday                                      /mnt/hdd/projects-3rdparty/xtensa/esp-open-sdk/xtensa-lx106-elf/bin/../lib/gcc/xtensa-lx106-elf/4.8.5/../../../../xtensa-lx106-elf/lib/libc.a(lib_a-sysgettod.o)
                                                  libssl/ssl_x509.o
                                                  libssl/espconn_secure.o
                                                  libmain/time.o
gl_sp                                             libespnow/simple_pair.o
gpio_input_get                                    libpp/pm.o
gpio_output_set                                   libphy/phy_sleep.o
                                                  libphy/phy_chip_v6.o
                                                  libnet80211/wl_cnx.o
                                                  libnet80211/ieee80211_hostap.o
                                                  libmain/user_interface.o
gpio_pin_wakeup_disable                           libmain/user_interface.o
gpio_pin_wakeup_enable                            libmain/user_interface.o
hardware_reject                                   libphy/phy_sleep.o
hash_nt_password_hash                             libcrypto/ms_funcs.o
                                                  libwpa2/mschapv2.o
                                                  libwpa2/eap_mschapv2.o
hex2byte                                          libwpa/common.o
hex_finish                                        libssl/ssl_crypto_misc.o
hex_index                                         libssl/ssl_crypto_misc.o
hexstr2bin                                        libwpa/common.o
                                                  libwps/wps_common.o
                                                  libwps/uuid.o
                                                  libwpa/wpa.o
                                                  libwpa2/mschapv2.o
                                                  libwpa2/eap_mschapv2.o
                                                  libmain/user_interface.o
hmac_md5                                          libwpa/wpa_common.o
                                                  libwpa2/tls_internal.o
hmac_md5_vector                                   libwpa2/tls_internal.o
hmac_sha1                                         libwpa/wpa_common.o
                                                  libwpa2/tls_internal.o
                                                  libwpa2/eap_peap.o
hmac_sha1_vector                                  libwpa/wpa_common.o
                                                  libwpa2/tls_internal.o
                                                  libwpa2/eap_peap.o
                                                  libwpa2/eap_peap_common.o
hmac_sha256                                       libcrypto/sha256.o
                                                  libwps/wps_common.o
                                                  libwps/wps_attr_process.o
                                                  libwps/wps_attr_build.o
hmac_sha256_vector                                libcrypto/sha256.o
                                                  libwps/wps_registrar.o
                                                  libwps/wps_enrollee.o
                                                  libwps/wps_common.o
                                                  libwps/wps_attr_process.o
                                                  libwps/wps_attr_build.o
hostap_handle_timer                               libnet80211/ieee80211_hostap.o
hostap_input                                      libnet80211/ieee80211_hostap.o
                                                  libpp/pp.o
hostapd_config_defaults                           libwpa/ap_config.o
hostapd_config_defaults_bss                       libwpa/ap_config.o
hostapd_get_psk                                   libwpa/ap_config.o
                                                  libwpa/wpa_auth.o
hostapd_mac_comp                                  libwpa/ap_config.o
hostapd_mac_comp_empty                            libwpa/ap_config.o
hostapd_maclist_found                             libwpa/ap_config.o
hostapd_rate_found                                libwpa/ap_config.o
hostapd_setup_wpa_psk                             libwpa/ap_config.o
                                                  libnet80211/ieee80211_hostap.o
hostapd_wep_key_cmp                               libwpa/ap_config.o
hostname                                          libmain/eagle_lwip_if.o
                                                  libmain/user_interface.o
ic_bss_info_update                                libpp/if_hwctrl.o
                                                  libnet80211/ieee80211_sta.o
                                                  libnet80211/ieee80211_hostap.o
ic_disable_interface                              libpp/if_hwctrl.o
ic_enable_interface                               libpp/if_hwctrl.o
ic_get_addr                                       libpp/if_hwctrl.o
                                                  libpp/pm.o
ic_get_gtk_alg                                    libpp/if_hwctrl.o
                                                  libpp/pp.o
ic_get_ptk_alg                                    libpp/if_hwctrl.o
                                                  libpp/pp.o
ic_get_rssi                                       libpp/if_hwctrl.o
                                                  libmain/user_interface.o
ic_interface_enabled                              libpp/if_hwctrl.o
ic_interface_is_p2p                               libpp/if_hwctrl.o
ic_is_pure_sta                                    libpp/if_hwctrl.o
                                                  libpp/pp.o
ic_remove_key                                     libpp/if_hwctrl.o
                                                  libwpa/wpa_auth.o
                                                  libespnow/simple_pair.o
                                                  libespnow/manatick.o
ic_set_gtk_alg                                    libpp/if_hwctrl.o
ic_set_key                                        libpp/if_hwctrl.o
                                                  libwpa/wpa_main.o
                                                  libwpa/wpa_auth.o
                                                  libespnow/simple_pair.o
                                                  libespnow/manatick.o
ic_set_opmode                                     libpp/if_hwctrl.o
ic_set_ptk_alg                                    libpp/if_hwctrl.o
ic_set_sta                                        libpp/if_hwctrl.o
                                                  libnet80211/wl_cnx.o
ic_set_vif                                        libpp/if_hwctrl.o
                                                  libnet80211/ieee80211_sta.o
                                                  libnet80211/ieee80211_hostap.o
                                                  libmain/user_interface.o
icmp_dest_unreach                                 liblwip/icmp.o
                                                  liblwip/udp.o
                                                  liblwip/ip.o
icmp_input                                        liblwip/icmp.o
                                                  liblwip/ip.o
idle_timer_reopen_flag                            libpp/pp.o
                                                  libpp/pm.o
ieee80211_action_vendor_spec_attach               libnet80211/ieee80211_action_vendor.o
                                                  libnet80211/ieee80211.o
ieee80211_add_action_vendor_spec_esp              libnet80211/ieee80211_action_vendor.o
ieee80211_add_htcap                               libnet80211/ieee80211_ht.o
                                                  libnet80211/ieee80211_output.o
ieee80211_add_htcap_vendor                        libnet80211/ieee80211_ht.o
                                                  libnet80211/ieee80211_output.o
ieee80211_add_htinfo                              libnet80211/ieee80211_ht.o
                                                  libnet80211/ieee80211_output.o
ieee80211_add_htinfo_vendor                       libnet80211/ieee80211_ht.o
                                                  libnet80211/ieee80211_output.o
ieee80211_add_ie_vendor_esp_freq_annon            libnet80211/ieee80211_ie_vendor.o
                                                  libnet80211/ieee80211_output.o
ieee80211_add_ie_vendor_esp_head                  libnet80211/ieee80211_ie_vendor.o
ieee80211_add_ie_vendor_esp_manufacturer          libnet80211/ieee80211_ie_vendor.o
                                                  libnet80211/ieee80211_output.o
ieee80211_add_ie_vendor_esp_mesh_assoc            libnet80211/ieee80211_ie_vendor.o
                                                  libnet80211/ieee80211_mesh_quick.o
ieee80211_add_ie_vendor_esp_mesh_group            libnet80211/ieee80211_ie_vendor.o
ieee80211_add_ie_vendor_esp_now                   libnet80211/ieee80211_ie_vendor.o
                                                  libespnow/manatick.o
ieee80211_add_ie_vendor_esp_simple_pair           libnet80211/ieee80211_ie_vendor.o
                                                  libnet80211/ieee80211_output.o
                                                  libespnow/simple_pair.o
ieee80211_add_ie_vendor_esp_ssid                  libnet80211/ieee80211_ie_vendor.o
                                                  libnet80211/ieee80211_output.o
ieee80211_add_rates                               libnet80211/ieee80211_output.o
ieee80211_add_xrates                              libnet80211/ieee80211_output.o
ieee80211_alloc_action_vendor_spec                libnet80211/ieee80211_action_vendor.o
ieee80211_alloc_challenge                         libnet80211/ieee80211_input.o
                                                  libnet80211/ieee80211_sta.o
ieee80211_alloc_countryie                         libnet80211/ieee80211_regdomain.o
                                                  libnet80211/ieee80211_output.o
ieee80211_alloc_deauth                            libnet80211/ieee80211_output.o
ieee80211_alloc_proberesp                         libnet80211/ieee80211_output.o
ieee80211_avs_clear_key_idx                       libnet80211/ieee80211_action_vendor.o
                                                  libespnow/simple_pair.o
                                                  libespnow/manatick.o
ieee80211_avs_fetch_key_idx                       libnet80211/ieee80211_action_vendor.o
                                                  libespnow/simple_pair.o
                                                  libespnow/manatick.o
ieee80211_beacon_alloc                            libnet80211/ieee80211_output.o
                                                  libnet80211/ieee80211_hostap.o
ieee80211_chan2ieee                               libnet80211/ieee80211.o
                                                  libnet80211/wl_cnx.o
                                                  libnet80211/wl_chm.o
                                                  libnet80211/ieee80211_sta.o
                                                  libnet80211/ieee80211_scan.o
                                                  libnet80211/ieee80211_output.o
                                                  libnet80211/ieee80211_input.o
                                                  libnet80211/ieee80211_ht.o
                                                  libnet80211/ieee80211_hostap.o
ieee80211_chan_in_regdomain                       libnet80211/ieee80211_regdomain.o
                                                  libmain/user_interface.o
                                                  libmain/app_main.o
ieee80211_crypto_attach                           libnet80211/ieee80211_crypto.o
                                                  libnet80211/ieee80211.o
ieee80211_crypto_available                        libnet80211/ieee80211_crypto.o
ieee80211_crypto_decap                            libnet80211/ieee80211_crypto.o
                                                  libnet80211/ieee80211_sta.o
                                                  libnet80211/ieee80211_hostap.o
ieee80211_crypto_encap                            libnet80211/ieee80211_crypto.o
                                                  libnet80211/ieee80211_output.o
ieee80211_crypto_setkey                           libnet80211/ieee80211_crypto.o
ieee80211_decap                                   libnet80211/ieee80211_input.o
                                                  libnet80211/ieee80211_sta.o
                                                  libnet80211/ieee80211_hostap.o
ieee80211_deliver_data                            libnet80211/ieee80211_input.o
                                                  libnet80211/ieee80211_sta.o
ieee80211_find_channel                            libnet80211/ieee80211.o
                                                  libnet80211/ieee80211_ht.o
ieee80211_find_channel_byieee                     libnet80211/ieee80211.o
ieee80211_freedom_init                            libnet80211/ieee80211.o
ieee80211_freedom_inside_cb                       libnet80211/ieee80211.o
ieee80211_freedom_output                          libnet80211/ieee80211_output.o
                                                  libmain/user_interface.o
ieee80211_getcapinfo                              libnet80211/ieee80211_output.o
ieee80211_getmgtframe                             libnet80211/ieee80211_ets.o
                                                  libpp/pm.o
                                                  libnet80211/ieee80211_output.o
                                                  libnet80211/ieee80211_ht.o
                                                  libnet80211/ieee80211_action_vendor.o
ieee80211_hostap_attach                           libnet80211/ieee80211_hostap.o
ieee80211_ht_attach                               libnet80211/ieee80211_ht.o
                                                  libnet80211/ieee80211.o
                                                  libmain/user_interface.o
ieee80211_ht_node_cleanup                         libnet80211/ieee80211_ht.o
ieee80211_ht_node_init                            libnet80211/ieee80211_ht.o
                                                  libnet80211/ieee80211_sta.o
ieee80211_ht_updateparams                         libnet80211/ieee80211_ht.o
                                                  libnet80211/wl_cnx.o
                                                  libnet80211/ieee80211_sta.o
ieee80211_ieee2mhz                                libnet80211/ieee80211.o
ieee80211_ifattach                                libnet80211/ieee80211.o
                                                  libmain/app_main.o
ieee80211_iserp_rateset                           libnet80211/ieee80211_proto.o
ieee80211_mesh_quick_deinit                       libnet80211/ieee80211_mesh_quick.o
                                                  libmesh/espconn_mesh.o
ieee80211_mesh_quick_get                          libnet80211/ieee80211_mesh_quick.o
                                                  libnet80211/ieee80211_output.o
                                                  libnet80211/ieee80211_hostap.o
                                                  libmesh/espconn_mesh.o
ieee80211_mesh_quick_ie_add                       libnet80211/ieee80211_mesh_quick.o
                                                  libnet80211/ieee80211_output.o
ieee80211_mesh_quick_init                         libnet80211/ieee80211_mesh_quick.o
                                                  libmesh/espconn_mesh.o
ieee80211_mesh_quick_set                          libnet80211/ieee80211_mesh_quick.o
                                                  libmesh/espconn_mesh.o
ieee80211_mgmt_output                             libnet80211/ieee80211_output.o
                                                  libnet80211/ieee80211_ht.o
ieee80211_mhz2ieee                                libnet80211/ieee80211.o
ieee80211_mlme_connect_bss                        libnet80211/ieee80211_proto.o
                                                  libnet80211/wl_cnx.o
ieee80211_node_pwrsave                            libnet80211/ieee80211_power.o
                                                  libnet80211/ieee80211_hostap.o
ieee80211_opcap                                   libnet80211/ieee80211.o
ieee80211_output_pbuf                             libnet80211/ieee80211_output.o
                                                  libwps/wps.o
                                                  libwpa/wpa_main.o
                                                  libwpa/wpa_auth.o
                                                  libwpa2/eap.o
                                                  libnet80211/ieee80211_hostap.o
                                                  libmain/eagle_lwip_if.o
ieee80211_parse_action                            libnet80211/ieee80211_input.o
                                                  libnet80211/ieee80211_sta.o
ieee80211_parse_beacon                            libnet80211/ieee80211_input.o
                                                  libnet80211/ieee80211_sta.o
                                                  libnet80211/ieee80211_hostap.o
ieee80211_parse_htcap                             libnet80211/ieee80211_ht.o
ieee80211_parse_rsn                               libnet80211/ieee80211_input.o
                                                  libnet80211/ieee80211_scan.o
ieee80211_parse_wmeparams                         libnet80211/ieee80211_sta.o
                                                  libnet80211/wl_cnx.o
ieee80211_parse_wpa                               libnet80211/ieee80211_input.o
                                                  libnet80211/ieee80211_scan.o
ieee80211_phy_init                                libnet80211/ieee80211_phy.o
                                                  libmain/user_interface.o
                                                  libmain/app_main.o
ieee80211_phy_type_get                            libnet80211/ieee80211_phy.o
                                                  libnet80211/wl_cnx.o
ieee80211_proto_attach                            libnet80211/ieee80211_proto.o
                                                  libnet80211/ieee80211.o
ieee80211_psq_cleanup                             libnet80211/ieee80211_power.o
ieee80211_psq_init                                libnet80211/ieee80211_power.o
                                                  libnet80211/ieee80211_hostap.o
ieee80211_pwrsave                                 libnet80211/ieee80211_power.o
                                                  libnet80211/ieee80211_output.o
ieee80211_rate_ref_init                           libnet80211/ieee80211.o
ieee80211_recv_action                             libnet80211/ieee80211_action.o
                                                  libnet80211/ieee80211_sta.o
                                                  libnet80211/ieee80211_hostap.o
ieee80211_recv_action_register                    libnet80211/ieee80211_action.o
                                                  libnet80211/ieee80211_ht.o
                                                  libnet80211/ieee80211_action_vendor.o
ieee80211_recv_action_unregister                  libnet80211/ieee80211_action.o
ieee80211_recv_action_vendor_spec                 libnet80211/ieee80211_action_vendor.o
ieee80211_regdomain_attach                        libnet80211/ieee80211_regdomain.o
ieee80211_regdomain_detach                        libnet80211/ieee80211_regdomain.o
ieee80211_rfid_locp_recv                          libnet80211/ieee80211_rfid.o
                                                  libnet80211/ieee80211_hostap.o
ieee80211_rfid_locp_recv_close                    libnet80211/ieee80211_rfid.o
                                                  libmain/user_interface.o
ieee80211_rfid_locp_recv_open                     libnet80211/ieee80211_rfid.o
                                                  libmain/user_interface.o
ieee80211_rfid_locp_recv_reset                    libnet80211/ieee80211_rfid.o
                                                  libnet80211/ieee80211.o
ieee80211_scan_attach                             libnet80211/ieee80211_scan.o
                                                  libnet80211/ieee80211.o
ieee80211_send_action                             libnet80211/ieee80211_action.o
                                                  libnet80211/ieee80211_ht.o
ieee80211_send_action_register                    libnet80211/ieee80211_action.o
                                                  libnet80211/ieee80211_ht.o
ieee80211_send_action_unregister                  libnet80211/ieee80211_action.o
ieee80211_send_action_vendor_spec                 libnet80211/ieee80211_action_vendor.o
                                                  libespnow/simple_pair.o
                                                  libespnow/manatick.o
ieee80211_send_deauth                             libnet80211/ieee80211_output.o
                                                  libnet80211/ieee80211_hostap.o
ieee80211_send_mgmt                               libnet80211/ieee80211_output.o
                                                  libwpa/wpa_main.o
                                                  libnet80211/wl_cnx.o
                                                  libnet80211/ieee80211_sta.o
                                                  libnet80211/ieee80211_proto.o
                                                  libnet80211/ieee80211_hostap.o
                                                  libmain/user_interface.o
ieee80211_send_nulldata                           libnet80211/ieee80211_output.o
                                                  libnet80211/ieee80211_hostap.o
ieee80211_send_probereq                           libnet80211/ieee80211_output.o
                                                  libnet80211/wl_cnx.o
                                                  libnet80211/ieee80211_scan.o
ieee80211_send_proberesp                          libnet80211/ieee80211_output.o
                                                  libnet80211/ieee80211_hostap.o
ieee80211_send_setup                              libnet80211/ieee80211_output.o
                                                  libpp/pm.o
                                                  libnet80211/ieee80211_action_vendor.o
ieee80211_set_shortslottime                       libnet80211/ieee80211_proto.o
                                                  libnet80211/wl_cnx.o
                                                  libnet80211/ieee80211_sta.o
ieee80211_set_tim                                 libnet80211/ieee80211_power.o
                                                  libnet80211/ieee80211_hostap.o
ieee80211_setup_basic_htrates                     libnet80211/ieee80211_ht.o
                                                  libnet80211/ieee80211_sta.o
ieee80211_setup_htrates                           libnet80211/ieee80211_ht.o
                                                  libnet80211/ieee80211_sta.o
ieee80211_setup_rates                             libnet80211/ieee80211_input.o
                                                  libnet80211/ieee80211_sta.o
                                                  libnet80211/ieee80211_hostap.o
ieee80211_setup_rateset                           libnet80211/ieee80211_input.o
                                                  libnet80211/wl_cnx.o
ieee80211_setup_ratetable                         libnet80211/ieee80211_phy.o
ieee80211_sta_new_state                           libnet80211/ieee80211_sta.o
                                                  libwpa/wpa_main.o
                                                  libnet80211/wl_cnx.o
                                                  libnet80211/ieee80211_proto.o
                                                  libmain/user_interface.o
ieee80211_tx_mgt_cb                               libnet80211/ieee80211_output.o
                                                  libnet80211/ieee80211_proto.o
ieee80211_update_regdomain                        libnet80211/ieee80211_regdomain.o
                                                  libnet80211/wl_cnx.o
ieee80211_user_ie_init                            libnet80211/ieee80211.o
ieee80211_wme_initparams                          libnet80211/ieee80211_proto.o
ieee80211_wme_updateparams                        libnet80211/ieee80211_proto.o
                                                  libnet80211/wl_cnx.o
                                                  libnet80211/ieee80211_sta.o
if_ctrl                                           libpp/if_hwctrl.o
igmp_init                                         liblwip/igmp.o
                                                  liblwip/init.o
igmp_input                                        liblwip/igmp.o
                                                  liblwip/ip.o
igmp_joingroup                                    liblwip/igmp.o
                                                  liblwip/mdns.o
                                                  liblwip/espconn_udp.o
igmp_leavegroup                                   liblwip/igmp.o
                                                  liblwip/mdns.o
                                                  liblwip/espconn_udp.o
igmp_lookfor_group                                liblwip/igmp.o
                                                  liblwip/ip.o
igmp_report_groups                                liblwip/igmp.o
                                                  liblwip/netif.o
igmp_start                                        liblwip/igmp.o
                                                  liblwip/netif.o
igmp_stop                                         liblwip/igmp.o
                                                  liblwip/netif.o
igmp_tmr                                          liblwip/igmp.o
                                                  liblwip/timers.o
inc_byte_array                                    libwpa/common.o
                                                  libwpa/wpa.o
                                                  libwpa/wpa_auth.o
                                                  libwpa2/tlsv1_record.o
inet_chksum                                       liblwip/inet_chksum.o
                                                  liblwip/ping.o
                                                  liblwip/ip.o
                                                  liblwip/igmp.o
                                                  liblwip/icmp.o
inet_chksum_pbuf                                  liblwip/inet_chksum.o
                                                  liblwip/icmp.o
inet_chksum_pseudo                                liblwip/inet_chksum.o
                                                  liblwip/udp.o
                                                  liblwip/tcp_out.o
                                                  liblwip/tcp_in.o
inet_chksum_pseudo_partial                        liblwip/inet_chksum.o
info                                              libmain/app_main.o
                                                  libwpa/wpa_main.o
                                                  libnet80211/ieee80211_sta.o
                                                  libnet80211/ieee80211.o
                                                  libnet80211/ieee80211_hostap.o
                                                  libmain/user_interface.o
init_cal_dcoffset                                 libphy/phy_chip_v6_cal.o
                                                  libphy/phy_chip_v6.o
init_rf_no_cal                                    libphy/phy_chip_v6.o
                                                  libphy/phy_chip_v6_ana.o
int_to_bi                                         libssl/ssl_bigint.o
interface_mask                                    libpp/if_hwctrl.o
ip4_addr_isbroadcast                              liblwip/ip_addr.o
                                                  liblwip/udp.o
                                                  liblwip/tcp_in.o
                                                  liblwip/ip.o
                                                  liblwip/icmp.o
                                                  liblwip/etharp.o
                                                  liblwip/espconn_udp.o
ip4_addr_netmask_valid                            liblwip/ip_addr.o
ip_addr_any                                       liblwip/ip_addr.o
                                                  libssl/espconn_ssl.o
                                                  liblwip/sntp.o
                                                  liblwip/ping.o
                                                  liblwip/netio.o
                                                  liblwip/mdns.o
                                                  liblwip/igmp.o
                                                  liblwip/espconn_udp.o
                                                  liblwip/espconn_tcp.o
                                                  liblwip/dns.o
                                                  liblwip/dhcpserver.o
                                                  liblwip/dhcp.o
ip_addr_broadcast                                 liblwip/ip_addr.o
                                                  liblwip/dhcp.o
ip_input                                          liblwip/ip.o
                                                  liblwip/etharp.o
ip_output                                         liblwip/ip.o
                                                  liblwip/tcp_out.o
                                                  liblwip/icmp.o
ip_output_if                                      liblwip/ip.o
                                                  liblwip/udp.o
                                                  liblwip/raw.o
                                                  liblwip/icmp.o
ip_output_if_opt                                  liblwip/ip.o
                                                  liblwip/igmp.o
ip_route                                          liblwip/ip.o
                                                  liblwip/udp.o
                                                  liblwip/tcp_out.o
                                                  liblwip/tcp.o
                                                  liblwip/raw.o
ip_router                                         liblwip/ip.o
ipaddr_addr                                       liblwip/ip_addr.o
                                                  liblwip/mdns.o
                                                  liblwip/dns.o
ipaddr_aton                                       liblwip/ip_addr.o
ipaddr_ntoa                                       liblwip/ip_addr.o
ipaddr_ntoa_r                                     liblwip/ip_addr.o
                                                  liblwip/ping.o
is_nil_uuid                                       libwps/uuid.o
kill_ssl_session                                  libssl/ssl_tls1.o
lldesc_build_chain                                libpp/wdev.o
lldesc_num2link                                   libpp/pp.o
lmacConfMib                                       libpp/lmac.o
                                                  libpp/trc.o
lmacDiscardAgedMSDU                               libpp/lmac.o
                                                  libpp/pp.o
lmacInit                                          libpp/lmac.o
                                                  libmain/app_main.o
lmacInitAc                                        libpp/lmac.o
lmacIsActive                                      libpp/lmac.o
lmacIsIdle                                        libpp/lmac.o
                                                  libpp/pp.o
lmacMSDUAged                                      libpp/lmac.o
                                                  libpp/pp.o
lmacProcessAckTimeout                             libpp/lmac.o
                                                  libpp/wdev.o
lmacProcessAllTxTimeout                           libpp/lmac.o
                                                  libpp/wdev.o
lmacProcessCollision                              libpp/lmac.o
lmacProcessCollisions                             libpp/lmac.o
                                                  libpp/wdev.o
lmacProcessCtsTimeout                             libpp/lmac.o
                                                  libpp/wdev.o
lmacProcessRtsStart                               libpp/lmac.o
                                                  libpp/wdev.o
lmacProcessTXStartData                            libpp/lmac.o
                                                  libpp/wdev.o
lmacProcessTxError                                libpp/lmac.o
                                                  libpp/wdev.o
lmacProcessTxRtsError                             libpp/lmac.o
                                                  libpp/wdev.o
lmacProcessTxSuccess                              libpp/lmac.o
                                                  libpp/wdev.o
lmacProcessTxTimeout                              libpp/lmac.o
                                                  libpp/pp.o
lmacRecycleMPDU                                   libpp/lmac.o
lmacRxDone                                        libpp/lmac.o
                                                  libpp/wdev.o
lmacSetAcParam                                    libpp/lmac.o
lmacSetRetryLimit                                 libpp/lmac.o
lmacTxFrame                                       libpp/lmac.o
                                                  libpp/pp.o
load_key_certs                                    libssl/ssl_loader.o
                                                  libssl/ssl_tls1.o
low_power_set                                     libphy/phy_chip_v6_ana.o
                                                  libphy/phy_chip_v6.o
lslp_mem_opt_8266                                 libphy/phy_sleep.o
lwip_init                                         liblwip/init.o
                                                  libmain/app_main.o
lwip_timer_interval                               libmain/app_main.o
                                                  libpp/pm.o
md4_vector                                        libcrypto/md4-internal.o
                                                  libcrypto/ms_funcs.o
md5_vector                                        libwpa2/x509v3.o
                                                  libwpa2/pkcs5.o
mdns_close                                        liblwip/mdns.o
                                                  liblwip/espconn_mdns.o
mdns_disable                                      liblwip/mdns.o
                                                  liblwip/espconn_mdns.o
mdns_enable                                       liblwip/mdns.o
                                                  liblwip/espconn_mdns.o
mdns_get_hostname                                 liblwip/mdns.o
                                                  liblwip/espconn_mdns.o
mdns_get_servername                               liblwip/mdns.o
                                                  liblwip/espconn_mdns.o
mdns_init                                         liblwip/mdns.o
                                                  liblwip/espconn_mdns.o
mdns_reg                                          liblwip/mdns.o
mdns_server_register                              liblwip/mdns.o
                                                  liblwip/espconn_mdns.o
mdns_server_unregister                            liblwip/mdns.o
                                                  liblwip/espconn_mdns.o
mdns_set_hostname                                 liblwip/mdns.o
                                                  liblwip/espconn_mdns.o
mdns_set_name                                     liblwip/mdns.o
mdns_set_servername                               liblwip/mdns.o
                                                  liblwip/espconn_mdns.o
mdns_timer                                        liblwip/mdns.o
meas_tone_pwr_db                                  libphy/phy_chip_v6_cal.o
memchr                                            /mnt/hdd/projects-3rdparty/xtensa/esp-open-sdk/xtensa-lx106-elf/bin/../lib/gcc/xtensa-lx106-elf/4.8.5/../../../../xtensa-lx106-elf/lib/libc.a(lib_a-memchr.o)
                                                  liblwip/espconn_buf.o
memcmp                                            /mnt/hdd/projects-3rdparty/xtensa/esp-open-sdk/xtensa-lx106-elf/bin/../lib/gcc/xtensa-lx106-elf/4.8.5/../../../../xtensa-lx106-elf/lib/libc.a(lib_a-memcmp.o)
                                                  libssl/ssl_tls1.o
memcpy                                            /mnt/hdd/projects-3rdparty/xtensa/esp-open-sdk/xtensa-lx106-elf/bin/../lib/gcc/xtensa-lx106-elf/4.8.5/../../../../xtensa-lx106-elf/lib/libc.a(lib_a-memcpy.o)
                                                  libwps/wps_common.o
                                                  libwpa2/bignum.o
                                                  libssl/ssl_tls1.o
                                                  libssl/ssl_sha1.o
                                                  libssl/ssl_asn1.o
                                                  libcrypto/ms_funcs.o
memp_sizes                                        liblwip/memp.o
                                                  liblwip/udp.o
                                                  liblwip/timers.o
                                                  liblwip/tcp_out.o
                                                  liblwip/tcp.o
                                                  liblwip/raw.o
                                                  liblwip/pbuf.o
                                                  liblwip/igmp.o
                                                  liblwip/etharp.o
memp_sizes_test                                   liblwip/memp.o
mesh_free                                         libmesh/espconn_mesh.o
mesh_zalloc                                       libmesh/espconn_mesh.o
micros                                            libmain/time.o
millis                                            libmain/time.o
mschapv2_derive_response                          libwpa2/mschapv2.o
                                                  libwpa2/eap_ttls.o
                                                  libwpa2/eap_mschapv2.o
mschapv2_remove_domain                            libwpa2/mschapv2.o
                                                  libwpa2/eap_mschapv2.o
mschapv2_verify_auth_response                     libwpa2/mschapv2.o
                                                  libwpa2/eap_ttls.o
                                                  libwpa2/eap_mschapv2.o
mt_add_peer                                       libespnow/manatick.o
                                                  libespnow/espnow.o
mt_crypto_key_of_key                              libespnow/manatick.o
                                                  libespnow/espnow.o
mt_decrypto_key_of_key                            libespnow/manatick.o
mt_deinit                                         libespnow/manatick.o
                                                  libespnow/espnow.o
mt_del_peer                                       libespnow/manatick.o
                                                  libespnow/espnow.o
mt_fetch_peer                                     libespnow/manatick.o
                                                  libespnow/espnow.o
mt_get_cnt_info                                   libespnow/manatick.o
                                                  libespnow/espnow.o
mt_get_peer_channel                               libespnow/manatick.o
                                                  libespnow/espnow.o
mt_get_peer_key                                   libespnow/manatick.o
                                                  libespnow/espnow.o
mt_get_peer_role                                  libespnow/manatick.o
                                                  libespnow/espnow.o
mt_get_self_role                                  libespnow/manatick.o
                                                  libespnow/espnow.o
mt_init                                           libespnow/manatick.o
                                                  libespnow/espnow.o
mt_is_peer_exist                                  libespnow/manatick.o
                                                  libespnow/espnow.o
mt_recv_action_cb                                 libespnow/manatick.o
mt_register_recv_self_protocol_cb                 libespnow/manatick.o
                                                  libespnow/espnow.o
mt_register_send_cb                               libespnow/manatick.o
                                                  libespnow/espnow.o
mt_send_cb                                        libespnow/manatick.o
mt_send_self_protocol                             libespnow/manatick.o
                                                  libespnow/espnow.o
mt_set_kok                                        libespnow/manatick.o
                                                  libespnow/espnow.o
mt_set_peer_channel                               libespnow/manatick.o
                                                  libespnow/espnow.o
mt_set_peer_key                                   libespnow/manatick.o
                                                  libespnow/espnow.o
mt_set_peer_role                                  libespnow/manatick.o
                                                  libespnow/espnow.o
mt_set_self_role                                  libespnow/manatick.o
                                                  libespnow/espnow.o
mt_unregister_recv_self_protocol_cb               libespnow/manatick.o
                                                  libespnow/espnow.o
mt_unregister_send_cb                             libespnow/manatick.o
                                                  libespnow/espnow.o
netif_add                                         liblwip/netif.o
                                                  libmain/eagle_lwip_if.o
netif_default                                     liblwip/netif.o
                                                  libmain/user_interface.o
                                                  liblwip/ip.o
netif_find                                        liblwip/netif.o
netif_init                                        liblwip/netif.o
                                                  liblwip/init.o
netif_list                                        liblwip/netif.o
                                                  liblwip/ip.o
                                                  liblwip/igmp.o
                                                  liblwip/dhcp.o
netif_remove                                      liblwip/netif.o
                                                  libmain/eagle_lwip_if.o
netif_set_addr                                    liblwip/netif.o
                                                  libwpa/wpa_main.o
                                                  libmain/user_interface.o
                                                  libmain/eagle_lwip_if.o
netif_set_default                                 liblwip/netif.o
                                                  libnet80211/ieee80211_hostap.o
                                                  libmain/user_interface.o
                                                  libmain/app_main.o
                                                  liblwip/mdns.o
                                                  liblwip/espconn_udp.o
netif_set_down                                    liblwip/netif.o
                                                  libnet80211/wl_cnx.o
                                                  libnet80211/ieee80211_hostap.o
                                                  liblwip/dhcp.o
netif_set_gw                                      liblwip/netif.o
                                                  liblwip/dhcp.o
netif_set_ipaddr                                  liblwip/netif.o
                                                  liblwip/dhcp.o
netif_set_link_down                               liblwip/netif.o
netif_set_link_up                                 liblwip/netif.o
netif_set_netmask                                 liblwip/netif.o
                                                  liblwip/dhcp.o
netif_set_up                                      liblwip/netif.o
                                                  libwpa/wpa_main.o
                                                  libnet80211/ieee80211_hostap.o
                                                  liblwip/dhcp.o
netio_init                                        liblwip/netio.o
new_password_encrypted_with_old_nt_password_hash  libcrypto/ms_funcs.o
                                                  libwpa2/eap_mschapv2.o
no_ap_found_index                                 libnet80211/wl_cnx.o
                                                  libwpa/wpa_main.o
                                                  libmain/user_interface.o
node_insert_to_list                               liblwip/dhcpserver.o
node_remove_from_list                             liblwip/dhcpserver.o
noise_array                                       libphy/phy_chip_v6.o
noise_check_loop                                  libphy/phy_chip_v6.o
                                                  libpp/pp.o
                                                  libpp/pm.o
                                                  libpp/pm_for_bcn_only_mode.o
                                                  libphy/phy_sleep.o
                                                  libnet80211/ieee80211_hostap.o
noise_init                                        libphy/phy_chip_v6.o
nt_challenge_response                             libcrypto/ms_funcs.o
nt_password_hash                                  libcrypto/ms_funcs.o
                                                  libwpa2/mschapv2.o
                                                  libwpa2/eap_mschapv2.o
nt_password_hash_encrypted_with_block             libcrypto/ms_funcs.o
                                                  libwpa2/eap_mschapv2.o
old_nt_password_hash_encrypted_with_new_nt_password_hash libcrypto/ms_funcs.o
                                                  libwpa2/eap_mschapv2.o
os_get_random                                     libwpa/os_xtensa.o
                                                  libwps/wps_registrar.o
                                                  libwps/wps_enrollee.o
                                                  libwps/wps_attr_build.o
                                                  libwpa/wpa.o
                                                  libwpa/wpa_auth.o
                                                  libwpa2/tlsv1_server_write.o
                                                  libwpa2/tlsv1_server_read.o
                                                  libwpa2/tlsv1_record.o
                                                  libwpa2/tlsv1_client_write.o
                                                  libwpa2/tlsv1_client.o
                                                  libwpa2/pkcs1.o
                                                  libwpa2/eap_ttls.o
                                                  libwpa2/eap_mschapv2.o
                                                  libssl/ssl_crypto_misc.o
                                                  libcrypto/ms_funcs.o
                                                  libcrypto/dh_groups.o
os_get_time                                       libwpa/os_xtensa.o
                                                  libwps/wps_registrar.o
                                                  libwps/wps_common.o
                                                  libwpa/common.o
os_printf_plus                                    libmain/user_interface.o
                                                  libwps/wps.o
                                                  libwps/wps_enrollee.o
                                                  libwps/wps_attr_build.o
                                                  libwpa/wpa_main.o
                                                  libwpa2/eap_ttls.o
                                                  libwpa2/eap_tls_common.o
                                                  libwpa2/eap_peap.o
                                                  libwpa2/eap.o
                                                  libwpa2/eap_mschapv2.o
                                                  libwpa2/eap_common.o
                                                  libssl/ssl_x509.o
                                                  libssl/ssl_tls1.o
                                                  libssl/ssl_loader.o
                                                  libssl/ssl_asn1.o
                                                  libssl/espconn_ssl.o
                                                  libsmartconfig/sc_sniffer.o
                                                  libsmartconfig/sc_esptouch.o
                                                  libsmartconfig/sc_airkiss.o
                                                  libpwm/pwm.o
                                                  libpp/trc.o
                                                  libpp/pp.o
                                                  libpp/pm.o
                                                  libpp/pm_for_bcn_only_mode.o
                                                  libpp/lmac.o
                                                  libpp/if_hwctrl.o
                                                  libphy/phy_chip_v6.o
                                                  libphy/phy_chip_v6_cal.o
                                                  libphy/phy_chip_v6_ana.o
                                                  libnet80211/wl_cnx.o
                                                  libnet80211/ieee80211_sta.o
                                                  libnet80211/ieee80211_scan.o
                                                  libnet80211/ieee80211_regdomain.o
                                                  libnet80211/ieee80211_output.o
                                                  libnet80211/ieee80211.o
                                                  libnet80211/ieee80211_mesh_quick.o
                                                  libnet80211/ieee80211_ht.o
                                                  libnet80211/ieee80211_hostap.o
                                                  libnet80211/ieee80211_action_vendor.o
                                                  libmesh/espconn_mesh.o
                                                  libmain/spi_flash.o
                                                  libmain/ets_timer.o
                                                  libmain/eagle_lwip_if.o
                                                  libmain/app_main.o
                                                  liblwip/sntp.o
                                                  liblwip/ping.o
                                                  liblwip/mdns.o
                                                  liblwip/ip.o
                                                  liblwip/espconn_tcp.o
                                                  liblwip/espconn_buf.o
                                                  liblwip/dhcpserver.o
                                                  liblwip/dhcp.o
                                                  libespnow/simple_pair.o
                                                  libespnow/manatick.o
os_random                                         libwpa/os_xtensa.o
                                                  libwps/wps_common.o
                                                  liblwip/tcp.o
                                                  liblwip/espconn.o
                                                  liblwip/dns.o
our_tx_eb                                         libpp/lmac.o
                                                  libpp/wdev.o
overlap_hspi_deinit                               libmain/spi_overlap.o
overlap_hspi_init                                 libmain/spi_overlap.o
overlap_hspi_read_data                            libmain/spi_overlap.o
pAKGuideGlob                                      libsmartconfig/sc_airkiss.o
                                                  libsmartconfig/sc_sniffer.o
pAPListHead                                       libsmartconfig/sc_sniffer.o
                                                  libsmartconfig/sc_esptouch.o
                                                  libsmartconfig/sc_airkiss.o
pAPListTral                                       libsmartconfig/sc_sniffer.o
pAkDiret                                          libsmartconfig/sc_airkiss.o
                                                  libsmartconfig/sc_sniffer.o
pAkTrans                                          libsmartconfig/sc_airkiss.o
                                                  libsmartconfig/sc_sniffer.o
pCHListHead                                       libsmartconfig/sc_esptouch.o
pCHListTral                                       libsmartconfig/sc_esptouch.o
pETGuideGlob                                      libsmartconfig/sc_esptouch.o
                                                  libsmartconfig/sc_sniffer.o
pKissConn                                         libsmartconfig/sc_airkiss.o
                                                  libsmartconfig/sc_sniffer.o
pTouchConn                                        libsmartconfig/sc_esptouch.o
                                                  libsmartconfig/sc_sniffer.o
pTouchGlob                                        libsmartconfig/sc_esptouch.o
                                                  libsmartconfig/sc_sniffer.o
pbkdf2_sha1                                       libwpa/wpa.o
                                                  libmain/user_interface.o
pbuf_alloc                                        liblwip/pbuf.o
                                                  libwps/wps.o
                                                  libwpa/wpas_glue.o
                                                  libwpa/wpa_auth.o
                                                  libwpa2/eap.o
                                                  libnet80211/ieee80211_input.o
                                                  libnet80211/ieee80211_hostap.o
                                                  liblwip/udp.o
                                                  liblwip/tcp_out.o
                                                  liblwip/sntp.o
                                                  liblwip/raw.o
                                                  liblwip/ping.o
                                                  liblwip/mdns.o
                                                  liblwip/igmp.o
                                                  liblwip/icmp.o
                                                  liblwip/etharp.o
                                                  liblwip/espconn_udp.o
                                                  liblwip/dns.o
                                                  liblwip/dhcpserver.o
                                                  liblwip/dhcp.o
pbuf_cat                                          liblwip/pbuf.o
                                                  liblwip/tcp_out.o
                                                  liblwip/tcp_in.o
pbuf_chain                                        liblwip/pbuf.o
                                                  liblwip/udp.o
                                                  liblwip/raw.o
pbuf_clen                                         liblwip/pbuf.o
                                                  liblwip/tcp_out.o
                                                  liblwip/tcp_in.o
pbuf_coalesce                                     liblwip/pbuf.o
pbuf_copy                                         liblwip/pbuf.o
                                                  liblwip/mdns.o
                                                  liblwip/icmp.o
                                                  liblwip/etharp.o
                                                  liblwip/espconn_udp.o
pbuf_copy_partial                                 liblwip/pbuf.o
                                                  liblwip/tcp_out.o
                                                  liblwip/sntp.o
                                                  liblwip/mdns.o
                                                  liblwip/espconn_udp.o
                                                  liblwip/espconn_tcp.o
                                                  liblwip/dns.o
                                                  liblwip/dhcp.o
pbuf_dechain                                      liblwip/pbuf.o
pbuf_free                                         liblwip/pbuf.o
                                                  libssl/espconn_ssl.o
                                                  libpp/pp.o
                                                  libnet80211/ieee80211_power.o
                                                  libnet80211/ieee80211_output.o
                                                  libnet80211/ieee80211_hostap.o
                                                  libmain/eagle_lwip_if.o
                                                  liblwip/udp.o
                                                  liblwip/tcp_out.o
                                                  liblwip/tcp.o
                                                  liblwip/tcp_in.o
                                                  liblwip/sntp.o
                                                  liblwip/raw.o
                                                  liblwip/ping.o
                                                  liblwip/netio.o
                                                  liblwip/mdns.o
                                                  liblwip/ip.o
                                                  liblwip/igmp.o
                                                  liblwip/icmp.o
                                                  liblwip/etharp.o
                                                  liblwip/espconn_udp.o
                                                  liblwip/espconn_tcp.o
                                                  liblwip/dns.o
                                                  liblwip/dhcpserver.o
                                                  liblwip/dhcp.o
pbuf_free_ooseq_new                               liblwip/pbuf.o
                                                  liblwip/tcp_in.o
pbuf_get_at                                       liblwip/pbuf.o
pbuf_header                                       liblwip/pbuf.o
                                                  liblwip/udp.o
                                                  liblwip/tcp_out.o
                                                  liblwip/tcp_in.o
                                                  liblwip/raw.o
                                                  liblwip/ping.o
                                                  liblwip/ip.o
                                                  liblwip/igmp.o
                                                  liblwip/icmp.o
                                                  liblwip/etharp.o
pbuf_memcmp                                       liblwip/pbuf.o
pbuf_memfind                                      liblwip/pbuf.o
pbuf_realloc                                      liblwip/pbuf.o
                                                  liblwip/tcp_in.o
                                                  liblwip/mdns.o
                                                  liblwip/ip.o
                                                  liblwip/dns.o
                                                  liblwip/dhcp.o
pbuf_ref                                          liblwip/pbuf.o
                                                  libnet80211/ieee80211_output.o
                                                  liblwip/tcp.o
                                                  liblwip/etharp.o
pbuf_strstr                                       liblwip/pbuf.o
pbuf_take                                         liblwip/pbuf.o
pbus_set_rxbbgain                                 libphy/phy_chip_v6.o
peap_prfplus                                      libwpa2/eap_peap_common.o
                                                  libwpa2/eap_peap.o
pend_flag_noise_check                             libpp/pp.o
                                                  libpp/pm.o
                                                  libpp/pm_for_bcn_only_mode.o
pend_flag_periodic_cal                            libpp/pp.o
                                                  libpp/pm.o
                                                  libpp/pm_for_bcn_only_mode.o
periodic_cal                                      libphy/phy_chip_v6.o
                                                  libphy/phy_sleep.o
periodic_cal_flag                                 libphy/phy_chip_v6.o
                                                  libphy/phy_sleep.o
periodic_cal_sat                                  libphy/phy_sleep.o
periodic_cal_top                                  libphy/phy_chip_v6.o
                                                  libpp/pp.o
                                                  libpp/pm.o
                                                  libpp/pm_for_bcn_only_mode.o
                                                  libphy/phy_chip_v6_cal.o
                                                  libnet80211/ieee80211_hostap.o
pfile_param                                       libssl/espconn_ssl.o
                                                  libssl/ssl_crypto_misc.o
phy_adc_read_fast                                 libphy/phy_chip_v6_ana.o
                                                  libmain/user_interface.o
phy_after_init_enrx                               libphy/phy_chip_v6.o
                                                  libphy/phy_chip_v6_ana.o
phy_afterwake_set_rfoption                        libphy/phy_chip_v6.o
                                                  libmain/user_interface.o
                                                  libmain/app_main.o
phy_bb_rx_cfg                                     libphy/phy_chip_v6.o
phy_change_channel                                libphy/phy.o
                                                  libnet80211/wl_chm.o
phy_check_data_table                              libphy/phy_chip_v6.o
                                                  libmain/app_main.o
phy_debug_print                                   libphy/phy_chip_v6.o
phy_delete_channel                                libphy/phy.o
phy_dig_spur_prot                                 libphy/phy_chip_v6.o
                                                  libphy/phy_chip_v6_ana.o
phy_dig_spur_set                                  libphy/phy_chip_v6.o
                                                  libphy/phy_chip_v6_ana.o
phy_disable_agc                                   libphy/phy.o
                                                  libmain/app_main.o
phy_enable_agc                                    libphy/phy.o
                                                  libmain/app_main.o
phy_freq_offset                                   libphy/phy_chip_v6.o
                                                  libphy/phy_chip_v6_ana.o
phy_get_bb_evm                                    libphy/phy_chip_v6_cal.o
phy_get_bb_freqoffset                             libphy/phy_chip_v6_cal.o
                                                  libpp/wdev.o
phy_get_check_flag                                libphy/phy_chip_v6_ana.o
                                                  libmain/user_interface.o
phy_get_freq_param                                libphy/phy_chip_v6.o
phy_get_mactime                                   libphy/phy.o
phy_get_rand                                      libphy/phy_chip_v6.o
                                                  libwpa/os_xtensa.o
phy_get_romfuncs                                  libphy/phy_chip_v6.o
phy_get_rxnf_param                                libphy/phy_chip_v6.o
phy_get_txpwr_param                               libphy/phy_chip_v6.o
phy_get_vdd33                                     libphy/phy_chip_v6_ana.o
                                                  libmain/user_interface.o
phy_gpio_cfg                                      libphy/phy_chip_v6.o
phy_in_most_power                                 libphy/phy_chip_v6.o
phy_in_vdd33_offset                               libphy/phy_chip_v6.o
                                                  libphy/phy_chip_v6_cal.o
phy_init                                          libphy/phy.o
phy_initialize_bb                                 libphy/phy.o
phy_meas_freq_offset                              libphy/phy_chip_v6_cal.o
                                                  libphy/phy_chip_v6.o
phy_pbus_soc_cfg                                  libphy/phy_chip_v6.o
phy_rx_gain_dc_flag                               libphy/phy_chip_v6.o
                                                  libpp/pm.o
                                                  libpp/pm_for_bcn_only_mode.o
phy_rx_gain_dc_table                              libphy/phy_chip_v6.o
                                                  libpp/pm.o
                                                  libpp/pm_for_bcn_only_mode.o
                                                  libmain/app_main.o
phy_set_most_tpw                                  libphy/phy_chip_v6.o
                                                  libmain/user_interface.o
phy_set_most_tpw_disbg                            libphy/phy_chip_v6.o
                                                  libphy/phy_chip_v6_cal.o
phy_set_most_tpw_index                            libphy/phy_chip_v6.o
                                                  libphy/phy_chip_v6_cal.o
phy_set_powerup_option                            libphy/phy_chip_v6.o
                                                  libmain/user_interface.o
phy_set_rx11b_reg                                 libphy/phy_chip_v6.o
phy_set_sense                                     libphy/phy.o
phy_tx_power_out                                  libphy/phy_chip_v6_cal.o
phy_tx_pwctrl_cali                                libphy/phy_chip_v6.o
phy_tx_pwr_error                                  libphy/phy_chip_v6_cal.o
                                                  libphy/phy_chip_v6.o
phy_txpwr_diff_flash                              libphy/phy_chip_v6.o
phy_vdd33_set_tpw                                 libphy/phy_chip_v6.o
                                                  libmain/user_interface.o
phytype2mode                                      libpp/trc.o
ping_regist_recv                                  liblwip/ping.o
ping_regist_sent                                  liblwip/ping.o
ping_start                                        liblwip/ping.o
pkcs1_decrypt_public_key                          libwpa2/pkcs1.o
                                                  libcrypto/crypto_internal-rsa.o
pkcs1_encrypt                                     libwpa2/pkcs1.o
                                                  libcrypto/crypto_internal-rsa.o
pkcs1_v15_private_key_decrypt                     libwpa2/pkcs1.o
                                                  libcrypto/crypto_internal-rsa.o
pkcs5_decrypt                                     libwpa2/pkcs5.o
                                                  libwpa2/pkcs8.o
pkcs8_enc_key_import                              libwpa2/pkcs8.o
                                                  libcrypto/crypto_internal-rsa.o
pkcs8_key_import                                  libwpa2/pkcs8.o
                                                  libcrypto/crypto_internal-rsa.o
pktinfo                                           liblwip/espconn.o
                                                  liblwip/espconn_tcp.o
plink_active                                      liblwip/espconn.o
                                                  libssl/espconn_ssl.o
                                                  liblwip/espconn_udp.o
                                                  liblwip/espconn_tcp.o
plink_server                                      libssl/espconn_ssl.o
pm_allow_tx                                       libpp/pm.o
                                                  libpp/pp.o
pm_assoc_parse                                    libpp/pm.o
                                                  libpp/pp.o
pm_attach                                         libpp/pm.o
                                                  libmain/app_main.o
pm_check_mac_idle                                 libphy/phy_sleep.o
pm_clear_gpio_wakeup_pin                          libpp/pm.o
                                                  libmain/user_interface.o
pm_enable_gpio_wakeup                             libpp/pm.o
                                                  libpp/pp.o
pm_force_scan_unlock                              libpp/pm.o
                                                  libpp/if_hwctrl.o
                                                  libnet80211/ieee80211_scan.o
pm_get_ck170_period                               libpp/pm.o
                                                  libpp/pm_for_bcn_only_mode.o
pm_get_idle_wait_time                             libpp/pm.o
pm_get_sleep_type                                 libpp/pm.o
                                                  libmain/user_interface.o
pm_goto_sleep                                     libphy/phy_sleep.o
                                                  libpp/pm.o
                                                  libpp/pm_for_bcn_only_mode.o
pm_idle_sleep                                     libpp/pm.o
pm_is_gpio_int_trig                               libpp/pm.o
pm_is_open                                        libpp/pm.o
                                                  libpp/pm_for_bcn_only_mode.o
                                                  libnet80211/ieee80211_scan.o
                                                  libmain/user_interface.o
pm_is_waked                                       libpp/pm.o
                                                  libpp/pp.o
                                                  libnet80211/ieee80211_scan.o
                                                  libmain/user_interface.o
pm_onBcnRx                                        libpp/pm.o
                                                  libpp/pp.o
pm_open                                           libpp/pm.o
                                                  libpp/if_hwctrl.o
pm_open_rf                                        libphy/phy_sleep.o
                                                  libmain/user_interface.o
pm_post                                           libpp/pm.o
                                                  libpp/pp.o
                                                  libnet80211/ieee80211_scan.o
                                                  libmain/user_interface.o
pm_prepare_to_sleep                               libphy/phy_sleep.o
pm_reset_idle_sleep                               libpp/pm.o
pm_rf_is_closed                                   libpp/pm.o
                                                  libpp/pp.o
pm_rtc2usec                                       libphy/phy_sleep.o
                                                  libpp/pm.o
                                                  libpp/pm_for_bcn_only_mode.o
pm_rtc_clock_cali                                 libphy/phy_sleep.o
                                                  libpp/pm.o
pm_rtc_clock_cali_proc                            libpp/pm.o
                                                  libpp/pm_for_bcn_only_mode.o
                                                  libmain/user_interface.o
pm_scan_lock                                      libpp/pm.o
                                                  libnet80211/ieee80211_scan.o
pm_scan_unlocked                                  libpp/pm.o
                                                  libpp/pp.o
pm_sdio_nidle                                     libphy/phy_sleep.o
pm_send_nullfunc                                  libpp/pm.o
pm_set_addr                                       libpp/pm.o
                                                  libpp/pp.o
pm_set_gpio_wakeup_pin                            libpp/pm.o
                                                  libmain/user_interface.o
pm_set_pll_xtal_wait_time                         libphy/phy_sleep.o
pm_set_sleep_btco                                 libphy/phy_sleep.o
pm_set_sleep_cycles                               libphy/phy_sleep.o
                                                  libpp/pm.o
                                                  libpp/pm_for_bcn_only_mode.o
                                                  libphy/phy_chip_v6.o
pm_set_sleep_mode                                 libphy/phy_sleep.o
                                                  libpp/pm.o
                                                  libpp/pm_for_bcn_only_mode.o
                                                  libphy/phy_chip_v6.o
                                                  libphy/phy_chip_v6_ana.o
pm_set_sleep_time                                 libpp/pm.o
                                                  libmain/user_interface.o
pm_set_sleep_type_from_upper                      libpp/pm.o
                                                  libmain/user_interface.o
pm_set_wakeup_btco                                libphy/phy_sleep.o
pm_set_wakeup_mac                                 libphy/phy_sleep.o
pm_shutdown                                       libpp/pm.o
                                                  libpp/pm_for_bcn_only_mode.o
                                                  libpp/if_hwctrl.o
pm_sleep_for                                      libpp/pm.o
                                                  libpp/pp.o
pm_sleep_opt                                      libphy/phy_sleep.o
pm_sleep_opt_bb_off                               libphy/phy_sleep.o
pm_sleep_opt_bb_on                                libphy/phy_sleep.o
pm_sleep_set_mac                                  libphy/phy_sleep.o
pm_suspend                                        libpp/pm.o
pm_try_scan_unlock                                libpp/pm.o
pm_unmask_bt                                      libphy/phy_sleep.o
pm_usec2rtc                                       libphy/phy_sleep.o
                                                  libpp/pm.o
                                                  libpp/pm_for_bcn_only_mode.o
pm_wait4wakeup                                    libphy/phy_sleep.o
                                                  libpp/pm.o
                                                  libpp/pm_for_bcn_only_mode.o
                                                  libphy/phy_chip_v6.o
pm_wakeup_init                                    libphy/phy_sleep.o
                                                  libpp/pm.o
                                                  libpp/pm_for_bcn_only_mode.o
                                                  libphy/phy_chip_v6.o
                                                  libphy/phy_chip_v6_ana.o
pm_wakeup_opt                                     libphy/phy_sleep.o
                                                  libpp/pm.o
                                                  libpp/pm_for_bcn_only_mode.o
                                                  libphy/phy_chip_v6.o
pmc                                               libpp/pm.o
ppCalFrameTimes                                   libpp/pp.o
                                                  libpp/lmac.o
ppCalTxop                                         libpp/pp.o
                                                  libpp/lmac.o
ppCheckTxIdle                                     libpp/pp.o
                                                  libpp/pm.o
                                                  libpp/pm_for_bcn_only_mode.o
                                                  libnet80211/ieee80211_scan.o
ppDequeueTxQ                                      libpp/pp.o
                                                  libpp/lmac.o
ppDiscardMPDU                                     libpp/pp.o
ppEnqueueRxq                                      libpp/pp.o
                                                  libpp/lmac.o
ppEnqueueTxDone                                   libpp/pp.o
                                                  libpp/lmac.o
ppFetchTxQFirstAvail                              libpp/pp.o
                                                  libpp/lmac.o
ppGetTxQFirstAvail_Locked                         libpp/pp.o
                                                  libpp/lmac.o
ppInstallKey                                      libwpa/wpa_main.o
                                                  libnet80211/wl_cnx.o
ppPeocessRxPktHdr                                 libpp/pp.o
ppProcessTxQ                                      libpp/pp.o
                                                  libpp/lmac.o
ppProcessWaitQ                                    libpp/pp.o
                                                  libpp/pm.o
                                                  libpp/pm_for_bcn_only_mode.o
ppRecordBarRRC                                    libpp/pp.o
                                                  libpp/lmac.o
ppRecycleRxPkt                                    libpp/pp.o
                                                  libnet80211/ieee80211_sta.o
                                                  libnet80211/ieee80211_input.o
                                                  libnet80211/ieee80211_hostap.o
                                                  libmain/user_interface.o
                                                  libmain/eagle_lwip_if.o
ppRegisterTxCallback                              libpp/pp.o
                                                  libwpa/wpa_main.o
                                                  libpp/pm.o
                                                  libnet80211/wl_cnx.o
                                                  libnet80211/ieee80211_proto.o
                                                  libnet80211/ieee80211.o
                                                  libnet80211/ieee80211_hostap.o
                                                  libespnow/simple_pair.o
                                                  libespnow/manatick.o
ppRollBackTxQ                                     libpp/pp.o
                                                  libpp/lmac.o
ppTxPkt                                           libpp/pp.o
                                                  libpp/pm.o
                                                  libnet80211/ieee80211_scan.o
                                                  libnet80211/ieee80211_power.o
                                                  libnet80211/ieee80211_output.o
                                                  libnet80211/ieee80211_hostap.o
                                                  libnet80211/ieee80211_action_vendor.o
ppTxqUpdateBitmap                                 libpp/pp.o
                                                  libpp/lmac.o
ppUnregisterTxCallback                            libpp/pp.o
                                                  libespnow/simple_pair.o
                                                  libespnow/manatick.o
pp_attach                                         libpp/pp.o
                                                  libmain/app_main.o
pp_disable_idle_timer                             libpp/pp.o
                                                  libpp/pm.o
pp_disable_noise_timer                            libpp/pp.o
                                                  libpp/pm_for_bcn_only_mode.o
                                                  libnet80211/ieee80211_hostap.o
pp_enable_idle_timer                              libpp/pp.o
                                                  libpp/pm.o
pp_enable_noise_timer                             libpp/pp.o
pp_michael_mic_failure                            libwpa/wpa.o
pp_noise_test                                     libpp/pp.o
pp_post                                           libpp/pp.o
                                                  libwps/wps.o
                                                  libpp/lmac.o
pp_post2                                          libpp/pp.o
                                                  libpp/wdev.o
pp_soft_wdt_feed                                  libpp/pp.o
                                                  libmain/spi_flash.o
pp_soft_wdt_feed_local                            libpp/pp.o
pp_soft_wdt_init                                  libpp/pp.o
                                                  libmain/app_main.o
pp_soft_wdt_restart                               libpp/pp.o
                                                  libwps/wps_enrollee.o
                                                  libwps/wps_attr_build.o
                                                  libwpa2/rsa.o
                                                  libpp/pm.o
                                                  libpp/pm_for_bcn_only_mode.o
pp_soft_wdt_stop                                  libpp/pp.o
                                                  libwps/wps_enrollee.o
                                                  libwps/wps_attr_build.o
                                                  libwpa2/rsa.o
                                                  libpp/pm.o
                                                  libpp/pm_for_bcn_only_mode.o
pp_try_enable_idle_timer                          libpp/pp.o
                                                  libpp/pm.o
pp_tx_idle_timeout                                libpp/pp.o
premot                                            liblwip/espconn.o
print_blob                                        libssl/ssl_crypto_misc.o
process_certificate                               libssl/ssl_tls1.o
                                                  libssl/ssl_tls1_svr.o
                                                  libssl/ssl_tls1_clnt.o
process_finished                                  libssl/ssl_tls1.o
                                                  libssl/ssl_tls1_svr.o
                                                  libssl/ssl_tls1_clnt.o
promiscuous_cb                                    libmain/user_interface.o
                                                  libpp/pp.o
prvInsertBlockIntoUsedList                        libmain/mem_manager.o
prvRemoveBlockFromUsedList                        libmain/mem_manager.o
pserver_list                                      liblwip/espconn.o
                                                  libmesh/espconn_mesh.o
                                                  liblwip/espconn_tcp.o
pvPortCalloc                                      libmain/mem_manager.o
pvPortMalloc                                      libmain/mem_manager.o
                                                  libwps/wps_registrar.o
                                                  libwps/wps.o
                                                  libwps/wps_dev_attr.o
                                                  libwpa/wpa_main.o
                                                  libwpa/wpa_auth.o
                                                  libwpa/wpa_auth_ie.o
                                                  libwpa/os_xtensa.o
                                                  libwpa/common.o
                                                  libwpa2/x509v3.o
                                                  libwpa2/tlsv1_server_write.o
                                                  libwpa2/tlsv1_server_read.o
                                                  libwpa2/tlsv1_server.o
                                                  libwpa2/tlsv1_cred.o
                                                  libwpa2/tlsv1_client_write.o
                                                  libwpa2/tlsv1_client_read.o
                                                  libwpa2/tlsv1_client.o
                                                  libwpa2/pkcs5.o
                                                  libwpa2/eap_ttls.o
                                                  libwpa2/eap_tls.o
                                                  libwpa2/eap_tls_common.o
                                                  libwpa2/eap_peap.o
                                                  libwpa2/eap.o
                                                  libwpa2/eap_mschapv2.o
                                                  libwpa2/bignum.o
                                                  libwpa2/base64.o
                                                  libssl/ssl_x509.o
                                                  libssl/ssl_tls1.o
                                                  libssl/ssl_rsa.o
                                                  libssl/ssl_loader.o
                                                  libssl/ssl_bigint.o
                                                  libssl/ssl_asn1.o
                                                  libpp/wdev.o
                                                  libpp/esf_buf.o
                                                  libnet80211/ieee80211_regdomain.o
                                                  libnet80211/ieee80211_input.o
                                                  libmesh/espconn_base64.o
                                                  libmain/user_interface.o
                                                  libmain/eagle_lwip_if.o
                                                  liblwip/udp.o
                                                  liblwip/timers.o
                                                  liblwip/tcp_out.o
                                                  liblwip/tcp.o
                                                  liblwip/raw.o
                                                  liblwip/pbuf.o
                                                  liblwip/netio.o
                                                  liblwip/igmp.o
                                                  liblwip/etharp.o
                                                  liblwip/dhcp.o
                                                  libcrypto/aes-internal-enc.o
                                                  libcrypto/aes-internal-dec.o
pvPortRealloc                                     libmain/mem_manager.o
                                                  libwpa/wpabuf.o
                                                  libwpa2/eap_ttls.o
                                                  libwpa2/eap_tls_common.o
                                                  libwpa2/bignum.o
                                                  libssl/ssl_x509.o
                                                  libssl/ssl_loader.o
                                                  libssl/ssl_bigint.o
pvPortZalloc                                      libmain/mem_manager.o
                                                  libwps/wps_registrar.o
                                                  libwps/wps.o
                                                  libwpa/wpa_main.o
                                                  libwpa/wpabuf.o
                                                  libwpa/wpa_auth.o
                                                  libwpa/ap_config.o
                                                  libwpa2/x509v3.o
                                                  libwpa2/tlsv1_server.o
                                                  libwpa2/tlsv1_cred.o
                                                  libwpa2/tlsv1_client.o
                                                  libwpa2/tls_internal.o
                                                  libwpa2/rsa.o
                                                  libwpa2/ext_password.o
                                                  libwpa2/eap_ttls.o
                                                  libwpa2/eap_tls.o
                                                  libwpa2/eap_peap.o
                                                  libwpa2/eap.o
                                                  libwpa2/eap_mschapv2.o
                                                  libwpa2/bignum.o
                                                  libssl/ssl_x509.o
                                                  libssl/ssl_tls1.o
                                                  libssl/ssl_rsa.o
                                                  libssl/ssl_loader.o
                                                  libssl/ssl_crypto_misc.o
                                                  libssl/ssl_bigint.o
                                                  libssl/espconn_ssl.o
                                                  libssl/espconn_secure.o
                                                  libsmartconfig/sc_sniffer.o
                                                  libsmartconfig/sc_esptouch.o
                                                  libsmartconfig/sc_airkiss.o
                                                  libpp/pm.o
                                                  libpp/pm_for_bcn_only_mode.o
                                                  libpp/esf_buf.o
                                                  libnet80211/wl_cnx.o
                                                  libnet80211/ieee80211_sta.o
                                                  libnet80211/ieee80211_scan.o
                                                  libnet80211/ieee80211_phy.o
                                                  libnet80211/ieee80211.o
                                                  libnet80211/ieee80211_mesh_quick.o
                                                  libnet80211/ieee80211_hostap.o
                                                  libmesh/espconn_mesh.o
                                                  libmain/user_interface.o
                                                  libmain/app_main.o
                                                  liblwip/ping.o
                                                  liblwip/mdns.o
                                                  liblwip/espconn_udp.o
                                                  liblwip/espconn_tcp.o
                                                  liblwip/espconn.o
                                                  liblwip/espconn_buf.o
                                                  liblwip/dns.o
                                                  liblwip/dhcpserver.o
                                                  libespnow/simple_pair.o
                                                  libespnow/manatick.o
                                                  libcrypto/crypto_internal.o
                                                  libcrypto/crypto_internal-cipher.o
pvShowMalloc                                      libmain/mem_manager.o
pwm                                               libpwm/pwm.o
pwm_get_duty                                      libpwm/pwm.o
pwm_get_period                                    libpwm/pwm.o
pwm_init                                          libpwm/pwm.o
pwm_set_duty                                      libpwm/pwm.o
pwm_set_period                                    libpwm/pwm.o
pwm_start                                         libpwm/pwm.o
pwm_tim1_intr_handler                             libpwm/pwm.o
pwrsave_flushq                                    libnet80211/ieee80211_power.o
                                                  libnet80211/wl_cnx.o
                                                  libnet80211/ieee80211_hostap.o
r_rand                                            libwpa/os_xtensa.o
                                                  libssl/ssl_crypto_misc.o
                                                  libmesh/espconn_mesh.o
                                                  liblwip/igmp.o
ram_ana_inf_gating_en                             libphy/phy_chip_v6_ana.o
                                                  libphy/phy_chip_v6.o
ram_cal_tos_v60                                   libphy/phy_chip_v6_cal.o
                                                  libphy/phy_chip_v6.o
ram_chip_v6_rx_init                               libphy/phy_chip_v6_ana.o
                                                  libphy/phy_chip_v6.o
ram_get_bb_atten                                  libphy/phy_chip_v6_cal.o
ram_get_corr_power                                libphy/phy_chip_v6.o
ram_get_fm_sar_dout                               libphy/phy_chip_v6_cal.o
                                                  libphy/phy_chip_v6.o
ram_get_noisefloor                                libphy/phy_chip_v6.o
ram_pbus_debugmode                                libphy/phy_chip_v6_ana.o
                                                  libphy/phy_chip_v6.o
ram_pbus_set_rxgain                               libphy/phy_chip_v6_ana.o
                                                  libphy/phy_chip_v6.o
ram_pbus_xpd_tx_on                                libphy/phy_chip_v6_ana.o
                                                  libphy/phy_chip_v6.o
                                                  libphy/phy_chip_v6_cal.o
ram_restart_cal                                   libphy/phy_chip_v6_ana.o
                                                  libphy/phy_chip_v6.o
ram_rfcal_pwrctrl                                 libphy/phy_chip_v6_cal.o
                                                  libphy/phy_chip_v6.o
ram_rfcal_rxiq                                    libphy/phy_chip_v6_cal.o
                                                  libphy/phy_chip_v6.o
ram_rfcal_txcap                                   libphy/phy_chip_v6_cal.o
                                                  libphy/phy_chip_v6.o
ram_rfcal_txiq                                    libphy/phy_chip_v6_cal.o
                                                  libphy/phy_chip_v6.o
ram_rfpll_set_freq                                libphy/phy_chip_v6_ana.o
ram_rxiq_cover_mg_mp                              libphy/phy_chip_v6_cal.o
                                                  libphy/phy_chip_v6.o
ram_rxiq_get_mis                                  libphy/phy_chip_v6_cal.o
                                                  libphy/phy_chip_v6.o
ram_set_channel_freq                              libphy/phy_chip_v6_ana.o
ram_set_noise_floor                               libphy/phy_chip_v6.o
ram_set_txbb_atten                                libphy/phy_chip_v6_cal.o
                                                  libphy/phy_chip_v6.o
ram_start_noisefloor                              libphy/phy_chip_v6.o
ram_tx_mac_disable                                libphy/phy_chip_v6.o
ram_tx_mac_enable                                 libphy/phy_chip_v6.o
raw_bind                                          liblwip/raw.o
                                                  liblwip/ping.o
raw_connect                                       liblwip/raw.o
raw_input                                         liblwip/raw.o
                                                  liblwip/ip.o
raw_new                                           liblwip/raw.o
                                                  liblwip/ping.o
raw_recv                                          liblwip/raw.o
                                                  liblwip/ping.o
raw_remove                                        liblwip/raw.o
                                                  liblwip/ping.o
raw_send                                          liblwip/raw.o
raw_sendto                                        liblwip/raw.o
                                                  liblwip/ping.o
rc4_skip                                          libwpa/wpa.o
                                                  libwpa/wpa_auth.o
                                                  libcrypto/ms_funcs.o
                                                  libcrypto/crypto_internal-cipher.o
rcAttach                                          libpp/trc.o
                                                  libpp/lmac.o
rcGetRate                                         libpp/trc.o
                                                  libpp/lmac.o
rcGetSched                                        libpp/trc.o
                                                  libpp/pp.o
rcGetTrc                                          libpp/trc.o
rcReachRetryLimit                                 libpp/trc.o
                                                  libpp/lmac.o
rcUpdateDataRxDone                                libpp/trc.o
                                                  libpp/wdev.o
rcUpdatePhyMode                                   libpp/trc.o
                                                  libpp/if_hwctrl.o
rcUpdateRxDone                                    libpp/trc.o
                                                  libpp/pp.o
rcUpdateTxDone                                    libpp/trc.o
                                                  libpp/lmac.o
rc_cal                                            libphy/phy_chip_v6_cal.o
                                                  libphy/phy_chip_v6.o
rc_disable_trc                                    libpp/trc.o
                                                  libpp/if_hwctrl.o
rc_disable_trc_by_interface                       libpp/trc.o
                                                  libpp/if_hwctrl.o
rc_enable_trc                                     libpp/trc.o
                                                  libpp/if_hwctrl.o
rc_get_mask                                       libpp/trc.o
                                                  libpp/pm.o
rc_get_sta_trc                                    libpp/trc.o
                                                  libpp/pm.o
rc_get_trc                                        libpp/trc.o
                                                  libpp/pp.o
                                                  libpp/pm.o
                                                  libpp/if_hwctrl.o
rc_get_trc_by_index                               libpp/trc.o
                                                  libnet80211/ieee80211_output.o
                                                  libnet80211/ieee80211_ht.o
rc_only_sta_trc                                   libpp/trc.o
                                                  libpp/if_hwctrl.o
rc_set_rate_limit_id                              libpp/trc.o
                                                  libmain/user_interface.o
rcons                                             libcrypto/aes-internal.o
read_hw_noisefloor                                libphy/phy_chip_v6.o
                                                  libpp/pp.o
read_sar_dout                                     libphy/phy_chip_v6_cal.o
                                                  libphy/phy_chip_v6_ana.o
readvdd33                                         libphy/phy_chip_v6_ana.o
reconnect_flag                                    libnet80211/wl_cnx.o
                                                  libnet80211/ieee80211_sta.o
reconnect_internal                                libmain/user_interface.o
reduce_current_init                               libphy/phy_chip_v6.o
register_chipv6_phy                               libphy/phy_chip_v6.o
                                                  libphy/phy_sleep.o
                                                  libmain/app_main.o
register_chipv6_phy_init_param                    libphy/phy_chip_v6.o
register_get_phy_addr                             libphy/phy.o
                                                  libphy/phy_chip_v6.o
register_ieee80211_action_vendor_get_key_cb       libnet80211/ieee80211_action_vendor.o
                                                  libespnow/simple_pair.o
                                                  libespnow/manatick.o
register_ieee80211_action_vendor_spec_cb          libnet80211/ieee80211_action_vendor.o
                                                  libespnow/simple_pair.o
                                                  libespnow/manatick.o
register_ieee80211_rfid_locp_recv_cb              libnet80211/ieee80211_rfid.o
                                                  libmain/user_interface.o
register_phy_ops                                  libphy/phy.o
                                                  libphy/phy_chip_v6.o
register_simple_pair_status_cb                    libespnow/simple_pair.o
remove_ca_certs                                   libssl/ssl_asn1.o
                                                  libssl/ssl_tls1.o
res_buf                                           liblwip/sntp.o
reset_noise_timer                                 libpp/pp.o
                                                  libpp/pm.o
                                                  libpp/pm_for_bcn_only_mode.o
                                                  libnet80211/ieee80211_hostap.o
reult                                             liblwip/sntp.o
rf_cal_sec                                        libmain/app_main.o
                                                  libpp/pm.o
                                                  libpp/pm_for_bcn_only_mode.o
rf_init                                           libphy/phy.o
rfcal_bb_atten_init                               libphy/phy_chip_v6_cal.o
                                                  libphy/phy_chip_v6.o
rijndaelEncrypt                                   libcrypto/aes-internal-enc.o
rijndaelKeySetupEnc                               libcrypto/aes-internal.o
                                                  libcrypto/aes-internal-enc.o
                                                  libcrypto/aes-internal-dec.o
ringbuf_buffer_size                               liblwip/espconn_buf.o
ringbuf_bytes_free                                liblwip/espconn_buf.o
ringbuf_bytes_used                                liblwip/espconn_buf.o
                                                  liblwip/espconn.o
ringbuf_capacity                                  liblwip/espconn_buf.o
ringbuf_findchr                                   liblwip/espconn_buf.o
ringbuf_free                                      liblwip/espconn_buf.o
                                                  liblwip/espconn_tcp.o
ringbuf_head                                      liblwip/espconn_buf.o
ringbuf_is_empty                                  liblwip/espconn_buf.o
ringbuf_is_full                                   liblwip/espconn_buf.o
ringbuf_memcpy_from                               liblwip/espconn_buf.o
                                                  liblwip/espconn.o
ringbuf_memcpy_into                               liblwip/espconn_buf.o
                                                  liblwip/espconn_tcp.o
ringbuf_memset                                    liblwip/espconn_buf.o
ringbuf_new                                       liblwip/espconn_buf.o
                                                  liblwip/espconn_tcp.o
ringbuf_reset                                     liblwip/espconn_buf.o
ringbuf_tail                                      liblwip/espconn_buf.o
rom_chip_v5_disable_cca                           libphy/phy_chip_v6.o
rom_chip_v5_enable_cca                            libphy/phy_chip_v6.o
roundup2                                          libpp/wdev.o
                                                  libnet80211/ieee80211_ets.o
rsn_cipher_put_suites                             libwpa/wpa_common.o
                                                  libwpa/wpa_auth_ie.o
rsn_pmkid                                         libwpa/wpa_common.o
                                                  libwpa/wpa_auth.o
rst_if                                            libmain/user_interface.o
                                                  libmain/app_main.o
rtc_get_reset_reason                              libmain/app_main.o
rtc_mem_backup                                    libphy/phy_chip_v6.o
                                                  libphy/phy_chip_v6_cal.o
rtc_mem_check                                     libphy/phy_chip_v6.o
rtc_mem_recovery                                  libphy/phy_chip_v6.o
rx_gain_swp                                       libphy/phy_chip_v6.o
rx_table_renew_en                                 libphy/phy_chip_v6.o
rxiq_compute_num                                  libphy/phy_chip_v6.o
rxiq_cover_fail_num                               libphy/phy_chip_v6_cal.o
rxmax_ext_level                                   libphy/phy_chip_v6.o
                                                  libphy/phy_chip_v6_ana.o
sc_PackCallback                                   libsmartconfig/sc_sniffer.o
sc_channel_timer_cb                               libsmartconfig/sc_sniffer.o
                                                  libsmartconfig/sc_esptouch.o
                                                  libsmartconfig/sc_airkiss.o
sc_free_snif_glob                                 libsmartconfig/sc_sniffer.o
sc_init_snif_glob                                 libsmartconfig/sc_sniffer.o
sc_smartconfig_restart                            libsmartconfig/sc_sniffer.o
                                                  libsmartconfig/sc_esptouch.o
                                                  libsmartconfig/sc_airkiss.o
sc_system_init_done                               libsmartconfig/sc_sniffer.o
sc_wifi_scan_done                                 libsmartconfig/sc_sniffer.o
scan_add_bssid                                    libnet80211/ieee80211_scan.o
                                                  libnet80211/wl_cnx.o
scan_add_probe_ssid                               libnet80211/ieee80211_scan.o
                                                  libnet80211/wl_cnx.o
scan_cancel                                       libnet80211/ieee80211_scan.o
                                                  libmain/user_interface.o
scan_check_hidden                                 libnet80211/ieee80211_scan.o
scan_clear_channles                               libnet80211/ieee80211_scan.o
scan_connect_state                                libnet80211/ieee80211_scan.o
                                                  libpp/pp.o
scan_get_type                                     libnet80211/ieee80211_scan.o
                                                  libnet80211/wl_cnx.o
scan_hidden_ssid                                  libnet80211/ieee80211_scan.o
                                                  libnet80211/wl_cnx.o
scan_parse_beacon                                 libnet80211/ieee80211_scan.o
                                                  libnet80211/ieee80211_sta.o
scan_pm_channel_op_cb                             libnet80211/ieee80211_scan.o
scan_profile_check                                libnet80211/ieee80211_scan.o
scan_remove_bssid                                 libnet80211/ieee80211_scan.o
                                                  libnet80211/wl_cnx.o
scan_remove_probe_ssid                            libnet80211/ieee80211_scan.o
                                                  libnet80211/wl_cnx.o
scan_set_desChan                                  libnet80211/ieee80211_scan.o
                                                  libnet80211/wl_cnx.o
scan_start                                        libnet80211/ieee80211_scan.o
                                                  libnet80211/wl_cnx.o
scannum                                           libnet80211/ieee80211_scan.o
                                                  libmain/user_interface.o
sdt_on_noise_start                                libphy/phy_chip_v6.o
send_alert                                        libssl/ssl_tls1.o
send_certificate                                  libssl/ssl_tls1.o
                                                  libssl/ssl_tls1_svr.o
                                                  libssl/ssl_tls1_clnt.o
send_change_cipher_spec                           libssl/ssl_tls1.o
                                                  libssl/ssl_tls1_svr.o
                                                  libssl/ssl_tls1_clnt.o
send_finished                                     libssl/ssl_tls1.o
                                                  libssl/ssl_tls1_svr.o
                                                  libssl/ssl_tls1_clnt.o
send_packet                                       libssl/ssl_tls1.o
                                                  libssl/ssl_tls1_svr.o
                                                  libssl/ssl_tls1_clnt.o
set_cal_rxdc                                      libphy/phy_chip_v6.o
set_crystal_uart                                  libphy/phy_chip_v6.o
set_dpd_bypass                                    libphy/phy_chip_v6.o
set_most_pwr_reg                                  libphy/phy_chip_v6.o
set_pwm_debug_en                                  libpwm/pwm.o
set_rf_freq_offset                                libphy/phy_chip_v6_ana.o
set_rf_gain_stage10                               libphy/phy_chip_v6.o
set_rfanagain_dc_reg                              libphy/phy_chip_v6_cal.o
                                                  libphy/phy_chip_v6.o
set_rx_gain_cal_iq                                libphy/phy_chip_v6.o
set_rx_gain_testchip_50                           libphy/phy_chip_v6.o
set_txcap_reg                                     libphy/phy_chip_v6_ana.o
                                                  libphy/phy_chip_v6.o
set_txdc_pbus                                     libphy/phy_chip_v6_cal.o
                                                  libphy/phy_chip_v6.o
sha1_prf                                          libwpa/wpa_common.o
                                                  libwpa/wpa_auth.o
sha1_vector                                       libwps/wps_common.o
                                                  libwpa2/x509v3.o
                                                  libcrypto/ms_funcs.o
sha256_done                                       libcrypto/sha256-internal.o
                                                  libcrypto/crypto_internal.o
sha256_init                                       libcrypto/sha256-internal.o
                                                  libcrypto/crypto_internal.o
sha256_prf                                        libcrypto/sha256.o
sha256_process                                    libcrypto/sha256-internal.o
                                                  libcrypto/crypto_internal.o
sha256_vector                                     libcrypto/sha256-internal.o
                                                  libwps/wps_common.o
                                                  libwpa2/x509v3.o
                                                  libcrypto/sha256.o
show_buf                                          libwps/wps.o
simple_pair_ap_enter_announce_mode                libespnow/simple_pair.o
simple_pair_ap_refuse_negotiate                   libespnow/simple_pair.o
simple_pair_ap_start_negotiate                    libespnow/simple_pair.o
simple_pair_deinit                                libespnow/simple_pair.o
simple_pair_enter_state                           libespnow/simple_pair.o
simple_pair_get_peer_mac                          libespnow/simple_pair.o
simple_pair_get_peer_ref                          libespnow/simple_pair.o
simple_pair_get_state                             libespnow/simple_pair.o
simple_pair_get_version                           libespnow/simple_pair.o
simple_pair_init                                  libespnow/simple_pair.o
simple_pair_set_peer_ref                          libespnow/simple_pair.o
simple_pair_sta_enter_scan_mode                   libespnow/simple_pair.o
simple_pair_sta_start_negotiate                   libespnow/simple_pair.o
simple_pair_state_reset                           libespnow/simple_pair.o
skip_atoi                                         libmain/eagle_lib.o
sleep_mode_flag                                   libphy/phy_chip_v6_ana.o
                                                  libphy/phy_sleep.o
sleep_opt_8266                                    libphy/phy_sleep.o
sleep_opt_bb_on_8266                              libphy/phy_sleep.o
sleep_reset_analog_rtcreg_8266                    libphy/phy_sleep.o
                                                  libmain/app_main.o
sleep_start_wait_time                             libpp/pp.o
                                                  libpp/pm.o
smartconfig_cb                                    libsmartconfig/sc_sniffer.o
                                                  libsmartconfig/sc_esptouch.o
                                                  libsmartconfig/sc_airkiss.o
smartconfig_get_status                            libsmartconfig/sc_sniffer.o
smartconfig_get_version                           libsmartconfig/sc_sniffer.o
smartconfig_set_type                              libsmartconfig/sc_sniffer.o
smartconfig_start                                 libsmartconfig/sc_sniffer.o
smartconfig_stop                                  libsmartconfig/sc_sniffer.o
sntp__tzcalc_limits                               liblwip/sntp.o
sntp__tzrule                                      liblwip/sntp.o
sntp_asctime                                      liblwip/sntp.o
sntp_asctime_r                                    liblwip/sntp.o
sntp_get_current_timestamp                        liblwip/sntp.o
                                                  libmain/time.o
sntp_get_real_time                                liblwip/sntp.o
                                                  libmain/time.o
sntp_get_rtc_time                                 libmain/time.o
sntp_get_timetype                                 liblwip/sntp.o
                                                  libmain/time.o
sntp_get_timezone                                 liblwip/sntp.o
sntp_getserver                                    liblwip/sntp.o
sntp_getservername                                liblwip/sntp.o
sntp_init                                         liblwip/sntp.o
                                                  libmain/time.o
sntp_localtime                                    liblwip/sntp.o
sntp_localtime_r                                  liblwip/sntp.o
sntp_mktm_r                                       liblwip/sntp.o
sntp_receive_time_size                            liblwip/sntp.o
sntp_set_daylight                                 liblwip/sntp.o
                                                  libmain/time.o
sntp_set_receive_time_size                        liblwip/sntp.o
                                                  libmain/time.o
sntp_set_timetype                                 liblwip/sntp.o
                                                  libmain/time.o
sntp_set_timezone                                 liblwip/sntp.o
                                                  libmain/time.o
sntp_set_update_delay                             liblwip/sntp.o
                                                  libmain/time.o
sntp_setserver                                    liblwip/sntp.o
sntp_setservername                                liblwip/sntp.o
                                                  libmain/time.o
sntp_stop                                         liblwip/sntp.o
                                                  libmain/time.o
sntp_time_inc                                     liblwip/sntp.o
sntp_update_rtc                                   libmain/time.o
                                                  liblwip/sntp.o
soft_wdt_interval                                 libpp/pp.o
software_slp_reject                               libphy/phy_sleep.o
spi_flash_check_wr_protect                        libmain/spi_flash.o
spi_flash_enable_qmode                            libmain/spi_flash.o
                                                  libmain/app_main.o
spi_flash_erase_sector                            libmain/spi_flash.o
                                                  libmain/user_interface.o
spi_flash_get_id                                  libmain/spi_flash.o
                                                  libmain/app_main.o
spi_flash_get_unique_id                           libmain/spi_flash.o
spi_flash_issi_enable_QIO_mode                    libmain/spi_flash.o
                                                  libmain/app_main.o
spi_flash_read                                    libmain/spi_flash.o
                                                  libssl/espconn_ssl.o
                                                  libpp/pm.o
                                                  libpp/pm_for_bcn_only_mode.o
                                                  libmain/user_interface.o
                                                  libmain/app_main.o
spi_flash_read_status                             libmain/spi_flash.o
spi_flash_set_read_func                           libmain/spi_flash.o
spi_flash_write                                   libmain/spi_flash.o
                                                  libmain/user_interface.o
spi_flash_write_status                            libmain/spi_flash.o
ssl_ctx_free                                      libssl/ssl_tls1.o
                                                  libssl/espconn_ssl.o
ssl_ctx_new                                       libssl/ssl_tls1.o
                                                  libssl/espconn_ssl.o
ssl_display_error                                 libssl/ssl_tls1.o
                                                  libssl/espconn_ssl.o
ssl_free                                          libssl/ssl_tls1.o
                                                  libssl/ssl_tls1_clnt.o
                                                  libssl/espconn_ssl.o
ssl_get_cert_dn                                   libssl/ssl_tls1.o
                                                  libssl/espconn_ssl.o
ssl_get_cert_subject_alt_dnsname                  libssl/ssl_tls1.o
ssl_get_cipher_id                                 libssl/ssl_tls1.o
                                                  libssl/espconn_ssl.o
ssl_get_config                                    libssl/ssl_tls1.o
                                                  libssl/ssl_crypto_misc.o
                                                  libssl/espconn_ssl.o
ssl_get_session_id                                libssl/ssl_tls1.o
                                                  libssl/espconn_ssl.o
ssl_get_session_id_size                           libssl/ssl_tls1.o
                                                  libssl/espconn_ssl.o
ssl_handshake_status                              libssl/ssl_tls1.o
                                                  libssl/espconn_ssl.o
ssl_hmac_md5                                      libssl/ssl_hmac.o
                                                  libssl/ssl_tls1.o
ssl_hmac_sha1                                     libssl/ssl_hmac.o
                                                  libssl/ssl_tls1.o
ssl_new_context                                   libssl/ssl_tls1.o
                                                  libssl/ssl_tls1_svr.o
                                                  libssl/ssl_tls1_clnt.o
ssl_obj_free                                      libssl/ssl_loader.o
ssl_obj_load                                      libssl/ssl_loader.o
                                                  libssl/espconn_ssl.o
ssl_obj_memory_load                               libssl/ssl_loader.o
ssl_option                                        libssl/espconn_secure.o
                                                  libssl/ssl_tls1.o
                                                  libssl/espconn_ssl.o
ssl_prot_prefs                                    libssl/ssl_tls1.o
                                                  libssl/ssl_tls1_svr.o
                                                  libssl/ssl_tls1_clnt.o
ssl_read                                          libssl/ssl_tls1.o
                                                  libssl/espconn_ssl.o
ssl_renegotiate                                   libssl/ssl_tls1.o
ssl_session_update                                libssl/ssl_tls1.o
                                                  libssl/ssl_tls1_svr.o
                                                  libssl/ssl_tls1_clnt.o
ssl_verify_cert                                   libssl/ssl_tls1.o
ssl_version                                       libssl/ssl_tls1.o
ssl_write                                         libssl/ssl_tls1.o
                                                  libssl/espconn_ssl.o
sslserver_new                                     libssl/ssl_tls1_svr.o
                                                  libssl/espconn_ssl.o
sta_con_timer                                     libnet80211/wl_cnx.o
                                                  libmain/user_interface.o
sta_input                                         libnet80211/ieee80211_sta.o
                                                  libpp/pp.o
sta_status_set                                    libnet80211/ieee80211_sta.o
                                                  libnet80211/wl_cnx.o
start_dig_rx                                      libphy/phy_chip_v6.o
                                                  libphy/phy_chip_v6_ana.o
status_led_output_level                           libmain/user_interface.o
stop_dig_rx                                       libphy/phy_chip_v6.o
                                                  libphy/phy_chip_v6_ana.o
strcasecmp                                        /mnt/hdd/projects-3rdparty/xtensa/esp-open-sdk/xtensa-lx106-elf/bin/../lib/gcc/xtensa-lx106-elf/4.8.5/../../../../xtensa-lx106-elf/lib/libc.a(lib_a-strcasecmp.o)
                                                  libwpa2/x509v3.o
strtol                                            /mnt/hdd/projects-3rdparty/xtensa/esp-open-sdk/xtensa-lx106-elf/bin/../lib/gcc/xtensa-lx106-elf/4.8.5/../../../../xtensa-lx106-elf/lib/libc.a(lib_a-strtol.o)
                                                  /mnt/hdd/projects-3rdparty/xtensa/esp-open-sdk/xtensa-lx106-elf/bin/../lib/gcc/xtensa-lx106-elf/4.8.5/../../../../xtensa-lx106-elf/lib/libc.a(lib_a-atoi.o)
sw_scan_mode                                      libphy/phy_chip_v6.o
sys_check_timeouts                                liblwip/timers.o
                                                  libmain/app_main.o
sys_restart_timeouts                              liblwip/timers.o
sys_timeout                                       liblwip/timers.o
                                                  libwps/wps_registrar.o
                                                  liblwip/sntp.o
                                                  liblwip/ping.o
sys_timeouts_init                                 liblwip/timers.o
                                                  liblwip/init.o
sys_untimeout                                     liblwip/timers.o
                                                  libwps/wps_registrar.o
                                                  liblwip/sntp.o
                                                  liblwip/ping.o
system_adc_read                                   libmain/user_interface.o
system_adc_read_fast                              libmain/user_interface.o
system_deep_sleep                                 libmain/user_interface.o
system_deep_sleep_instant                         libmain/user_interface.o
system_deep_sleep_local_2                         libmain/user_interface.o
system_deep_sleep_set_option                      libmain/user_interface.o
system_get_boot_mode                              libmain/user_interface.o
system_get_boot_version                           libmain/user_interface.o
system_get_checksum                               libmain/user_interface.o
                                                  libmain/app_main.o
system_get_chip_id                                libmain/user_interface.o
system_get_cpu_freq                               libmain/user_interface.o
system_get_data_of_array_16                       libmain/user_interface.o
system_get_data_of_array_8                        libmain/user_interface.o
                                                  liblwip/tcp.o
system_get_flash_size_map                         libmain/user_interface.o
system_get_free_heap_size                         libmain/user_interface.o
                                                  libssl/espconn_ssl.o
                                                  libssl/espconn_secure.o
                                                  libsmartconfig/sc_sniffer.o
                                                  libmesh/espconn_mesh.o
system_get_os_print                               libmain/user_interface.o
system_get_rst_info                               libmain/user_interface.o
system_get_rtc_time                               libmain/user_interface.o
                                                  libmain/time.o
system_get_sdk_version                            libmain/user_interface.o
system_get_string_from_flash                      libmain/user_interface.o
                                                  libwpa/wpa.o
                                                  libwpa/wpa_common.o
                                                  libwpa/wpa_auth.o
                                                  libmain/mem_manager.o
system_get_test_result                            libmain/user_interface.o
system_get_time                                   libmain/user_interface.o
                                                  libmesh/espconn_mesh.o
                                                  libmain/time.o
                                                  libmain/app_main.o
                                                  liblwip/ping.o
system_get_userbin_addr                           libmain/user_interface.o
system_get_vdd33                                  libmain/user_interface.o
system_init_done_cb                               libmain/user_interface.o
                                                  libsmartconfig/sc_sniffer.o
system_mktime                                     libmain/user_interface.o
system_os_post                                    libmain/user_interface.o
system_os_task                                    libmain/user_interface.o
system_overclock                                  libmain/user_interface.o
                                                  libwpa/wpa.o
                                                  libssl/espconn_ssl.o
system_param_load                                 libmain/user_interface.o
system_param_save_with_protect                    libmain/user_interface.o
                                                  libmain/app_main.o
system_phy_freq_trace_enable                      libmain/app_main.o
system_phy_set_max_tpw                            libmain/user_interface.o
system_phy_set_powerup_option                     libmain/user_interface.o
system_phy_set_rfoption                           libmain/user_interface.o
system_phy_set_tpw_via_vdd33                      libmain/user_interface.o
system_phy_temperature_alert                      libmain/user_interface.o
system_pp_recycle_rx_pkt                          libmain/user_interface.o
                                                  liblwip/pbuf.o
system_print_meminfo                              libmain/user_interface.o
system_relative_time                              libmain/user_interface.o
                                                  liblwip/ping.o
system_restart                                    libmain/user_interface.o
system_restart_core                               libmain/user_interface.o
system_restart_enhance                            libmain/user_interface.o
system_restart_hook                               libmain/user_interface.o
system_restart_local                              libmain/user_interface.o
                                                  libpp/pp.o
                                                  libmain/app_main.o
system_restore                                    libmain/user_interface.o
system_restoreclock                               libmain/user_interface.o
                                                  libwpa/wpa.o
                                                  libssl/espconn_ssl.o
system_rtc_clock_cali_proc                        libmain/user_interface.o
                                                  libmain/time.o
system_rtc_mem_read                               libmain/user_interface.o
                                                  libmain/app_main.o
system_rtc_mem_write                              libmain/user_interface.o
                                                  libpp/pp.o
                                                  libmain/app_main.o
system_save_sys_param                             libmain/user_interface.o
                                                  libmesh/espconn_mesh.o
system_set_os_print                               libmain/user_interface.o
system_show_malloc                                libmain/mem_manager.o
                                                  libmesh/espconn_mesh.o
system_soft_wdt_feed                              libpp/pp.o
system_soft_wdt_restart                           libpp/pp.o
system_soft_wdt_stop                              libpp/pp.o
system_station_got_ip_set                         libmain/user_interface.o
                                                  libwpa/wpa_main.o
                                                  liblwip/dhcp.o
system_timer_reinit                               libmain/user_interface.o
system_uart_de_swap                               libmain/user_interface.o
                                                  libmain/app_main.o
system_uart_swap                                  libmain/user_interface.o
                                                  libmain/app_main.o
system_update_cpu_freq                            libmain/user_interface.o
system_upgrade_flag_check                         libmain/user_interface.o
system_upgrade_flag_set                           libmain/user_interface.o
system_upgrade_reboot                             libmain/user_interface.o
system_upgrade_userbin_check                      libmain/user_interface.o
system_upgrade_userbin_set                        libmain/user_interface.o
target_power_add_backoff                          libphy/phy_chip_v6.o
target_power_backoff                              libphy/phy_chip_v6.o
tcb                                               libpp/pp.o
tcp_abandon                                       liblwip/tcp.o
                                                  libssl/espconn_ssl.o
                                                  liblwip/tcp_in.o
                                                  liblwip/espconn_tcp.o
tcp_abort                                         liblwip/tcp.o
                                                  liblwip/tcp_in.o
                                                  liblwip/netif.o
                                                  liblwip/espconn_tcp.o
tcp_accept                                        liblwip/tcp.o
                                                  libssl/espconn_ssl.o
                                                  liblwip/netio.o
                                                  liblwip/espconn_tcp.o
tcp_active_pcbs                                   liblwip/tcp.o
                                                  libssl/espconn_ssl.o
                                                  liblwip/timers.o
                                                  liblwip/tcp_in.o
                                                  liblwip/pbuf.o
                                                  liblwip/netif.o
                                                  liblwip/espconn_tcp.o
tcp_alloc                                         liblwip/tcp.o
                                                  liblwip/tcp_in.o
tcp_arg                                           liblwip/tcp.o
                                                  libssl/espconn_ssl.o
                                                  liblwip/netio.o
                                                  liblwip/espconn_tcp.o
tcp_backoff                                       liblwip/tcp.o
tcp_bind                                          liblwip/tcp.o
                                                  libssl/espconn_ssl.o
                                                  liblwip/netio.o
                                                  liblwip/espconn_tcp.o
tcp_bound_pcbs                                    liblwip/tcp.o
tcp_close                                         liblwip/tcp.o
                                                  libssl/espconn_ssl.o
                                                  liblwip/netio.o
                                                  liblwip/espconn_tcp.o
tcp_connect                                       liblwip/tcp.o
                                                  libssl/espconn_ssl.o
                                                  liblwip/espconn_tcp.o
tcp_eff_send_mss                                  liblwip/tcp.o
                                                  liblwip/tcp_in.o
tcp_enqueue_flags                                 liblwip/tcp_out.o
                                                  liblwip/tcp.o
                                                  liblwip/tcp_in.o
tcp_err                                           liblwip/tcp.o
                                                  libssl/espconn_ssl.o
                                                  liblwip/espconn_tcp.o
tcp_fasttmr                                       liblwip/tcp.o
tcp_input                                         liblwip/tcp_in.o
                                                  liblwip/ip.o
tcp_input_pcb                                     liblwip/tcp_in.o
                                                  liblwip/tcp_out.o
tcp_keepalive                                     liblwip/tcp_out.o
                                                  liblwip/tcp.o
tcp_listen_pcbs                                   liblwip/tcp.o
                                                  liblwip/tcp_in.o
                                                  liblwip/netif.o
tcp_listen_with_backlog                           liblwip/tcp.o
                                                  libssl/espconn_ssl.o
                                                  liblwip/netio.o
                                                  liblwip/espconn_tcp.o
tcp_new                                           liblwip/tcp.o
                                                  libssl/espconn_ssl.o
                                                  liblwip/netio.o
                                                  liblwip/espconn_tcp.o
tcp_next_iss                                      liblwip/tcp.o
tcp_output                                        liblwip/tcp_out.o
                                                  libssl/ssl_tls1.o
                                                  libssl/espconn_ssl.o
                                                  liblwip/tcp.o
                                                  liblwip/tcp_in.o
                                                  liblwip/espconn_tcp.o
tcp_pcb_lists                                     liblwip/tcp.o
                                                  liblwip/espconn_tcp.o
tcp_pcb_purge                                     liblwip/tcp.o
                                                  liblwip/tcp_in.o
                                                  liblwip/espconn_tcp.o
tcp_pcb_remove                                    liblwip/tcp.o
                                                  liblwip/tcp_in.o
                                                  liblwip/espconn_tcp.o
tcp_persist_backoff                               liblwip/tcp.o
tcp_poll                                          liblwip/tcp.o
                                                  libssl/espconn_ssl.o
                                                  liblwip/netio.o
                                                  liblwip/espconn_tcp.o
tcp_recv                                          liblwip/tcp.o
                                                  libssl/espconn_ssl.o
                                                  liblwip/netio.o
                                                  liblwip/espconn_tcp.o
tcp_recv_null                                     liblwip/tcp.o
                                                  liblwip/tcp_in.o
tcp_recved                                        liblwip/tcp.o
                                                  libssl/espconn_ssl.o
                                                  liblwip/netio.o
                                                  liblwip/espconn_tcp.o
tcp_rexmit                                        liblwip/tcp_out.o
                                                  liblwip/tcp_in.o
tcp_rexmit_fast                                   liblwip/tcp_out.o
                                                  liblwip/tcp_in.o
tcp_rexmit_rto                                    liblwip/tcp_out.o
                                                  liblwip/tcp.o
tcp_rst                                           liblwip/tcp_out.o
                                                  liblwip/tcp.o
                                                  liblwip/tcp_in.o
tcp_seg_copy                                      liblwip/tcp.o
                                                  liblwip/tcp_in.o
tcp_seg_free                                      liblwip/tcp.o
                                                  liblwip/tcp_out.o
                                                  liblwip/tcp_in.o
                                                  liblwip/pbuf.o
tcp_segs_free                                     liblwip/tcp.o
                                                  liblwip/tcp_out.o
                                                  liblwip/tcp_in.o
tcp_send_empty_ack                                liblwip/tcp_out.o
                                                  liblwip/tcp_in.o
tcp_send_fin                                      liblwip/tcp_out.o
                                                  liblwip/tcp.o
tcp_sent                                          liblwip/tcp.o
                                                  libssl/espconn_ssl.o
                                                  liblwip/netio.o
                                                  liblwip/espconn_tcp.o
tcp_setprio                                       liblwip/tcp.o
tcp_shutdown                                      liblwip/tcp.o
tcp_slowtmr                                       liblwip/tcp.o
tcp_ticks                                         liblwip/tcp.o
                                                  liblwip/tcp_out.o
                                                  liblwip/tcp_in.o
                                                  liblwip/espconn_tcp.o
tcp_timer_needed                                  liblwip/timers.o
                                                  liblwip/tcp.o
                                                  liblwip/tcp_in.o
tcp_tmp_pcb                                       liblwip/tcp.o
                                                  liblwip/tcp_in.o
tcp_tmr                                           liblwip/tcp.o
                                                  liblwip/timers.o
tcp_tw_pcbs                                       liblwip/tcp.o
                                                  libssl/espconn_ssl.o
                                                  liblwip/timers.o
                                                  liblwip/tcp_in.o
                                                  liblwip/espconn_tcp.o
tcp_update_rcv_ann_wnd                            liblwip/tcp.o
                                                  liblwip/tcp_in.o
tcp_write                                         liblwip/tcp_out.o
                                                  libssl/ssl_tls1.o
                                                  libssl/espconn_ssl.o
                                                  liblwip/netio.o
                                                  liblwip/espconn_tcp.o
tcp_zero_window_probe                             liblwip/tcp_out.o
                                                  liblwip/tcp.o
test_print_time                                   libphy/phy_chip_v6.o
test_rffreq_txcap                                 libphy/phy_chip_v6.o
test_tout                                         libphy/phy_chip_v6_ana.o
                                                  libmain/user_interface.o
time                                              libmain/time.o
time_zone                                         liblwip/sntp.o
timer2_ms_flag                                    libmain/user_interface.o
                                                  libpp/pm.o
                                                  libpp/pm_for_bcn_only_mode.o
                                                  libmain/ets_timer.o
                                                  liblwip/timers.o
timer_list                                        libmain/ets_timer.o
                                                  libpp/pm.o
                                                  libpp/pm_for_bcn_only_mode.o
tkip                                              libnet80211/ieee80211_crypto_tkip.o
                                                  libwpa/wpa_main.o
                                                  libwpa/wpa_auth.o
tls_alert                                         libwpa2/tlsv1_client.o
                                                  libwpa2/tlsv1_client_write.o
                                                  libwpa2/tlsv1_client_read.o
tls_capabilities                                  libwpa2/tls_internal.o
tls_connection_client_hello_ext                   libwpa2/tls_internal.o
tls_connection_decrypt                            libwpa2/tls_internal.o
                                                  libwpa2/eap_tls_common.o
tls_connection_decrypt2                           libwpa2/tls_internal.o
tls_connection_deinit                             libwpa2/tls_internal.o
                                                  libwpa2/eap_tls_common.o
tls_connection_enable_workaround                  libwpa2/tls_internal.o
tls_connection_encrypt                            libwpa2/tls_internal.o
                                                  libwpa2/eap_tls_common.o
tls_connection_established                        libwpa2/tls_internal.o
                                                  libwpa2/eap_ttls.o
                                                  libwpa2/eap_tls.o
                                                  libwpa2/eap_tls_common.o
                                                  libwpa2/eap_peap.o
tls_connection_get_failed                         libwpa2/tls_internal.o
                                                  libwpa2/eap_tls_common.o
tls_connection_get_keyblock_size                  libwpa2/tls_internal.o
tls_connection_get_keys                           libwpa2/tls_internal.o
                                                  libwpa2/eap_tls_common.o
tls_connection_get_read_alerts                    libwpa2/tls_internal.o
tls_connection_get_write_alerts                   libwpa2/tls_internal.o
tls_connection_handshake                          libwpa2/tls_internal.o
                                                  libwpa2/eap_tls_common.o
tls_connection_handshake2                         libwpa2/tls_internal.o
tls_connection_init                               libwpa2/tls_internal.o
                                                  libwpa2/eap_tls_common.o
tls_connection_prf                                libwpa2/tls_internal.o
                                                  libwpa2/eap_tls_common.o
tls_connection_resumed                            libwpa2/tls_internal.o
                                                  libwpa2/eap_ttls.o
                                                  libwpa2/eap_peap.o
tls_connection_server_handshake                   libwpa2/tls_internal.o
tls_connection_set_cipher_list                    libwpa2/tls_internal.o
tls_connection_set_params                         libwpa2/tls_internal.o
                                                  libwpa2/eap_tls_common.o
tls_connection_set_session_ticket_cb              libwpa2/tls_internal.o
tls_connection_set_verify                         libwpa2/tls_internal.o
tls_connection_shutdown                           libwpa2/tls_internal.o
                                                  libwpa2/eap_tls_common.o
tls_deinit                                        libwpa2/tls_internal.o
                                                  libwpa2/eap.o
tls_derive_keys                                   libwpa2/tlsv1_client.o
                                                  libwpa2/tlsv1_client_write.o
                                                  libwpa2/tlsv1_client_read.o
tls_derive_pre_master_secret                      libwpa2/tlsv1_client.o
                                                  libwpa2/tlsv1_client_write.o
tls_get_cipher                                    libwpa2/tls_internal.o
                                                  libwpa2/eap_tls_common.o
tls_get_cipher_data                               libwpa2/tlsv1_common.o
                                                  libwpa2/tlsv1_record.o
tls_get_cipher_suite                              libwpa2/tlsv1_common.o
                                                  libwpa2/tlsv1_server_write.o
                                                  libwpa2/tlsv1_server_read.o
                                                  libwpa2/tlsv1_record.o
                                                  libwpa2/tlsv1_client_write.o
                                                  libwpa2/tlsv1_client_read.o
tls_get_errors                                    libwpa2/tls_internal.o
                                                  libwpa2/eap_tls_common.o
tls_global_set_params                             libwpa2/tls_internal.o
tls_global_set_verify                             libwpa2/tls_internal.o
tls_init                                          libwpa2/tls_internal.o
                                                  libwpa2/eap.o
tls_parse_cert                                    libwpa2/tlsv1_common.o
                                                  libwpa2/tlsv1_server_read.o
                                                  libwpa2/tlsv1_client_read.o
tls_prf                                           libwpa2/tlsv1_common.o
                                                  libwpa2/tlsv1_server_write.o
                                                  libwpa2/tlsv1_server_read.o
                                                  libwpa2/tlsv1_server.o
                                                  libwpa2/tlsv1_client_write.o
                                                  libwpa2/tlsv1_client_read.o
                                                  libwpa2/tlsv1_client.o
tls_prf_sha1_md5                                  libwpa2/tls_internal.o
                                                  libwpa2/tlsv1_common.o
                                                  libwpa2/eap_tls_common.o
tls_send_client_hello                             libwpa2/tlsv1_client_write.o
                                                  libwpa2/tlsv1_client.o
tls_server_key_exchange_allowed                   libwpa2/tlsv1_common.o
                                                  libwpa2/tlsv1_server_write.o
                                                  libwpa2/tlsv1_client_read.o
tls_verify_hash_add                               libwpa2/tlsv1_common.o
                                                  libwpa2/tlsv1_server_write.o
                                                  libwpa2/tlsv1_server_read.o
                                                  libwpa2/tlsv1_client_write.o
                                                  libwpa2/tlsv1_client_read.o
tls_verify_hash_free                              libwpa2/tlsv1_common.o
                                                  libwpa2/tlsv1_server.o
                                                  libwpa2/tlsv1_client.o
tls_verify_hash_init                              libwpa2/tlsv1_common.o
                                                  libwpa2/tlsv1_server.o
                                                  libwpa2/tlsv1_client.o
tls_version_ok                                    libwpa2/tlsv1_common.o
                                                  libwpa2/tlsv1_client_read.o
tls_version_str                                   libwpa2/tlsv1_common.o
tlsv1_client_decrypt                              libwpa2/tlsv1_client.o
                                                  libwpa2/tls_internal.o
tlsv1_client_deinit                               libwpa2/tlsv1_client.o
                                                  libwpa2/tls_internal.o
tlsv1_client_encrypt                              libwpa2/tlsv1_client.o
                                                  libwpa2/tls_internal.o
tlsv1_client_established                          libwpa2/tlsv1_client.o
                                                  libwpa2/tls_internal.o
tlsv1_client_free_dh                              libwpa2/tlsv1_client.o
                                                  libwpa2/tlsv1_client_write.o
                                                  libwpa2/tlsv1_client_read.o
tlsv1_client_get_cipher                           libwpa2/tlsv1_client.o
                                                  libwpa2/tls_internal.o
tlsv1_client_get_keyblock_size                    libwpa2/tlsv1_client.o
                                                  libwpa2/tls_internal.o
tlsv1_client_get_keys                             libwpa2/tlsv1_client.o
                                                  libwpa2/tls_internal.o
tlsv1_client_global_deinit                        libwpa2/tlsv1_client.o
                                                  libwpa2/tls_internal.o
tlsv1_client_global_init                          libwpa2/tlsv1_client.o
                                                  libwpa2/tls_internal.o
tlsv1_client_handshake                            libwpa2/tlsv1_client.o
                                                  libwpa2/tls_internal.o
tlsv1_client_handshake_write                      libwpa2/tlsv1_client_write.o
                                                  libwpa2/tlsv1_client.o
tlsv1_client_hello_ext                            libwpa2/tlsv1_client.o
                                                  libwpa2/tls_internal.o
tlsv1_client_init                                 libwpa2/tlsv1_client.o
                                                  libwpa2/tls_internal.o
tlsv1_client_prf                                  libwpa2/tlsv1_client.o
                                                  libwpa2/tls_internal.o
tlsv1_client_process_handshake                    libwpa2/tlsv1_client_read.o
                                                  libwpa2/tlsv1_client.o
tlsv1_client_resumed                              libwpa2/tlsv1_client.o
                                                  libwpa2/tls_internal.o
tlsv1_client_send_alert                           libwpa2/tlsv1_client_write.o
                                                  libwpa2/tlsv1_client.o
tlsv1_client_set_cipher_list                      libwpa2/tlsv1_client.o
                                                  libwpa2/tls_internal.o
tlsv1_client_set_cred                             libwpa2/tlsv1_client.o
                                                  libwpa2/tls_internal.o
tlsv1_client_set_session_ticket_cb                libwpa2/tlsv1_client.o
                                                  libwpa2/tls_internal.o
tlsv1_client_set_time_checks                      libwpa2/tlsv1_client.o
                                                  libwpa2/tls_internal.o
tlsv1_client_shutdown                             libwpa2/tlsv1_client.o
                                                  libwpa2/tls_internal.o
tlsv1_cred_alloc                                  libwpa2/tlsv1_cred.o
                                                  libwpa2/tls_internal.o
tlsv1_cred_free                                   libwpa2/tlsv1_cred.o
                                                  libwpa2/tlsv1_client.o
                                                  libwpa2/tls_internal.o
tlsv1_record_change_read_cipher                   libwpa2/tlsv1_record.o
                                                  libwpa2/tlsv1_server_read.o
                                                  libwpa2/tlsv1_server.o
                                                  libwpa2/tlsv1_client_read.o
                                                  libwpa2/tlsv1_client.o
tlsv1_record_change_write_cipher                  libwpa2/tlsv1_record.o
                                                  libwpa2/tlsv1_server_write.o
                                                  libwpa2/tlsv1_server.o
                                                  libwpa2/tlsv1_client_write.o
                                                  libwpa2/tlsv1_client.o
tlsv1_record_receive                              libwpa2/tlsv1_record.o
                                                  libwpa2/tlsv1_server.o
                                                  libwpa2/tlsv1_client.o
tlsv1_record_send                                 libwpa2/tlsv1_record.o
                                                  libwpa2/tlsv1_server_write.o
                                                  libwpa2/tlsv1_server.o
                                                  libwpa2/tlsv1_client_write.o
                                                  libwpa2/tlsv1_client.o
tlsv1_record_set_cipher_suite                     libwpa2/tlsv1_record.o
                                                  libwpa2/tlsv1_server_read.o
                                                  libwpa2/tlsv1_server.o
                                                  libwpa2/tlsv1_client_read.o
                                                  libwpa2/tlsv1_client.o
tlsv1_server_alert                                libwpa2/tlsv1_server.o
                                                  libwpa2/tlsv1_server_write.o
                                                  libwpa2/tlsv1_server_read.o
tlsv1_server_decrypt                              libwpa2/tlsv1_server.o
tlsv1_server_deinit                               libwpa2/tlsv1_server.o
tlsv1_server_derive_keys                          libwpa2/tlsv1_server.o
                                                  libwpa2/tlsv1_server_write.o
                                                  libwpa2/tlsv1_server_read.o
tlsv1_server_encrypt                              libwpa2/tlsv1_server.o
tlsv1_server_established                          libwpa2/tlsv1_server.o
tlsv1_server_get_cipher                           libwpa2/tlsv1_server.o
tlsv1_server_get_keyblock_size                    libwpa2/tlsv1_server.o
tlsv1_server_get_keys                             libwpa2/tlsv1_server.o
tlsv1_server_global_deinit                        libwpa2/tlsv1_server.o
tlsv1_server_global_init                          libwpa2/tlsv1_server.o
tlsv1_server_handshake                            libwpa2/tlsv1_server.o
tlsv1_server_handshake_write                      libwpa2/tlsv1_server_write.o
                                                  libwpa2/tlsv1_server.o
tlsv1_server_init                                 libwpa2/tlsv1_server.o
tlsv1_server_prf                                  libwpa2/tlsv1_server.o
tlsv1_server_process_handshake                    libwpa2/tlsv1_server_read.o
                                                  libwpa2/tlsv1_server.o
tlsv1_server_resumed                              libwpa2/tlsv1_server.o
tlsv1_server_send_alert                           libwpa2/tlsv1_server_write.o
                                                  libwpa2/tlsv1_server.o
tlsv1_server_set_cipher_list                      libwpa2/tlsv1_server.o
tlsv1_server_set_session_ticket_cb                libwpa2/tlsv1_server.o
tlsv1_server_set_verify                           libwpa2/tlsv1_server.o
tlsv1_server_shutdown                             libwpa2/tlsv1_server.o
tlsv1_set_ca_cert                                 libwpa2/tlsv1_cred.o
                                                  libwpa2/tls_internal.o
tlsv1_set_cert                                    libwpa2/tlsv1_cred.o
                                                  libwpa2/tls_internal.o
tlsv1_set_dhparams                                libwpa2/tlsv1_cred.o
tlsv1_set_private_key                             libwpa2/tlsv1_cred.o
                                                  libwpa2/tls_internal.o
total_buffed_eb_num                               libpp/pp.o
                                                  libnet80211/ieee80211_hostap.o
tout_dis_txpwr_track                              libphy/phy_chip_v6_ana.o
                                                  libphy/phy_chip_v6_cal.o
trc_NeedRTS                                       libpp/trc.o
trc_onDisconnect                                  libpp/trc.o
trc_onScanDone                                    libpp/trc.o
trc_onScanStart                                   libpp/trc.o
tsen_meas                                         libphy/phy_chip_v6_ana.o
tx_atten_set_interp                               libphy/phy_chip_v6.o
                                                  libphy/phy_chip_v6_cal.o
                                                  libphy/phy_chip_v6_ana.o
tx_cap_init                                       libphy/phy_chip_v6.o
tx_cont_cfg                                       libphy/phy_chip_v6.o
tx_cont_dis                                       libphy/phy_chip_v6.o
tx_cont_en                                        libphy/phy_chip_v6.o
tx_pwctrl_background                              libphy/phy_chip_v6_cal.o
                                                  libpp/pp.o
tx_pwctrl_bg_init                                 libphy/phy_chip_v6_cal.o
                                                  libphy/phy_chip_v6.o
tx_pwctrl_cal                                     libphy/phy_chip_v6_cal.o
tx_pwctrl_init                                    libphy/phy_chip_v6.o
tx_pwctrl_init_cal                                libphy/phy_chip_v6.o
tx_pwctrl_pk_num                                  libphy/phy_chip_v6_cal.o
tx_pwctrl_track_num                               libphy/phy_chip_v6_cal.o
tx_pwr_backoff                                    libphy/phy_chip_v6_cal.o
                                                  libphy/phy_chip_v6.o
tx_pwr_backoff_old                                libphy/phy_chip_v6_cal.o
tx_rf_ana_gain                                    libphy/phy_chip_v6.o
                                                  libphy/phy_chip_v6_cal.o
txbbgain2dcoindex                                 libphy/phy_chip_v6_cal.o
txbk_dpdby_flag                                   libphy/phy_chip_v6.o
txiq_cover                                        libphy/phy_chip_v6_cal.o
txiq_get_mis_pwr                                  libphy/phy_chip_v6_cal.o
txpwr_offset                                      libphy/phy_chip_v6_ana.o
                                                  libphy/phy_chip_v6.o
uart_buff_switch                                  libphy/phy_chip_v6.o
uart_div_modify                                   libmain/app_main.o
uart_tx_flush                                     libpp/pm.o
                                                  libphy/phy_chip_v6.o
uart_wait_idle                                    libphy/phy_chip_v6.o
udp_bind                                          liblwip/udp.o
                                                  liblwip/mdns.o
                                                  liblwip/espconn_udp.o
                                                  liblwip/dns.o
                                                  liblwip/dhcpserver.o
                                                  liblwip/dhcp.o
udp_connect                                       liblwip/udp.o
                                                  liblwip/dns.o
                                                  liblwip/dhcp.o
udp_disconnect                                    liblwip/udp.o
                                                  liblwip/espconn_udp.o
                                                  liblwip/dhcpserver.o
udp_input                                         liblwip/udp.o
                                                  liblwip/ip.o
udp_new                                           liblwip/udp.o
                                                  liblwip/sntp.o
                                                  liblwip/mdns.o
                                                  liblwip/espconn_udp.o
                                                  liblwip/dns.o
                                                  liblwip/dhcpserver.o
                                                  liblwip/dhcp.o
udp_pcbs                                          liblwip/udp.o
udp_recv                                          liblwip/udp.o
                                                  liblwip/sntp.o
                                                  liblwip/mdns.o
                                                  liblwip/espconn_udp.o
                                                  liblwip/dns.o
                                                  liblwip/dhcpserver.o
                                                  liblwip/dhcp.o
udp_remove                                        liblwip/udp.o
                                                  liblwip/sntp.o
                                                  liblwip/mdns.o
                                                  liblwip/espconn_udp.o
                                                  liblwip/dhcpserver.o
                                                  liblwip/dhcp.o
udp_send                                          liblwip/udp.o
                                                  liblwip/espconn_udp.o
udp_sendto                                        liblwip/udp.o
                                                  liblwip/sntp.o
                                                  liblwip/mdns.o
                                                  liblwip/espconn_udp.o
                                                  liblwip/dns.o
                                                  liblwip/dhcpserver.o
udp_sendto_if                                     liblwip/udp.o
                                                  liblwip/dhcp.o
unregister_ieee80211_action_vendor_get_key_cb     libnet80211/ieee80211_action_vendor.o
                                                  libespnow/simple_pair.o
                                                  libespnow/manatick.o
unregister_ieee80211_action_vendor_spec_cb        libnet80211/ieee80211_action_vendor.o
                                                  libespnow/simple_pair.o
                                                  libespnow/manatick.o
unregister_ieee80211_rfid_locp_recv_cb            libnet80211/ieee80211_rfid.o
                                                  libmain/user_interface.o
unregister_simple_pair_status_cb                  libespnow/simple_pair.o
unsign_to_sign                                    libphy/phy_chip_v6_cal.o
unsupported_str                                   libssl/ssl_crypto_misc.o
updateTime                                        libmain/time.o
user_init                                         ../empty_user.o
                                                  libmain/app_main.o
user_init_flag                                    libmain/app_main.o
                                                  libwps/wps.o
                                                  libsmartconfig/sc_sniffer.o
                                                  libmain/user_interface.o
user_rf_cal_sector_set                            ../empty_user.o
                                                  libmain/app_main.o
user_rf_pre_init                                  libmain/app_main.o
user_uart_wait_tx_fifo_empty                      libmain/app_main.o
                                                  libmain/user_interface.o
uuid_bin2str                                      libwps/uuid.o
                                                  libwps/wps_registrar.o
uuid_gen_mac_addr                                 libwps/wps_common.o
                                                  libwps/wps.o
uuid_str2bin                                      libwps/uuid.o
vPortFree                                         libmain/mem_manager.o
                                                  libwps/wps_registrar.o
                                                  libwps/wps.o
                                                  libwps/wps_dev_attr.o
                                                  libwpa/wpa_main.o
                                                  libwpa/wpabuf.o
                                                  libwpa/wpa_auth.o
                                                  libwpa/wpa_auth_ie.o
                                                  libwpa/common.o
                                                  libwpa/ap_config.o
                                                  libwpa2/x509v3.o
                                                  libwpa2/tlsv1_server_write.o
                                                  libwpa2/tlsv1_server_read.o
                                                  libwpa2/tlsv1_server.o
                                                  libwpa2/tlsv1_cred.o
                                                  libwpa2/tlsv1_client_write.o
                                                  libwpa2/tlsv1_client.o
                                                  libwpa2/tls_internal.o
                                                  libwpa2/rsa.o
                                                  libwpa2/pkcs8.o
                                                  libwpa2/pkcs5.o
                                                  libwpa2/ext_password.o
                                                  libwpa2/eap_ttls.o
                                                  libwpa2/eap_tls.o
                                                  libwpa2/eap_tls_common.o
                                                  libwpa2/eap_peap.o
                                                  libwpa2/eap.o
                                                  libwpa2/eap_mschapv2.o
                                                  libwpa2/bignum.o
                                                  libwpa2/base64.o
                                                  libssl/ssl_x509.o
                                                  libssl/ssl_tls1.o
                                                  libssl/ssl_rsa.o
                                                  libssl/ssl_loader.o
                                                  libssl/ssl_bigint.o
                                                  libssl/ssl_asn1.o
                                                  libssl/espconn_ssl.o
                                                  libssl/espconn_secure.o
                                                  libsmartconfig/sc_sniffer.o
                                                  libsmartconfig/sc_esptouch.o
                                                  libsmartconfig/sc_airkiss.o
                                                  libpp/wdev.o
                                                  libpp/pp.o
                                                  libpp/pm.o
                                                  libpp/pm_for_bcn_only_mode.o
                                                  libpp/esf_buf.o
                                                  libnet80211/wl_cnx.o
                                                  libnet80211/ieee80211_sta.o
                                                  libnet80211/ieee80211_scan.o
                                                  libnet80211/ieee80211_regdomain.o
                                                  libnet80211/ieee80211_phy.o
                                                  libnet80211/ieee80211_output.o
                                                  libnet80211/ieee80211.o
                                                  libnet80211/ieee80211_mesh_quick.o
                                                  libnet80211/ieee80211_hostap.o
                                                  libmesh/espconn_mesh.o
                                                  libmesh/espconn_base64.o
                                                  libmain/user_interface.o
                                                  libmain/eagle_lwip_if.o
                                                  libmain/app_main.o
                                                  liblwip/udp.o
                                                  liblwip/timers.o
                                                  liblwip/tcp.o
                                                  liblwip/tcp_in.o
                                                  liblwip/raw.o
                                                  liblwip/ping.o
                                                  liblwip/pbuf.o
                                                  liblwip/netio.o
                                                  liblwip/mdns.o
                                                  liblwip/igmp.o
                                                  liblwip/etharp.o
                                                  liblwip/espconn_udp.o
                                                  liblwip/espconn_tcp.o
                                                  liblwip/espconn_buf.o
                                                  liblwip/dns.o
                                                  liblwip/dhcpserver.o
                                                  liblwip/dhcp.o
                                                  libespnow/simple_pair.o
                                                  libespnow/manatick.o
                                                  libcrypto/crypto_internal.o
                                                  libcrypto/crypto_internal-cipher.o
                                                  libcrypto/aes-internal-enc.o
                                                  libcrypto/aes-internal-dec.o
vPortInitialiseBlocks                             libmain/mem_manager.o
wDevCtrl                                          libpp/wdev.o
                                                  libpp/pp.o
                                                  libpp/esf_buf.o
wDevDisableRx                                     libpp/wdev.o
                                                  libpp/if_hwctrl.o
                                                  libnet80211/ieee80211_hostap.o
                                                  libmain/user_interface.o
wDevEnableRx                                      libpp/wdev.o
                                                  libpp/if_hwctrl.o
                                                  libmain/user_interface.o
                                                  libmain/app_main.o
wDevForceAck6M                                    libpp/wdev.o
wDev_AppendRxAmpduLensBlocks                      libpp/wdev.o
wDev_AppendRxBlocks                               libpp/wdev.o
                                                  libpp/pp.o
wDev_ClearBssid                                   libpp/wdev.o
wDev_ClearTxqCollisions                           libpp/wdev.o
                                                  libpp/lmac.o
wDev_ClearWaitingQueue                            libpp/wdev.o
                                                  libpp/lmac.o
wDev_Crypto_Conf                                  libpp/wdev.o
                                                  libpp/if_hwctrl.o
wDev_Crypto_Disable                               libpp/wdev.o
                                                  libpp/if_hwctrl.o
wDev_DisableTransmit                              libpp/wdev.o
wDev_DisableUcRx                                  libpp/wdev.o
                                                  libnet80211/ieee80211_sta.o
                                                  libnet80211/ieee80211_hostap.o
wDev_Disable_Beacon_Tsf                           libpp/wdev.o
wDev_EnableTransmit                               libpp/wdev.o
                                                  libpp/lmac.o
wDev_EnableUcRx                                   libpp/wdev.o
                                                  libnet80211/ieee80211_sta.o
                                                  libnet80211/ieee80211_hostap.o
wDev_Enable_Beacon_Tsf                            libpp/wdev.o
wDev_GetBAInfo                                    libpp/wdev.o
                                                  libpp/lmac.o
wDev_GetTxqCollisions                             libpp/wdev.o
                                                  libpp/lmac.o
wDev_Get_Next_TBTT                                libpp/wdev.o
                                                  libnet80211/ieee80211_hostap.o
wDev_Initialize                                   libpp/wdev.o
                                                  libmain/app_main.o
wDev_Insert_KeyEntry                              libpp/wdev.o
                                                  libpp/if_hwctrl.o
wDev_Is_Mac_Key_Exist                             libpp/wdev.o
                                                  libespnow/simple_pair.o
wDev_MacTim1Arm                                   libpp/wdev.o
                                                  libpp/pp.o
wDev_MacTim1SetFunc                               libpp/wdev.o
                                                  libpp/pp.o
wDev_Option_Init                                  libpp/wdev.o
wDev_ProcessCollision                             libpp/wdev.o
                                                  libpp/lmac.o
wDev_ProcessFiq                                   libpp/wdev.o
                                                  libmain/app_main.o
wDev_Reset_TBTT                                   libpp/wdev.o
                                                  libnet80211/ieee80211_hostap.o
wDev_SetBssid                                     libpp/wdev.o
wDev_SetFrameAckType                              libpp/wdev.o
                                                  libpp/lmac.o
wDev_SetMacAddress                                libpp/wdev.o
                                                  libpp/if_hwctrl.o
                                                  libmain/user_interface.o
wDev_SetRxPolicy                                  libpp/wdev.o
                                                  libpp/if_hwctrl.o
                                                  libnet80211/wl_cnx.o
                                                  libnet80211/ieee80211_scan.o
                                                  libnet80211/ieee80211_hostap.o
wDev_SetWaitingQueue                              libpp/wdev.o
                                                  libpp/lmac.o
wDev_Set_Beacon_Int                               libpp/wdev.o
                                                  libnet80211/ieee80211_hostap.o
                                                  libmain/user_interface.o
                                                  libmain/app_main.o
wDev_remove_KeyEntry                              libpp/wdev.o
                                                  libwpa/wpa_main.o
                                                  libpp/if_hwctrl.o
                                                  libnet80211/wl_cnx.o
wDev_remove_KeyEntry_all_cnx                      libpp/wdev.o
                                                  libnet80211/wl_cnx.o
                                                  libnet80211/ieee80211_hostap.o
wait_rfpll_cal_end                                libphy/phy_chip_v6_ana.o
                                                  libphy/phy_chip_v6.o
wdev_exit_sniffer                                 libpp/wdev.o
                                                  libmain/user_interface.o
wdev_go_sniffer                                   libpp/wdev.o
                                                  libmain/user_interface.o
wdev_set_sniffer_addr                             libpp/wdev.o
wdt_feed                                          libmain/app_main.o
wdt_init                                          libmain/app_main.o
weixin_ip                                         libsmartconfig/sc_airkiss.o
weixin_timer                                      libsmartconfig/sc_airkiss.o
                                                  libsmartconfig/sc_sniffer.o
wep                                               libnet80211/ieee80211_crypto_wep.o
                                                  libwpa/wpa_main.o
                                                  libwpa/wpa_auth.o
wifi_check_regdomain_param                        libmain/user_interface.o
wifi_disable_gpio_wakeup                          libmain/user_interface.o
wifi_enable_6m_rate                               libmain/user_interface.o
wifi_enable_gpio_wakeup                           libmain/user_interface.o
wifi_fpm_auto_sleep_set_in_null_mode              libpp/pm_for_bcn_only_mode.o
wifi_fpm_close                                    libpp/pm_for_bcn_only_mode.o
wifi_fpm_do_sleep                                 libpp/pm_for_bcn_only_mode.o
                                                  libmain/user_interface.o
wifi_fpm_do_wakeup                                libpp/pm_for_bcn_only_mode.o
wifi_fpm_get_sleep_type                           libpp/pm_for_bcn_only_mode.o
wifi_fpm_open                                     libpp/pm_for_bcn_only_mode.o
                                                  libmain/user_interface.o
wifi_fpm_set_sleep_type                           libpp/pm_for_bcn_only_mode.o
                                                  libmain/user_interface.o
wifi_fpm_set_wakeup_cb                            libpp/pm_for_bcn_only_mode.o
wifi_get_broadcast_if                             libmain/user_interface.o
                                                  liblwip/mdns.o
wifi_get_channel                                  libmain/user_interface.o
                                                  libsmartconfig/sc_esptouch.o
                                                  libsmartconfig/sc_airkiss.o
                                                  libmesh/espconn_mesh.o
wifi_get_ip_info                                  libmain/user_interface.o
                                                  libssl/espconn_secure.o
                                                  libsmartconfig/sc_esptouch.o
                                                  libsmartconfig/sc_airkiss.o
                                                  libmesh/espconn_mesh.o
                                                  liblwip/mdns.o
                                                  liblwip/espconn_udp.o
                                                  liblwip/espconn.o
                                                  liblwip/dhcpserver.o
wifi_get_macaddr                                  libmain/user_interface.o
                                                  libwps/wps.o
                                                  libwpa2/eap.o
                                                  libsmartconfig/sc_esptouch.o
                                                  libsmartconfig/sc_airkiss.o
                                                  libnet80211/ieee80211_output.o
                                                  libnet80211/ieee80211_hostap.o
                                                  libmesh/espconn_mesh.o
wifi_get_opmode                                   libmain/user_interface.o
                                                  libwps/wps.o
                                                  libssl/espconn_secure.o
                                                  libsmartconfig/sc_sniffer.o
                                                  libpp/pm_for_bcn_only_mode.o
                                                  libnet80211/wl_cnx.o
                                                  libnet80211/ieee80211_scan.o
                                                  libnet80211/ieee80211_hostap.o
                                                  libnet80211/ieee80211_action_vendor.o
                                                  libmesh/espconn_mesh.o
                                                  liblwip/mdns.o
                                                  liblwip/espconn_udp.o
                                                  liblwip/espconn.o
                                                  liblwip/dhcpserver.o
wifi_get_opmode_default                           libmain/user_interface.o
wifi_get_phy_mode                                 libmain/user_interface.o
wifi_get_regdomain                                libmain/user_interface.o
wifi_get_sleep_type                               libmain/user_interface.o
wifi_get_user_fixed_rate                          libmain/user_interface.o
wifi_get_user_ie                                  libmain/user_interface.o
wifi_get_user_limit_rate_mask                     libmain/user_interface.o
wifi_mode_set                                     libnet80211/ieee80211.o
                                                  libmain/user_interface.o
                                                  libmain/app_main.o
wifi_param_save_protect_with_check                libmain/user_interface.o
                                                  libmain/app_main.o
wifi_promiscuous_enable                           libmain/user_interface.o
                                                  libsmartconfig/sc_sniffer.o
                                                  libsmartconfig/sc_esptouch.o
                                                  libsmartconfig/sc_airkiss.o
wifi_promiscuous_set_mac                          libmain/user_interface.o
wifi_regdomain_need_update                        libmain/user_interface.o
wifi_register_rfid_locp_recv_cb                   libmain/user_interface.o
wifi_register_send_pkt_freedom_cb                 libmain/user_interface.o
wifi_register_user_ie_manufacturer_recv_cb        libmain/user_interface.o
wifi_rfid_locp_recv_close                         libmain/user_interface.o
wifi_rfid_locp_recv_open                          libmain/user_interface.o
wifi_send_pkt_freedom                             libmain/user_interface.o
wifi_set_broadcast_if                             libmain/user_interface.o
wifi_set_channel                                  libmain/user_interface.o
                                                  libsmartconfig/sc_sniffer.o
                                                  libsmartconfig/sc_esptouch.o
                                                  libsmartconfig/sc_airkiss.o
wifi_set_event_handler_cb                         libmain/user_interface.o
                                                  libmesh/espconn_mesh.o
wifi_set_ip_info                                  libmain/user_interface.o
                                                  libmesh/espconn_mesh.o
wifi_set_macaddr                                  libmain/user_interface.o
wifi_set_opmode                                   libmain/user_interface.o
                                                  libmesh/espconn_mesh.o
wifi_set_opmode_current                           libmain/user_interface.o
wifi_set_phy_mode                                 libmain/user_interface.o
wifi_set_promiscuous_rx_cb                        libmain/user_interface.o
                                                  libsmartconfig/sc_sniffer.o
wifi_set_regdomain                                libmain/user_interface.o
wifi_set_sleep_type                               libmain/user_interface.o
wifi_set_status_led_output_level                  libmain/user_interface.o
wifi_set_user_fixed_rate                          libmain/user_interface.o
wifi_set_user_ie                                  libmain/user_interface.o
wifi_set_user_limit_rate_mask                     libmain/user_interface.o
wifi_set_user_rate_limit                          libmain/user_interface.o
wifi_set_user_sup_rate                            libmain/user_interface.o
wifi_set_wps_cb                                   libwps/wps.o
wifi_softap_cacl_mac                              libmain/user_interface.o
                                                  libmain/app_main.o
wifi_softap_deauth                                libmain/user_interface.o
                                                  libnet80211/ieee80211_scan.o
wifi_softap_dhcps_client_leave                    liblwip/dhcpserver.o
wifi_softap_dhcps_client_update                   liblwip/dhcpserver.o
wifi_softap_dhcps_start                           libmain/user_interface.o
                                                  libmesh/espconn_mesh.o
wifi_softap_dhcps_status                          libmain/user_interface.o
                                                  liblwip/dhcpserver.o
wifi_softap_dhcps_stop                            libmain/user_interface.o
                                                  libmesh/espconn_mesh.o
wifi_softap_free_station_info                     libmain/user_interface.o
                                                  libmesh/espconn_mesh.o
wifi_softap_get_beacon_only_mode                  libmain/user_interface.o
wifi_softap_get_config                            libmain/user_interface.o
                                                  libmesh/espconn_mesh.o
wifi_softap_get_config_default                    libmain/user_interface.o
wifi_softap_get_dhcps_lease                       liblwip/dhcpserver.o
wifi_softap_get_dhcps_lease_time                  liblwip/dhcpserver.o
wifi_softap_get_station_info                      libmain/user_interface.o
                                                  libmesh/espconn_mesh.o
wifi_softap_get_station_num                       libmain/user_interface.o
                                                  libmesh/espconn_mesh.o
wifi_softap_reset_dhcps_lease_time                liblwip/dhcpserver.o
wifi_softap_set_beacon_only_mode                  libmain/user_interface.o
wifi_softap_set_config                            libmain/user_interface.o
                                                  libmesh/espconn_mesh.o
wifi_softap_set_config_current                    libmain/user_interface.o
wifi_softap_set_default_ssid                      libmain/user_interface.o
                                                  libmain/app_main.o
wifi_softap_set_dhcps_lease                       liblwip/dhcpserver.o
wifi_softap_set_dhcps_lease_time                  liblwip/dhcpserver.o
wifi_softap_set_dhcps_offer_option                liblwip/dhcpserver.o
wifi_softap_set_station_info                      libmain/user_interface.o
                                                  liblwip/dhcpserver.o
wifi_softap_staconnected_event_policy             libnet80211/wl_cnx.o
                                                  libmesh/espconn_mesh.o
wifi_softap_start                                 libnet80211/ieee80211_hostap.o
                                                  libmain/user_interface.o
                                                  libmain/app_main.o
wifi_softap_stop                                  libnet80211/ieee80211_hostap.o
                                                  libmain/user_interface.o
wifi_softap_toomany_deny                          libnet80211/wl_cnx.o
                                                  libmesh/espconn_mesh.o
wifi_station_ap_change                            libmain/user_interface.o
wifi_station_ap_check                             libmain/user_interface.o
wifi_station_ap_number_set                        libmain/user_interface.o
wifi_station_clear_cert_key                       libwpa2/eap.o
wifi_station_clear_enterprise_ca_cert             libwpa2/eap.o
wifi_station_clear_enterprise_cert_key            libwpa2/eap.o
wifi_station_clear_enterprise_new_password        libwpa2/eap.o
wifi_station_clear_enterprise_password            libwpa2/eap.o
wifi_station_clear_enterprise_username            libwpa2/eap.o
wifi_station_clear_username                       libwpa2/eap.o
wifi_station_connect                              libmain/user_interface.o
                                                  libwps/wps.o
                                                  libmesh/espconn_mesh.o
                                                  libmain/app_main.o
wifi_station_dhcpc_event                          libmain/user_interface.o
                                                  libmain/eagle_lwip_if.o
wifi_station_dhcpc_set_maxtry                     libmain/user_interface.o
wifi_station_dhcpc_start                          libmain/user_interface.o
wifi_station_dhcpc_status                         libmain/user_interface.o
                                                  libsmartconfig/sc_sniffer.o
                                                  libmain/eagle_lwip_if.o
wifi_station_dhcpc_stop                           libmain/user_interface.o
wifi_station_disconnect                           libmain/user_interface.o
                                                  libwps/wps.o
                                                  libsmartconfig/sc_sniffer.o
                                                  libnet80211/ieee80211_sta.o
                                                  libnet80211/ieee80211_scan.o
                                                  libmesh/espconn_mesh.o
wifi_station_get_ap_info                          libmain/user_interface.o
wifi_station_get_auto_connect                     libmain/user_interface.o
                                                  libmain/app_main.o
wifi_station_get_config                           libmain/user_interface.o
                                                  libnet80211/wl_cnx.o
                                                  libmesh/espconn_mesh.o
wifi_station_get_config_default                   libmain/user_interface.o
wifi_station_get_connect_status                   libmain/user_interface.o
                                                  libssl/espconn_secure.o
                                                  libsmartconfig/sc_esptouch.o
                                                  libsmartconfig/sc_airkiss.o
                                                  libmesh/espconn_mesh.o
                                                  liblwip/espconn.o
wifi_station_get_current_ap_id                    libmain/user_interface.o
wifi_station_get_enterprise_disable_time_check    libwpa2/eap.o
                                                  libwpa2/eap_tls_common.o
wifi_station_get_hostname                         libmain/user_interface.o
wifi_station_get_reconnect_policy                 libmain/user_interface.o
                                                  libnet80211/wl_cnx.o
                                                  libnet80211/ieee80211_sta.o
                                                  libnet80211/ieee80211_scan.o
                                                  libmesh/espconn_mesh.o
wifi_station_get_rssi                             libmain/user_interface.o
                                                  libmesh/espconn_mesh.o
wifi_station_restore_config                       libmain/user_interface.o
wifi_station_save_bssid                           libmain/user_interface.o
                                                  libwpa/wpa_main.o
wifi_station_save_pmk2cache                       libmain/user_interface.o
                                                  libwpa/wpa.o
wifi_station_scan                                 libmain/user_interface.o
                                                  libsmartconfig/sc_sniffer.o
                                                  libmesh/espconn_mesh.o
wifi_station_set_auto_connect                     libmain/user_interface.o
wifi_station_set_cert_key                         libwpa2/eap.o
wifi_station_set_config                           libmain/user_interface.o
                                                  libwps/wps.o
                                                  libmesh/espconn_mesh.o
wifi_station_set_config_current                   libmain/user_interface.o
                                                  libwps/wps.o
                                                  libnet80211/wl_cnx.o
wifi_station_set_default_hostname                 libmain/user_interface.o
                                                  libmain/eagle_lwip_if.o
                                                  libmain/app_main.o
wifi_station_set_enterprise_ca_cert               libwpa2/eap.o
wifi_station_set_enterprise_cert_key              libwpa2/eap.o
wifi_station_set_enterprise_disable_time_check    libwpa2/eap.o
wifi_station_set_enterprise_new_password          libwpa2/eap.o
wifi_station_set_enterprise_password              libwpa2/eap.o
wifi_station_set_enterprise_username              libwpa2/eap.o
wifi_station_set_hostname                         libmain/user_interface.o
wifi_station_set_reconnect_policy                 libmain/user_interface.o
                                                  libmesh/espconn_mesh.o
wifi_station_set_username                         libwpa2/eap.o
wifi_station_set_wpa2_enterprise_auth             libwpa2/eap.o
wifi_station_start                                libnet80211/ieee80211_sta.o
                                                  libmain/user_interface.o
                                                  libmain/app_main.o
wifi_station_stop                                 libnet80211/ieee80211_sta.o
                                                  libmain/user_interface.o
wifi_station_wps_deinit                           libwps/wps.o
wifi_station_wps_init                             libwps/wps.o
wifi_station_wps_start                            libwps/wps.o
wifi_station_wps_success                          libwps/wps.o
wifi_station_wps_timeout                          libwps/wps.o
wifi_status_led_install                           libmain/user_interface.o
wifi_status_led_uninstall                         libmain/user_interface.o
wifi_unregister_rfid_locp_recv_cb                 libmain/user_interface.o
wifi_unregister_send_pkt_freedom_cb               libmain/user_interface.o
wifi_unregister_user_ie_manufacturer_recv_cb      libmain/user_interface.o
wifi_wps_disable                                  libwps/wps.o
wifi_wps_enable                                   libwps/wps.o
wifi_wps_scan                                     libwps/wps.o
wifi_wps_scan_done                                libwps/wps.o
wifi_wps_start                                    libwps/wps.o
wpa2_enterprise_set_user_get_time                 libwpa2/eap.o
wpa2_get_time                                     libwpa2/eap.o
                                                  libwpa2/x509v3.o
                                                  libwpa2/tlsv1_server_write.o
                                                  libwpa2/tlsv1_client_write.o
wpa2_sm_alloc_eapol                               libwpa2/eap.o
wpa2_sm_rx_eapol                                  libwpa2/eap.o
wpa_add_kde                                       libwpa/wpa_auth_ie.o
                                                  libwpa/wpa_auth.o
wpa_attach                                        libwpa/wpa_main.o
                                                  libnet80211/ieee80211_sta.o
wpa_auth_for_each_sta                             libwpa/wpa_auth.o
wpa_auth_gen_wpa_ie                               libwpa/wpa_auth_ie.o
                                                  libwpa/wpa_auth.o
wpa_auth_sm_event                                 libwpa/wpa_auth.o
wpa_auth_sta_associated                           libwpa/wpa_auth.o
                                                  libnet80211/wl_cnx.o
wpa_auth_sta_deinit                               libwpa/wpa_auth.o
                                                  libnet80211/wl_cnx.o
wpa_auth_sta_init                                 libwpa/wpa_auth.o
                                                  libnet80211/wl_cnx.o
wpa_auth_sta_no_wpa                               libwpa/wpa_auth.o
wpa_auth_uses_mfp                                 libwpa/wpa_auth_ie.o
wpa_cipher_key_len                                libwpa/wpa_common.o
                                                  libwpa/wpa_auth.o
wpa_cipher_put_suites                             libwpa/wpa_common.o
                                                  libwpa/wpa_auth_ie.o
wpa_cipher_to_alg                                 libwpa/wpa_common.o
                                                  libwpa/wpa_auth.o
wpa_cipher_to_suite                               libwpa/wpa_common.o
                                                  libwpa/wpa_auth_ie.o
wpa_compare_rsn_ie                                libwpa/wpa_common.o
                                                  libwpa/wpa.o
                                                  libwpa/wpa_auth.o
wpa_config_assoc_ie                               libwpa/wpa_main.o
wpa_config_bss                                    libwpa/wpa_main.o
                                                  libnet80211/wl_cnx.o
                                                  libnet80211/ieee80211_sta.o
wpa_config_parse_string                           libwpa/common.o
                                                  libnet80211/ieee80211_scan.o
wpa_config_profile                                libwpa/wpa_main.o
                                                  libnet80211/wl_cnx.o
wpa_eapol_key_mic                                 libwpa/wpa_common.o
                                                  libwpa/wpa.o
                                                  libwpa/wpa_auth.o
wpa_gen_wpa_ie                                    libwpa/wpa_ie.o
                                                  libwpa/wpa.o
wpa_get_ntp_timestamp                             libwpa/common.o
                                                  libwpa/wpa_auth.o
wpa_init                                          libwpa/wpa_auth.o
                                                  libnet80211/ieee80211_hostap.o
wpa_neg_complete                                  libwpa/wpa_main.o
wpa_parse_kde_ies                                 libwpa/wpa_auth_ie.o
                                                  libwpa/wpa_auth.o
wpa_parse_wpa_ie                                  libwpa/wpa_ie.o
                                                  libnet80211/ieee80211_scan.o
wpa_parse_wpa_ie_rsn                              libwpa/wpa_common.o
                                                  libwpa/wpa_ie.o
                                                  libwpa/wpa_auth_ie.o
wpa_parse_wpa_ie_wpa                              libwpa/wpa_common.o
                                                  libwpa/wpa_ie.o
                                                  libwpa/wpa_auth_ie.o
wpa_pmk_to_ptk                                    libwpa/wpa_common.o
                                                  libwpa/wpa.o
                                                  libwpa/wpa_auth.o
wpa_receive                                       libwpa/wpa_auth.o
                                                  libnet80211/ieee80211_hostap.o
wpa_register                                      libwpa/wpa.o
                                                  libwpa/wpa_main.o
wpa_remove_ptk                                    libwpa/wpa_auth.o
wpa_set_bss                                       libwpa/wpa.o
                                                  libwpa/wpa_main.o
wpa_set_pmk                                       libwpa/wpa.o
                                                  libwpa2/eap.o
wpa_set_profile                                   libwpa/wpa.o
                                                  libwpa/wpa_main.o
wpa_sm_alloc_eapol                                libwpa/wpas_glue.o
                                                  libwpa/wpa.o
wpa_sm_deauthenticate                             libwpa/wpas_glue.o
                                                  libwpa/wpa.o
wpa_sm_disassociate                               libwpa/wpas_glue.o
                                                  libwpa/wpa.o
wpa_sm_get_beacon_ie                              libwpa/wpas_glue.o
                                                  libwpa/wpa.o
wpa_sm_mlme_setprotection                         libwpa/wpas_glue.o
                                                  libwpa/wpa.o
wpa_sm_rx_eapol                                   libwpa/wpa.o
                                                  libnet80211/ieee80211_sta.o
wpa_sm_set_state                                  libwpa/wpa.o
wpa_snprintf_hex                                  libwpa/wpa_debug.o
wpa_snprintf_hex_uppercase                        libwpa/wpa_debug.o
wpa_supplicant_parse_ies                          libwpa/wpa_ie.o
                                                  libwpa/wpa.o
wpa_validate_wpa_ie                               libwpa/wpa_auth_ie.o
                                                  libnet80211/wl_cnx.o
wpa_write_rsn_ie                                  libwpa/wpa_auth_ie.o
wpabuf_alloc                                      libwpa/wpabuf.o
                                                  libwps/wps_registrar.o
                                                  libwps/wps.o
                                                  libwps/wps_enrollee.o
                                                  libwps/wps_common.o
                                                  libwps/wps_attr_build.o
                                                  libwpa2/tls_internal.o
                                                  libwpa2/ext_password.o
                                                  libwpa2/eap_ttls.o
                                                  libwpa2/eap_peap.o
                                                  libwpa2/eap_common.o
                                                  libcrypto/dh_groups.o
wpabuf_alloc_copy                                 libwpa/wpabuf.o
                                                  libwps/wps_registrar.o
                                                  libwps/wps.o
                                                  libwps/wps_enrollee.o
                                                  libwpa2/tlsv1_client.o
                                                  libwpa2/eap_peap.o
                                                  libwpa2/eap.o
wpabuf_alloc_ext_data                             libwpa/wpabuf.o
                                                  libwpa2/tls_internal.o
wpabuf_concat                                     libwpa/wpabuf.o
wpabuf_dup                                        libwpa/wpabuf.o
                                                  libwps/wps_registrar.o
                                                  libwps/wps_enrollee.o
                                                  libwps/wps_attr_build.o
                                                  libwpa2/eap_ttls.o
                                                  libwpa2/eap_tls_common.o
                                                  libwpa2/eap_mschapv2.o
wpabuf_free                                       libwpa/wpabuf.o
                                                  libwps/wps_registrar.o
                                                  libwps/wps.o
                                                  libwps/wps_enrollee.o
                                                  libwps/wps_common.o
                                                  libwps/wps_attr_build.o
                                                  libwpa2/tlsv1_client.o
                                                  libwpa2/tls_internal.o
                                                  libwpa2/ext_password.o
                                                  libwpa2/eap_ttls.o
                                                  libwpa2/eap_tls.o
                                                  libwpa2/eap_tls_common.o
                                                  libwpa2/eap_peap.o
                                                  libwpa2/eap.o
                                                  libwpa2/eap_mschapv2.o
                                                  libcrypto/dh_groups.o
wpabuf_printf                                     libwpa/wpabuf.o
wpabuf_put                                        libwpa/wpabuf.o
                                                  libwps/wps_registrar.o
                                                  libwps/wps.o
                                                  libwps/wps_enrollee.o
                                                  libwps/wps_dev_attr.o
                                                  libwps/wps_common.o
                                                  libwps/wps_attr_build.o
                                                  libwpa2/tlsv1_client.o
                                                  libwpa2/tls_internal.o
                                                  libwpa2/eap_ttls.o
                                                  libwpa2/eap_tls_common.o
                                                  libwpa2/eap_peap.o
                                                  libwpa2/eap.o
                                                  libwpa2/eap_mschapv2.o
                                                  libwpa2/eap_common.o
                                                  libcrypto/dh_groups.o
wpabuf_resize                                     libwpa/wpabuf.o
                                                  libwps/wps.o
                                                  libwpa2/tlsv1_client.o
                                                  libwpa2/eap_tls_common.o
wpabuf_zeropad                                    libwpa/wpabuf.o
                                                  libwps/wps_common.o
                                                  libwps/wps_attr_build.o
wps_ap_priority_compar                            libwps/wps.o
wps_attr_text                                     libwps/wps.o
wps_authorized_macs                               libwps/wps_registrar.o
wps_build_assoc_req_ie                            libwps/wps.o
wps_build_assoc_resp_ie                           libwps/wps.o
wps_build_assoc_state                             libwps/wps_attr_build.o
                                                  libwps/wps_registrar.o
                                                  libwps/wps.o
                                                  libwps/wps_enrollee.o
wps_build_auth_type_flags                         libwps/wps_attr_build.o
                                                  libwps/wps_registrar.o
                                                  libwps/wps_enrollee.o
wps_build_authenticator                           libwps/wps_attr_build.o
                                                  libwps/wps_registrar.o
                                                  libwps/wps_enrollee.o
wps_build_config_error                            libwps/wps_attr_build.o
                                                  libwps/wps_registrar.o
                                                  libwps/wps.o
                                                  libwps/wps_enrollee.o
                                                  libwps/wps_common.o
wps_build_config_methods                          libwps/wps_attr_build.o
                                                  libwps/wps_registrar.o
                                                  libwps/wps.o
                                                  libwps/wps_enrollee.o
wps_build_conn_type_flags                         libwps/wps_attr_build.o
                                                  libwps/wps_registrar.o
                                                  libwps/wps_enrollee.o
wps_build_cred                                    libwps/wps_registrar.o
wps_build_credential_wrap                         libwps/wps_registrar.o
wps_build_dev_name                                libwps/wps_dev_attr.o
                                                  libwps/wps.o
wps_build_dev_password_id                         libwps/wps_attr_build.o
                                                  libwps/wps_registrar.o
                                                  libwps/wps.o
                                                  libwps/wps_enrollee.o
wps_build_device_attrs                            libwps/wps_dev_attr.o
                                                  libwps/wps_registrar.o
                                                  libwps/wps_enrollee.o
wps_build_encr_settings                           libwps/wps_attr_build.o
                                                  libwps/wps_registrar.o
                                                  libwps/wps_enrollee.o
wps_build_encr_type_flags                         libwps/wps_attr_build.o
                                                  libwps/wps_registrar.o
                                                  libwps/wps_enrollee.o
wps_build_enrollee_nonce                          libwps/wps_attr_build.o
                                                  libwps/wps_registrar.o
                                                  libwps/wps_enrollee.o
                                                  libwps/wps_common.o
wps_build_key_wrap_auth                           libwps/wps_attr_build.o
                                                  libwps/wps_registrar.o
                                                  libwps/wps_enrollee.o
wps_build_manufacturer                            libwps/wps_dev_attr.o
                                                  libwps/wps.o
wps_build_model_name                              libwps/wps_dev_attr.o
                                                  libwps/wps.o
wps_build_model_number                            libwps/wps_dev_attr.o
                                                  libwps/wps.o
wps_build_msg_type                                libwps/wps_attr_build.o
                                                  libwps/wps_registrar.o
                                                  libwps/wps_enrollee.o
                                                  libwps/wps_common.o
wps_build_os_version                              libwps/wps_dev_attr.o
                                                  libwps/wps_registrar.o
                                                  libwps/wps_enrollee.o
wps_build_primary_dev_type                        libwps/wps_dev_attr.o
                                                  libwps/wps.o
wps_build_probe_req_ie                            libwps/wps.o
wps_build_public_key                              libwps/wps_attr_build.o
                                                  libwps/wps_registrar.o
                                                  libwps/wps.o
                                                  libwps/wps_enrollee.o
wps_build_registrar_nonce                         libwps/wps_attr_build.o
                                                  libwps/wps_registrar.o
                                                  libwps/wps_enrollee.o
                                                  libwps/wps_common.o
wps_build_req_dev_type                            libwps/wps_dev_attr.o
                                                  libwps/wps.o
wps_build_req_type                                libwps/wps_attr_build.o
                                                  libwps/wps.o
wps_build_resp_type                               libwps/wps_attr_build.o
                                                  libwps/wps_registrar.o
                                                  libwps/wps.o
wps_build_rf_bands                                libwps/wps_dev_attr.o
                                                  libwps/wps_registrar.o
                                                  libwps/wps.o
                                                  libwps/wps_enrollee.o
wps_build_secondary_dev_type                      libwps/wps_dev_attr.o
                                                  libwps/wps.o
wps_build_uuid_e                                  libwps/wps_attr_build.o
                                                  libwps/wps_registrar.o
                                                  libwps/wps.o
                                                  libwps/wps_enrollee.o
wps_build_vendor_ext                              libwps/wps_dev_attr.o
                                                  libwps/wps_registrar.o
wps_build_vendor_ext_m1                           libwps/wps_dev_attr.o
                                                  libwps/wps_enrollee.o
wps_build_version                                 libwps/wps_attr_build.o
                                                  libwps/wps_registrar.o
                                                  libwps/wps.o
                                                  libwps/wps_enrollee.o
                                                  libwps/wps_common.o
wps_build_wfa_ext                                 libwps/wps_attr_build.o
                                                  libwps/wps_registrar.o
                                                  libwps/wps.o
                                                  libwps/wps_enrollee.o
                                                  libwps/wps_common.o
wps_build_wsc_ack                                 libwps/wps_common.o
                                                  libwps/wps_registrar.o
                                                  libwps/wps_enrollee.o
wps_build_wsc_nack                                libwps/wps_common.o
                                                  libwps/wps_registrar.o
                                                  libwps/wps_enrollee.o
wps_config_methods_str2bin                        libwps/wps_common.o
wps_decrypt_encr_settings                         libwps/wps_common.o
                                                  libwps/wps_registrar.o
                                                  libwps/wps_enrollee.o
wps_deinit                                        libwps/wps.o
wps_derive_keys                                   libwps/wps_common.o
                                                  libwps/wps_registrar.o
                                                  libwps/wps_enrollee.o
wps_derive_psk                                    libwps/wps_common.o
                                                  libwps/wps_registrar.o
                                                  libwps/wps_enrollee.o
wps_dev_deinit                                    libwps/wps.o
wps_dev_init                                      libwps/wps.o
wps_dev_type_bin2str                              libwps/wps_common.o
                                                  libwps/wps_registrar.o
                                                  libwps/wps.o
wps_dev_type_str2bin                              libwps/wps_common.o
wps_device_data_dup                               libwps/wps_dev_attr.o
wps_device_data_free                              libwps/wps_dev_attr.o
                                                  libwps/wps_registrar.o
wps_device_store                                  libwps/wps_registrar.o
                                                  libwps/wps_enrollee.o
wps_enrollee_get_msg                              libwps/wps_enrollee.o
                                                  libwps/wps.o
wps_enrollee_process_msg                          libwps/wps_enrollee.o
                                                  libwps/wps.o
wps_fail_event                                    libwps/wps_common.o
                                                  libwps/wps_registrar.o
                                                  libwps/wps_enrollee.o
wps_generate_pin                                  libwps/wps_common.o
                                                  libwps/wps.o
wps_get_msg                                       libwps/wps.o
wps_get_uuid_e                                    libwps/wps.o
wps_ie_encapsulate                                libwps/wps_attr_build.o
                                                  libwps/wps_registrar.o
                                                  libwps/wps.o
wps_init                                          libwps/wps.o
wps_is_20                                         libwps/wps.o
wps_is_addr_authorized                            libwps/wps.o
wps_is_selected_pbc_registrar                     libwps/wps.o
wps_is_selected_pin_registrar                     libwps/wps.o
wps_kdf                                           libwps/wps_common.o
wps_key_save                                      libwps/wps.o
                                                  libwps/wps_enrollee.o
wps_parse_msg                                     libwps/wps_attr_parse.o
                                                  libwps/wps_validate.o
                                                  libwps/wps_registrar.o
                                                  libwps/wps.o
                                                  libwps/wps_enrollee.o
wps_pbc_overlap_event                             libwps/wps_common.o
                                                  libwps/wps_registrar.o
wps_pbc_timeout_event                             libwps/wps_common.o
                                                  libwps/wps_registrar.o
wps_pin_checksum                                  libwps/wps_common.o
wps_pin_str_valid                                 libwps/wps_common.o
wps_pin_valid                                     libwps/wps_common.o
wps_process_ap_settings                           libwps/wps_attr_process.o
                                                  libwps/wps_registrar.o
                                                  libwps/wps_enrollee.o
wps_process_authenticator                         libwps/wps_attr_process.o
                                                  libwps/wps_registrar.o
                                                  libwps/wps_enrollee.o
wps_process_cred                                  libwps/wps_attr_process.o
                                                  libwps/wps_enrollee.o
wps_process_device_attrs                          libwps/wps_dev_attr.o
                                                  libwps/wps_registrar.o
                                                  libwps/wps_enrollee.o
wps_process_key_wrap_auth                         libwps/wps_attr_process.o
                                                  libwps/wps_registrar.o
                                                  libwps/wps_enrollee.o
wps_process_msg                                   libwps/wps.o
wps_process_os_version                            libwps/wps_dev_attr.o
                                                  libwps/wps_registrar.o
wps_process_rf_bands                              libwps/wps_dev_attr.o
                                                  libwps/wps_registrar.o
wps_process_wps_mX_req                            libwps/wps.o
wps_pwd_auth_fail_event                           libwps/wps_common.o
                                                  libwps/wps_registrar.o
                                                  libwps/wps_enrollee.o
wps_registrar_add_pin                             libwps/wps_registrar.o
wps_registrar_button_pushed                       libwps/wps_registrar.o
wps_registrar_complete                            libwps/wps_registrar.o
wps_registrar_config_ap                           libwps/wps_registrar.o
wps_registrar_deinit                              libwps/wps_registrar.o
wps_registrar_get_info                            libwps/wps_registrar.o
wps_registrar_get_msg                             libwps/wps_registrar.o
                                                  libwps/wps.o
wps_registrar_init                                libwps/wps_registrar.o
wps_registrar_invalidate_pin                      libwps/wps_registrar.o
wps_registrar_pbc_overlap                         libwps/wps_registrar.o
wps_registrar_probe_req_rx                        libwps/wps_registrar.o
wps_registrar_process_msg                         libwps/wps_registrar.o
                                                  libwps/wps.o
wps_registrar_selected_registrar_changed          libwps/wps_registrar.o
wps_registrar_unlock_pin                          libwps/wps_registrar.o
wps_registrar_update_ie                           libwps/wps_registrar.o
wps_registrar_wps_cancel                          libwps/wps_registrar.o
wps_send_eap_identity_rsp                         libwps/wps.o
wps_send_wps_mX_rsp                               libwps/wps.o
wps_sm_alloc_eapol                                libwps/wps.o
wps_sm_get                                        libwps/wps.o
wps_sm_rx_eapol                                   libwps/wps.o
wps_start_pending                                 libwps/wps.o
wps_station_wps_register_cb                       libwps/wps.o
wps_success_event                                 libwps/wps_common.o
                                                  libwps/wps_registrar.o
                                                  libwps/wps_enrollee.o
wps_txStart                                       libwps/wps.o
wps_validate_assoc_req                            libwps/wps_validate.o
wps_validate_assoc_resp                           libwps/wps_validate.o
wps_validate_beacon                               libwps/wps_validate.o
wps_validate_beacon_probe_resp                    libwps/wps_validate.o
wps_validate_m1                                   libwps/wps_validate.o
                                                  libwps/wps_registrar.o
wps_validate_m2                                   libwps/wps_validate.o
                                                  libwps/wps_enrollee.o
wps_validate_m2d                                  libwps/wps_validate.o
                                                  libwps/wps_enrollee.o
wps_validate_m3                                   libwps/wps_validate.o
                                                  libwps/wps_registrar.o
wps_validate_m4                                   libwps/wps_validate.o
                                                  libwps/wps_enrollee.o
wps_validate_m4_encr                              libwps/wps_validate.o
                                                  libwps/wps_enrollee.o
wps_validate_m5                                   libwps/wps_validate.o
                                                  libwps/wps_registrar.o
wps_validate_m5_encr                              libwps/wps_validate.o
                                                  libwps/wps_registrar.o
wps_validate_m6                                   libwps/wps_validate.o
                                                  libwps/wps_enrollee.o
wps_validate_m6_encr                              libwps/wps_validate.o
                                                  libwps/wps_enrollee.o
wps_validate_m7                                   libwps/wps_validate.o
                                                  libwps/wps_registrar.o
wps_validate_m7_encr                              libwps/wps_validate.o
                                                  libwps/wps_registrar.o
wps_validate_m8                                   libwps/wps_validate.o
                                                  libwps/wps_enrollee.o
wps_validate_m8_encr                              libwps/wps_validate.o
                                                  libwps/wps_enrollee.o
wps_validate_probe_req                            libwps/wps_validate.o
wps_validate_upnp_set_selected_registrar          libwps/wps_validate.o
wps_validate_wsc_ack                              libwps/wps_validate.o
                                                  libwps/wps_registrar.o
                                                  libwps/wps_enrollee.o
wps_validate_wsc_done                             libwps/wps_validate.o
                                                  libwps/wps_registrar.o
wps_validate_wsc_nack                             libwps/wps_validate.o
                                                  libwps/wps_registrar.o
                                                  libwps/wps_enrollee.o
write_data_to_rtc                                 libphy/phy_chip_v6.o
                                                  libmain/app_main.o
x509_certificate_chain_free                       libwpa2/x509v3.o
                                                  libwpa2/tlsv1_server_read.o
                                                  libwpa2/tlsv1_cred.o
                                                  libwpa2/tlsv1_client_read.o
x509_certificate_chain_validate                   libwpa2/x509v3.o
                                                  libwpa2/tlsv1_server_read.o
                                                  libwpa2/tlsv1_client_read.o
x509_certificate_check_signature                  libwpa2/x509v3.o
x509_certificate_free                             libwpa2/x509v3.o
                                                  libwpa2/tlsv1_common.o
x509_certificate_get_subject                      libwpa2/x509v3.o
                                                  libwpa2/tlsv1_server_write.o
                                                  libwpa2/tlsv1_client_write.o
x509_certificate_parse                            libwpa2/x509v3.o
                                                  libwpa2/tlsv1_server_read.o
                                                  libwpa2/tlsv1_cred.o
                                                  libwpa2/tlsv1_common.o
                                                  libwpa2/tlsv1_client_read.o
x509_certificate_self_signed                      libwpa2/x509v3.o
                                                  libwpa2/tlsv1_server_write.o
                                                  libwpa2/tlsv1_client_write.o
x509_display_error                                libssl/ssl_x509.o
                                                  libssl/ssl_tls1.o
x509_free                                         libssl/ssl_x509.o
                                                  libssl/ssl_tls1.o
                                                  libssl/ssl_asn1.o
                                                  libssl/espconn_ssl.o
x509_name_compare                                 libwpa2/x509v3.o
                                                  libwpa2/tlsv1_cred.o
x509_name_string                                  libwpa2/x509v3.o
                                                  libwpa2/tlsv1_cred.o
x509_new                                          libssl/ssl_x509.o
                                                  libssl/ssl_tls1.o
x509_print                                        libssl/ssl_x509.o
                                                  libssl/ssl_tls1.o
x509_verify                                       libssl/ssl_x509.o
                                                  libssl/ssl_tls1_svr.o
                                                  libssl/ssl_tls1.o
xPortGetFreeHeapSize                              libmain/mem_manager.o
                                                  libmain/user_interface.o
xPortWantedSizeAlign                              libmain/mem_manager.o
                                                  libmain/user_interface.o
xthal_set_intclear                                libmain/app_main.o
